Archive member included to satisfy reference by file (symbol)

RTAOS.lib(ActivateTask.o)     Rte.o (Os_ActivateTask)
RTAOS.lib(CancelAlarm.o)      Rte_Lib.o (Os_CancelAlarm)
RTAOS.lib(ClearEvent.o)       OsTask_04.o (Os_ClearEvent)
RTAOS.lib(DispatchTask.o)     RTAOS.lib(ActivateTask.o) (Os_Dispatch)
RTAOS.lib(GetEvent.o)         Rte_Lib.o (Os_GetEvent)
RTAOS.lib(GetISRID.o)         Os_ErrorHook.o (Os_GetISRID)
RTAOS.lib(GetResource.o)      Rte_Lib.o (Os_GetResource)
RTAOS.lib(GetTaskID.o)        Os_ErrorHook.o (Os_GetTaskID)
RTAOS.lib(Os_Cfg.o)           RTAOS.lib(ClearEvent.o) (Os_RunningTask)
RTAOS.lib(Os_Cfg_Counters.o)  Rte.o (Os_IncrementCounter_Rte_TOutCounter)
RTAOS.lib(Os_Cfg_KL.o)        RTAOS.lib(Os_Cfg.o) (Os_ActivateTaskKL)
RTAOS.lib(Os_fsb.o)           RTAOS.lib(DispatchTask.o) (@Os_fsb@4)
RTAOS.lib(Os_SetJmp.o)        RTAOS.lib(DispatchTask.o) (Os_SetJmp)
RTAOS.lib(Os_Stack.o)         main.o (Os_GetSP)
RTAOS.lib(ReleaseResource.o)  Rte_Lib.o (Os_ReleaseResource)
RTAOS.lib(ResumeOSInterrupts.o)
                              Rte.o (Os_ResumeOSInterrupts)
RTAOS.lib(SetEvent.o)         Rte.o (Os_SetEvent)
RTAOS.lib(SetRelAlarm.o)      Rte_Lib.o (Os_SetRelAlarm)
RTAOS.lib(StartOS.o)          main.o (Os_StartOS)
RTAOS.lib(StartScheduleTableRel.o)
                              Rte_Lib.o (Os_StartScheduleTableRel)
RTAOS.lib(StopScheduleTable.o)
                              Rte_Lib.o (Os_StopScheduleTable)
RTAOS.lib(SuspendOSInterrupts.o)
                              Rte.o (Os_SuspendOSInterrupts)
RTAOS.lib(TerminateTask.o)    OsTask_0.o (Os_TerminateTask)
RTAOS.lib(vrtaAppMain.o)      C:/Program Files/ETAS/ISOLAR-EVE3.5.0/plugins/com.etas.evetools.toolsfolder_3.5.5/Tools/MinGW/bin/../lib/gcc/i686-w64-mingw32/8.1.0/../../../../i686-w64-mingw32/lib/../lib/crt2.o (main)
RTAOS.lib(vrtaCore.o)         RTAOS.lib(vrtaAppMain.o) (vrtaLoadVM)
RTAOS.lib(vrtaIdleHandling.o)
                              RTAOS.lib(vrtaCore.o) (vrtaRunIdleHandlers)
RTAOS.lib(vrtaLoggerDevice.o)
                              virtualdevices.o (Logger::Logger(char*))
RTAOS.lib(vrtaOSMonitorDevice.o)
                              RTAOS.lib(vrtaAppMain.o) (EnableOsMonitor)
RTAOS.lib(vrtaSampleDevices.o)
                              EVE_SystemClock.o (vrtaBaseClock::Start())
RTAOS.lib(vrtaSystemClock.o)  RTAOS.lib(vrtaSampleDevices.o) (vrtaSystemClockSubscriber::vrtaSystemClockSubscriber())
RTAOS.lib(vrtaSystemClockDevice.o)
                              RTAOS.lib(vrtaSystemClock.o) (SystemClockTickUpdateNotification(unsigned int))
RTAOS.lib(WaitEvent.o)        OsTask_04.o (Os_WaitEvent)
RTAOS.lib(DispatchECC.o)      RTAOS.lib(Os_Cfg.o) (Os_DispatchECC)
RTAOS.lib(GetStackValue.o)    RTAOS.lib(Os_Cfg.o) (Os_GetStackValue)
RTAOS.lib(Os_vectors.o)       RTAOS.lib(vrtaAppMain.o) (Os_InterruptVectorTable)
RTAOS.lib(Os_wrapper.o)       RTAOS.lib(Os_vectors.o) (Os_ISRWrapper)
RTAOS.lib(StackOverrunHook.o)
                              RTAOS.lib(WaitEvent.o) (Os_Cbk_StackOverrunHook)
RTAOS.lib(virtualDevice.o)    RTAOS.lib(vrtaOSMonitorDevice.o) (VirtualDevice::EventHandler(vrtaEvent&))
RTAOS.lib(ShutdownOS.o)       RTAOS.lib(StackOverrunHook.o) (Os_ShutdownOS)
RTAOS.lib(InShutdown.o)       RTAOS.lib(ShutdownOS.o) (Os_Cbk_InShutdown)
C:/Program Files/ETAS/ISOLAR-EVE3.5.0/plugins/com.etas.evetools.toolsfolder_3.5.5/Tools/MinGW/bin/../lib/gcc/i686-w64-mingw32/8.1.0/../../../../i686-w64-mingw32/lib/../lib/libwinmm.a(dcnfs00150.o)
                              RTAOS.lib(vrtaSystemClock.o) (_imp__timeSetEvent@20)
C:/Program Files/ETAS/ISOLAR-EVE3.5.0/plugins/com.etas.evetools.toolsfolder_3.5.5/Tools/MinGW/bin/../lib/gcc/i686-w64-mingw32/8.1.0/../../../../i686-w64-mingw32/lib/../lib/libwinmm.a(dcnfs00149.o)
                              RTAOS.lib(vrtaSystemClock.o) (_imp__timeKillEvent@4)
C:/Program Files/ETAS/ISOLAR-EVE3.5.0/plugins/com.etas.evetools.toolsfolder_3.5.5/Tools/MinGW/bin/../lib/gcc/i686-w64-mingw32/8.1.0/../../../../i686-w64-mingw32/lib/../lib/libwinmm.a(dcnfs00144.o)
                              RTAOS.lib(vrtaSystemClock.o) (_imp__timeBeginPeriod@4)
C:/Program Files/ETAS/ISOLAR-EVE3.5.0/plugins/com.etas.evetools.toolsfolder_3.5.5/Tools/MinGW/bin/../lib/gcc/i686-w64-mingw32/8.1.0/../../../../i686-w64-mingw32/lib/../lib/libwinmm.a(dcnfh.o)
                              C:/Program Files/ETAS/ISOLAR-EVE3.5.0/plugins/com.etas.evetools.toolsfolder_3.5.5/Tools/MinGW/bin/../lib/gcc/i686-w64-mingw32/8.1.0/../../../../i686-w64-mingw32/lib/../lib/libwinmm.a(dcnfs00150.o) (_head_lib32_libwinmm_a)
C:/Program Files/ETAS/ISOLAR-EVE3.5.0/plugins/com.etas.evetools.toolsfolder_3.5.5/Tools/MinGW/bin/../lib/gcc/i686-w64-mingw32/8.1.0/../../../../i686-w64-mingw32/lib/../lib/libwinmm.a(dcnft.o)
                              C:/Program Files/ETAS/ISOLAR-EVE3.5.0/plugins/com.etas.evetools.toolsfolder_3.5.5/Tools/MinGW/bin/../lib/gcc/i686-w64-mingw32/8.1.0/../../../../i686-w64-mingw32/lib/../lib/libwinmm.a(dcnfh.o) (_lib32_libwinmm_a_iname)
C:/Program Files/ETAS/ISOLAR-EVE3.5.0/plugins/com.etas.evetools.toolsfolder_3.5.5/Tools/MinGW/bin/../lib/gcc/i686-w64-mingw32/8.1.0\libstdc++.a(class_type_info.o)
                              RTAOS.lib(vrtaCore.o) (vtable for __cxxabiv1::__class_type_info)
C:/Program Files/ETAS/ISOLAR-EVE3.5.0/plugins/com.etas.evetools.toolsfolder_3.5.5/Tools/MinGW/bin/../lib/gcc/i686-w64-mingw32/8.1.0\libstdc++.a(del_ops.o)
                              RTAOS.lib(vrtaOSMonitorDevice.o) (operator delete(void*, unsigned int))
C:/Program Files/ETAS/ISOLAR-EVE3.5.0/plugins/com.etas.evetools.toolsfolder_3.5.5/Tools/MinGW/bin/../lib/gcc/i686-w64-mingw32/8.1.0\libstdc++.a(del_opv.o)
                              RTAOS.lib(vrtaSampleDevices.o) (operator delete[](void*))
C:/Program Files/ETAS/ISOLAR-EVE3.5.0/plugins/com.etas.evetools.toolsfolder_3.5.5/Tools/MinGW/bin/../lib/gcc/i686-w64-mingw32/8.1.0\libstdc++.a(eh_aux_runtime.o)
                              RTAOS.lib(vrtaSampleDevices.o) (__cxa_throw_bad_array_new_length)
C:/Program Files/ETAS/ISOLAR-EVE3.5.0/plugins/com.etas.evetools.toolsfolder_3.5.5/Tools/MinGW/bin/../lib/gcc/i686-w64-mingw32/8.1.0\libstdc++.a(eh_catch.o)
                              RTAOS.lib(vrtaCore.o) (__cxa_begin_catch)
C:/Program Files/ETAS/ISOLAR-EVE3.5.0/plugins/com.etas.evetools.toolsfolder_3.5.5/Tools/MinGW/bin/../lib/gcc/i686-w64-mingw32/8.1.0\libstdc++.a(eh_globals.o)
                              C:/Program Files/ETAS/ISOLAR-EVE3.5.0/plugins/com.etas.evetools.toolsfolder_3.5.5/Tools/MinGW/bin/../lib/gcc/i686-w64-mingw32/8.1.0\libstdc++.a(eh_catch.o) (__cxa_get_globals)
C:/Program Files/ETAS/ISOLAR-EVE3.5.0/plugins/com.etas.evetools.toolsfolder_3.5.5/Tools/MinGW/bin/../lib/gcc/i686-w64-mingw32/8.1.0\libstdc++.a(eh_personality.o)
                              RTAOS.lib(vrtaCore.o) (__gxx_personality_v0)
C:/Program Files/ETAS/ISOLAR-EVE3.5.0/plugins/com.etas.evetools.toolsfolder_3.5.5/Tools/MinGW/bin/../lib/gcc/i686-w64-mingw32/8.1.0\libstdc++.a(eh_terminate.o)
                              C:/Program Files/ETAS/ISOLAR-EVE3.5.0/plugins/com.etas.evetools.toolsfolder_3.5.5/Tools/MinGW/bin/../lib/gcc/i686-w64-mingw32/8.1.0\libstdc++.a(eh_personality.o) (__cxxabiv1::__terminate(void (*)()))
C:/Program Files/ETAS/ISOLAR-EVE3.5.0/plugins/com.etas.evetools.toolsfolder_3.5.5/Tools/MinGW/bin/../lib/gcc/i686-w64-mingw32/8.1.0\libstdc++.a(eh_term_handler.o)
                              C:/Program Files/ETAS/ISOLAR-EVE3.5.0/plugins/com.etas.evetools.toolsfolder_3.5.5/Tools/MinGW/bin/../lib/gcc/i686-w64-mingw32/8.1.0\libstdc++.a(eh_terminate.o) (__cxxabiv1::__terminate_handler)
C:/Program Files/ETAS/ISOLAR-EVE3.5.0/plugins/com.etas.evetools.toolsfolder_3.5.5/Tools/MinGW/bin/../lib/gcc/i686-w64-mingw32/8.1.0\libstdc++.a(eh_throw.o)
                              C:/Program Files/ETAS/ISOLAR-EVE3.5.0/plugins/com.etas.evetools.toolsfolder_3.5.5/Tools/MinGW/bin/../lib/gcc/i686-w64-mingw32/8.1.0\libstdc++.a(eh_aux_runtime.o) (__cxa_throw)
C:/Program Files/ETAS/ISOLAR-EVE3.5.0/plugins/com.etas.evetools.toolsfolder_3.5.5/Tools/MinGW/bin/../lib/gcc/i686-w64-mingw32/8.1.0\libstdc++.a(eh_unex_handler.o)
                              C:/Program Files/ETAS/ISOLAR-EVE3.5.0/plugins/com.etas.evetools.toolsfolder_3.5.5/Tools/MinGW/bin/../lib/gcc/i686-w64-mingw32/8.1.0\libstdc++.a(eh_terminate.o) (__cxxabiv1::__unexpected_handler)
C:/Program Files/ETAS/ISOLAR-EVE3.5.0/plugins/com.etas.evetools.toolsfolder_3.5.5/Tools/MinGW/bin/../lib/gcc/i686-w64-mingw32/8.1.0\libstdc++.a(new_op.o)
                              RTAOS.lib(vrtaOSMonitorDevice.o) (operator new(unsigned int))
C:/Program Files/ETAS/ISOLAR-EVE3.5.0/plugins/com.etas.evetools.toolsfolder_3.5.5/Tools/MinGW/bin/../lib/gcc/i686-w64-mingw32/8.1.0\libstdc++.a(new_opv.o)
                              RTAOS.lib(vrtaSampleDevices.o) (operator new[](unsigned int))
C:/Program Files/ETAS/ISOLAR-EVE3.5.0/plugins/com.etas.evetools.toolsfolder_3.5.5/Tools/MinGW/bin/../lib/gcc/i686-w64-mingw32/8.1.0\libstdc++.a(pure.o)
                              RTAOS.lib(vrtaCore.o) (__cxa_pure_virtual)
C:/Program Files/ETAS/ISOLAR-EVE3.5.0/plugins/com.etas.evetools.toolsfolder_3.5.5/Tools/MinGW/bin/../lib/gcc/i686-w64-mingw32/8.1.0\libstdc++.a(si_class_type_info.o)
                              RTAOS.lib(vrtaLoggerDevice.o) (vtable for __cxxabiv1::__si_class_type_info)
C:/Program Files/ETAS/ISOLAR-EVE3.5.0/plugins/com.etas.evetools.toolsfolder_3.5.5/Tools/MinGW/bin/../lib/gcc/i686-w64-mingw32/8.1.0\libstdc++.a(tinfo.o)
                              C:/Program Files/ETAS/ISOLAR-EVE3.5.0/plugins/com.etas.evetools.toolsfolder_3.5.5/Tools/MinGW/bin/../lib/gcc/i686-w64-mingw32/8.1.0\libstdc++.a(class_type_info.o) (std::type_info::~type_info())
C:/Program Files/ETAS/ISOLAR-EVE3.5.0/plugins/com.etas.evetools.toolsfolder_3.5.5/Tools/MinGW/bin/../lib/gcc/i686-w64-mingw32/8.1.0\libstdc++.a(vmi_class_type_info.o)
                              RTAOS.lib(vrtaSampleDevices.o) (vtable for __cxxabiv1::__vmi_class_type_info)
C:/Program Files/ETAS/ISOLAR-EVE3.5.0/plugins/com.etas.evetools.toolsfolder_3.5.5/Tools/MinGW/bin/../lib/gcc/i686-w64-mingw32/8.1.0\libstdc++.a(vterminate.o)
                              C:/Program Files/ETAS/ISOLAR-EVE3.5.0/plugins/com.etas.evetools.toolsfolder_3.5.5/Tools/MinGW/bin/../lib/gcc/i686-w64-mingw32/8.1.0\libstdc++.a(eh_term_handler.o) (__gnu_cxx::__verbose_terminate_handler())
C:/Program Files/ETAS/ISOLAR-EVE3.5.0/plugins/com.etas.evetools.toolsfolder_3.5.5/Tools/MinGW/bin/../lib/gcc/i686-w64-mingw32/8.1.0\libstdc++.a(bad_alloc.o)
                              C:/Program Files/ETAS/ISOLAR-EVE3.5.0/plugins/com.etas.evetools.toolsfolder_3.5.5/Tools/MinGW/bin/../lib/gcc/i686-w64-mingw32/8.1.0\libstdc++.a(new_op.o) (std::bad_alloc::~bad_alloc())
C:/Program Files/ETAS/ISOLAR-EVE3.5.0/plugins/com.etas.evetools.toolsfolder_3.5.5/Tools/MinGW/bin/../lib/gcc/i686-w64-mingw32/8.1.0\libstdc++.a(bad_array_new.o)
                              C:/Program Files/ETAS/ISOLAR-EVE3.5.0/plugins/com.etas.evetools.toolsfolder_3.5.5/Tools/MinGW/bin/../lib/gcc/i686-w64-mingw32/8.1.0\libstdc++.a(eh_aux_runtime.o) (std::bad_array_new_length::~bad_array_new_length())
C:/Program Files/ETAS/ISOLAR-EVE3.5.0/plugins/com.etas.evetools.toolsfolder_3.5.5/Tools/MinGW/bin/../lib/gcc/i686-w64-mingw32/8.1.0\libstdc++.a(bad_cast.o)
                              C:/Program Files/ETAS/ISOLAR-EVE3.5.0/plugins/com.etas.evetools.toolsfolder_3.5.5/Tools/MinGW/bin/../lib/gcc/i686-w64-mingw32/8.1.0\libstdc++.a(eh_aux_runtime.o) (std::bad_cast::~bad_cast())
C:/Program Files/ETAS/ISOLAR-EVE3.5.0/plugins/com.etas.evetools.toolsfolder_3.5.5/Tools/MinGW/bin/../lib/gcc/i686-w64-mingw32/8.1.0\libstdc++.a(bad_typeid.o)
                              C:/Program Files/ETAS/ISOLAR-EVE3.5.0/plugins/com.etas.evetools.toolsfolder_3.5.5/Tools/MinGW/bin/../lib/gcc/i686-w64-mingw32/8.1.0\libstdc++.a(eh_aux_runtime.o) (std::bad_typeid::~bad_typeid())
C:/Program Files/ETAS/ISOLAR-EVE3.5.0/plugins/com.etas.evetools.toolsfolder_3.5.5/Tools/MinGW/bin/../lib/gcc/i686-w64-mingw32/8.1.0\libstdc++.a(cp-demangle.o)
                              C:/Program Files/ETAS/ISOLAR-EVE3.5.0/plugins/com.etas.evetools.toolsfolder_3.5.5/Tools/MinGW/bin/../lib/gcc/i686-w64-mingw32/8.1.0\libstdc++.a(vterminate.o) (__cxa_demangle)
C:/Program Files/ETAS/ISOLAR-EVE3.5.0/plugins/com.etas.evetools.toolsfolder_3.5.5/Tools/MinGW/bin/../lib/gcc/i686-w64-mingw32/8.1.0\libstdc++.a(del_op.o)
                              C:/Program Files/ETAS/ISOLAR-EVE3.5.0/plugins/com.etas.evetools.toolsfolder_3.5.5/Tools/MinGW/bin/../lib/gcc/i686-w64-mingw32/8.1.0\libstdc++.a(del_ops.o) (operator delete(void*))
C:/Program Files/ETAS/ISOLAR-EVE3.5.0/plugins/com.etas.evetools.toolsfolder_3.5.5/Tools/MinGW/bin/../lib/gcc/i686-w64-mingw32/8.1.0\libstdc++.a(eh_alloc.o)
                              C:/Program Files/ETAS/ISOLAR-EVE3.5.0/plugins/com.etas.evetools.toolsfolder_3.5.5/Tools/MinGW/bin/../lib/gcc/i686-w64-mingw32/8.1.0\libstdc++.a(eh_throw.o) (__cxa_free_exception)
C:/Program Files/ETAS/ISOLAR-EVE3.5.0/plugins/com.etas.evetools.toolsfolder_3.5.5/Tools/MinGW/bin/../lib/gcc/i686-w64-mingw32/8.1.0\libstdc++.a(eh_call.o)
                              C:/Program Files/ETAS/ISOLAR-EVE3.5.0/plugins/com.etas.evetools.toolsfolder_3.5.5/Tools/MinGW/bin/../lib/gcc/i686-w64-mingw32/8.1.0\libstdc++.a(eh_personality.o) (__cxa_call_terminate)
C:/Program Files/ETAS/ISOLAR-EVE3.5.0/plugins/com.etas.evetools.toolsfolder_3.5.5/Tools/MinGW/bin/../lib/gcc/i686-w64-mingw32/8.1.0\libstdc++.a(eh_exception.o)
                              C:/Program Files/ETAS/ISOLAR-EVE3.5.0/plugins/com.etas.evetools.toolsfolder_3.5.5/Tools/MinGW/bin/../lib/gcc/i686-w64-mingw32/8.1.0\libstdc++.a(bad_alloc.o) (std::exception::~exception())
C:/Program Files/ETAS/ISOLAR-EVE3.5.0/plugins/com.etas.evetools.toolsfolder_3.5.5/Tools/MinGW/bin/../lib/gcc/i686-w64-mingw32/8.1.0\libstdc++.a(eh_type.o)
                              C:/Program Files/ETAS/ISOLAR-EVE3.5.0/plugins/com.etas.evetools.toolsfolder_3.5.5/Tools/MinGW/bin/../lib/gcc/i686-w64-mingw32/8.1.0\libstdc++.a(vterminate.o) (__cxa_current_exception_type)
C:/Program Files/ETAS/ISOLAR-EVE3.5.0/plugins/com.etas.evetools.toolsfolder_3.5.5/Tools/MinGW/bin/../lib/gcc/i686-w64-mingw32/8.1.0\libstdc++.a(new_handler.o)
                              C:/Program Files/ETAS/ISOLAR-EVE3.5.0/plugins/com.etas.evetools.toolsfolder_3.5.5/Tools/MinGW/bin/../lib/gcc/i686-w64-mingw32/8.1.0\libstdc++.a(new_op.o) (std::get_new_handler())
C:/Program Files/ETAS/ISOLAR-EVE3.5.0/plugins/com.etas.evetools.toolsfolder_3.5.5/Tools/MinGW/bin/../lib/gcc/i686-w64-mingw32/8.1.0/../../../../i686-w64-mingw32/lib/../lib/libmingw32.a(lib32_libmingw32_a-gccmain.o)
                              C:/Program Files/ETAS/ISOLAR-EVE3.5.0/plugins/com.etas.evetools.toolsfolder_3.5.5/Tools/MinGW/bin/../lib/gcc/i686-w64-mingw32/8.1.0/../../../../i686-w64-mingw32/lib/../lib/crt2.o (__main)
C:/Program Files/ETAS/ISOLAR-EVE3.5.0/plugins/com.etas.evetools.toolsfolder_3.5.5/Tools/MinGW/bin/../lib/gcc/i686-w64-mingw32/8.1.0/../../../../i686-w64-mingw32/lib/../lib/libmingw32.a(lib32_libmingw32_a-natstart.o)
                              C:/Program Files/ETAS/ISOLAR-EVE3.5.0/plugins/com.etas.evetools.toolsfolder_3.5.5/Tools/MinGW/bin/../lib/gcc/i686-w64-mingw32/8.1.0/../../../../i686-w64-mingw32/lib/../lib/crt2.o (__native_startup_lock)
C:/Program Files/ETAS/ISOLAR-EVE3.5.0/plugins/com.etas.evetools.toolsfolder_3.5.5/Tools/MinGW/bin/../lib/gcc/i686-w64-mingw32/8.1.0/../../../../i686-w64-mingw32/lib/../lib/libmingw32.a(lib32_libmingw32_a-wildcard.o)
                              C:/Program Files/ETAS/ISOLAR-EVE3.5.0/plugins/com.etas.evetools.toolsfolder_3.5.5/Tools/MinGW/bin/../lib/gcc/i686-w64-mingw32/8.1.0/../../../../i686-w64-mingw32/lib/../lib/crt2.o (_dowildcard)
C:/Program Files/ETAS/ISOLAR-EVE3.5.0/plugins/com.etas.evetools.toolsfolder_3.5.5/Tools/MinGW/bin/../lib/gcc/i686-w64-mingw32/8.1.0/../../../../i686-w64-mingw32/lib/../lib/libmingw32.a(lib32_libmingw32_a-charmax.o)
                              C:/Program Files/ETAS/ISOLAR-EVE3.5.0/plugins/com.etas.evetools.toolsfolder_3.5.5/Tools/MinGW/bin/../lib/gcc/i686-w64-mingw32/8.1.0/../../../../i686-w64-mingw32/lib/../lib/crt2.o (mingw_initcharmax)
C:/Program Files/ETAS/ISOLAR-EVE3.5.0/plugins/com.etas.evetools.toolsfolder_3.5.5/Tools/MinGW/bin/../lib/gcc/i686-w64-mingw32/8.1.0/../../../../i686-w64-mingw32/lib/../lib/libmingw32.a(lib32_libmingw32_a-dllargv.o)
                              C:/Program Files/ETAS/ISOLAR-EVE3.5.0/plugins/com.etas.evetools.toolsfolder_3.5.5/Tools/MinGW/bin/../lib/gcc/i686-w64-mingw32/8.1.0/../../../../i686-w64-mingw32/lib/../lib/crt2.o (_setargv)
C:/Program Files/ETAS/ISOLAR-EVE3.5.0/plugins/com.etas.evetools.toolsfolder_3.5.5/Tools/MinGW/bin/../lib/gcc/i686-w64-mingw32/8.1.0/../../../../i686-w64-mingw32/lib/../lib/libmingw32.a(lib32_libmingw32_a-gs_support.o)
                              C:/Program Files/ETAS/ISOLAR-EVE3.5.0/plugins/com.etas.evetools.toolsfolder_3.5.5/Tools/MinGW/bin/../lib/gcc/i686-w64-mingw32/8.1.0/../../../../i686-w64-mingw32/lib/../lib/crt2.o (__security_init_cookie)
C:/Program Files/ETAS/ISOLAR-EVE3.5.0/plugins/com.etas.evetools.toolsfolder_3.5.5/Tools/MinGW/bin/../lib/gcc/i686-w64-mingw32/8.1.0/../../../../i686-w64-mingw32/lib/../lib/libmingw32.a(lib32_libmingw32_a-_newmode.o)
                              C:/Program Files/ETAS/ISOLAR-EVE3.5.0/plugins/com.etas.evetools.toolsfolder_3.5.5/Tools/MinGW/bin/../lib/gcc/i686-w64-mingw32/8.1.0/../../../../i686-w64-mingw32/lib/../lib/crt2.o (_newmode)
C:/Program Files/ETAS/ISOLAR-EVE3.5.0/plugins/com.etas.evetools.toolsfolder_3.5.5/Tools/MinGW/bin/../lib/gcc/i686-w64-mingw32/8.1.0/../../../../i686-w64-mingw32/lib/../lib/libmingw32.a(lib32_libmingw32_a-tlssup.o)
                              C:/Program Files/ETAS/ISOLAR-EVE3.5.0/plugins/com.etas.evetools.toolsfolder_3.5.5/Tools/MinGW/bin/../lib/gcc/i686-w64-mingw32/8.1.0/../../../../i686-w64-mingw32/lib/../lib/crt2.o (mingw_initltssuo_force)
C:/Program Files/ETAS/ISOLAR-EVE3.5.0/plugins/com.etas.evetools.toolsfolder_3.5.5/Tools/MinGW/bin/../lib/gcc/i686-w64-mingw32/8.1.0/../../../../i686-w64-mingw32/lib/../lib/libmingw32.a(lib32_libmingw32_a-cinitexe.o)
                              C:/Program Files/ETAS/ISOLAR-EVE3.5.0/plugins/com.etas.evetools.toolsfolder_3.5.5/Tools/MinGW/bin/../lib/gcc/i686-w64-mingw32/8.1.0/../../../../i686-w64-mingw32/lib/../lib/crt2.o (__xc_z)
C:/Program Files/ETAS/ISOLAR-EVE3.5.0/plugins/com.etas.evetools.toolsfolder_3.5.5/Tools/MinGW/bin/../lib/gcc/i686-w64-mingw32/8.1.0/../../../../i686-w64-mingw32/lib/../lib/libmingw32.a(lib32_libmingw32_a-merr.o)
                              C:/Program Files/ETAS/ISOLAR-EVE3.5.0/plugins/com.etas.evetools.toolsfolder_3.5.5/Tools/MinGW/bin/../lib/gcc/i686-w64-mingw32/8.1.0/../../../../i686-w64-mingw32/lib/../lib/crt2.o (__mingw_setusermatherr)
C:/Program Files/ETAS/ISOLAR-EVE3.5.0/plugins/com.etas.evetools.toolsfolder_3.5.5/Tools/MinGW/bin/../lib/gcc/i686-w64-mingw32/8.1.0/../../../../i686-w64-mingw32/lib/../lib/libmingw32.a(lib32_libmingw32_a-CRT_fp10.o)
                              C:/Program Files/ETAS/ISOLAR-EVE3.5.0/plugins/com.etas.evetools.toolsfolder_3.5.5/Tools/MinGW/bin/../lib/gcc/i686-w64-mingw32/8.1.0/../../../../i686-w64-mingw32/lib/../lib/crt2.o (_fpreset)
C:/Program Files/ETAS/ISOLAR-EVE3.5.0/plugins/com.etas.evetools.toolsfolder_3.5.5/Tools/MinGW/bin/../lib/gcc/i686-w64-mingw32/8.1.0/../../../../i686-w64-mingw32/lib/../lib/libmingw32.a(lib32_libmingw32_a-mingw_helpers.o)
                              C:/Program Files/ETAS/ISOLAR-EVE3.5.0/plugins/com.etas.evetools.toolsfolder_3.5.5/Tools/MinGW/bin/../lib/gcc/i686-w64-mingw32/8.1.0/../../../../i686-w64-mingw32/lib/../lib/crt2.o (mingw_app_type)
C:/Program Files/ETAS/ISOLAR-EVE3.5.0/plugins/com.etas.evetools.toolsfolder_3.5.5/Tools/MinGW/bin/../lib/gcc/i686-w64-mingw32/8.1.0/../../../../i686-w64-mingw32/lib/../lib/libmingw32.a(lib32_libmingw32_a-pseudo-reloc.o)
                              C:/Program Files/ETAS/ISOLAR-EVE3.5.0/plugins/com.etas.evetools.toolsfolder_3.5.5/Tools/MinGW/bin/../lib/gcc/i686-w64-mingw32/8.1.0/../../../../i686-w64-mingw32/lib/../lib/crt2.o (_pei386_runtime_relocator)
C:/Program Files/ETAS/ISOLAR-EVE3.5.0/plugins/com.etas.evetools.toolsfolder_3.5.5/Tools/MinGW/bin/../lib/gcc/i686-w64-mingw32/8.1.0/../../../../i686-w64-mingw32/lib/../lib/libmingw32.a(lib32_libmingw32_a-xtxtmode.o)
                              C:/Program Files/ETAS/ISOLAR-EVE3.5.0/plugins/com.etas.evetools.toolsfolder_3.5.5/Tools/MinGW/bin/../lib/gcc/i686-w64-mingw32/8.1.0/../../../../i686-w64-mingw32/lib/../lib/crt2.o (_fmode)
C:/Program Files/ETAS/ISOLAR-EVE3.5.0/plugins/com.etas.evetools.toolsfolder_3.5.5/Tools/MinGW/bin/../lib/gcc/i686-w64-mingw32/8.1.0/../../../../i686-w64-mingw32/lib/../lib/libmingw32.a(lib32_libmingw32_a-crt_handler.o)
                              C:/Program Files/ETAS/ISOLAR-EVE3.5.0/plugins/com.etas.evetools.toolsfolder_3.5.5/Tools/MinGW/bin/../lib/gcc/i686-w64-mingw32/8.1.0/../../../../i686-w64-mingw32/lib/../lib/crt2.o (_gnu_exception_handler@4)
C:/Program Files/ETAS/ISOLAR-EVE3.5.0/plugins/com.etas.evetools.toolsfolder_3.5.5/Tools/MinGW/bin/../lib/gcc/i686-w64-mingw32/8.1.0/../../../../i686-w64-mingw32/lib/../lib/libmingw32.a(lib32_libmingw32_a-tlsthrd.o)
                              C:/Program Files/ETAS/ISOLAR-EVE3.5.0/plugins/com.etas.evetools.toolsfolder_3.5.5/Tools/MinGW/bin/../lib/gcc/i686-w64-mingw32/8.1.0/../../../../i686-w64-mingw32/lib/../lib/libmingw32.a(lib32_libmingw32_a-tlssup.o) (__mingw_TLScallback)
C:/Program Files/ETAS/ISOLAR-EVE3.5.0/plugins/com.etas.evetools.toolsfolder_3.5.5/Tools/MinGW/bin/../lib/gcc/i686-w64-mingw32/8.1.0/../../../../i686-w64-mingw32/lib/../lib/libmingw32.a(lib32_libmingw32_a-tlsmcrt.o)
                              C:/Program Files/ETAS/ISOLAR-EVE3.5.0/plugins/com.etas.evetools.toolsfolder_3.5.5/Tools/MinGW/bin/../lib/gcc/i686-w64-mingw32/8.1.0\libstdc++.a(eh_alloc.o) (_CRT_MT)
C:/Program Files/ETAS/ISOLAR-EVE3.5.0/plugins/com.etas.evetools.toolsfolder_3.5.5/Tools/MinGW/bin/../lib/gcc/i686-w64-mingw32/8.1.0/../../../../i686-w64-mingw32/lib/../lib/libmingw32.a(lib32_libmingw32_a-pseudo-reloc-list.o)
                              C:/Program Files/ETAS/ISOLAR-EVE3.5.0/plugins/com.etas.evetools.toolsfolder_3.5.5/Tools/MinGW/bin/../lib/gcc/i686-w64-mingw32/8.1.0/../../../../i686-w64-mingw32/lib/../lib/libmingw32.a(lib32_libmingw32_a-pseudo-reloc.o) (__RUNTIME_PSEUDO_RELOC_LIST__)
C:/Program Files/ETAS/ISOLAR-EVE3.5.0/plugins/com.etas.evetools.toolsfolder_3.5.5/Tools/MinGW/bin/../lib/gcc/i686-w64-mingw32/8.1.0/../../../../i686-w64-mingw32/lib/../lib/libmingw32.a(lib32_libmingw32_a-pesect.o)
                              C:/Program Files/ETAS/ISOLAR-EVE3.5.0/plugins/com.etas.evetools.toolsfolder_3.5.5/Tools/MinGW/bin/../lib/gcc/i686-w64-mingw32/8.1.0/../../../../i686-w64-mingw32/lib/../lib/libmingw32.a(lib32_libmingw32_a-pseudo-reloc.o) (__mingw_GetSectionForAddress)
C:/Program Files/ETAS/ISOLAR-EVE3.5.0/plugins/com.etas.evetools.toolsfolder_3.5.5/Tools/MinGW/bin/../lib/gcc/i686-w64-mingw32/8.1.0/libgcc.a(_chkstk_ms.o)
                              C:/Program Files/ETAS/ISOLAR-EVE3.5.0/plugins/com.etas.evetools.toolsfolder_3.5.5/Tools/MinGW/bin/../lib/gcc/i686-w64-mingw32/8.1.0\libstdc++.a(cp-demangle.o) (__chkstk_ms)
C:/Program Files/ETAS/ISOLAR-EVE3.5.0/plugins/com.etas.evetools.toolsfolder_3.5.5/Tools/MinGW/bin/../lib/gcc/i686-w64-mingw32/8.1.0/libgcc.a(_ctors.o)
                              C:/Program Files/ETAS/ISOLAR-EVE3.5.0/plugins/com.etas.evetools.toolsfolder_3.5.5/Tools/MinGW/bin/../lib/gcc/i686-w64-mingw32/8.1.0/../../../../i686-w64-mingw32/lib/../lib/libmingw32.a(lib32_libmingw32_a-gccmain.o) (__DTOR_LIST__)
C:/Program Files/ETAS/ISOLAR-EVE3.5.0/plugins/com.etas.evetools.toolsfolder_3.5.5/Tools/MinGW/bin/../lib/gcc/i686-w64-mingw32/8.1.0/libgcc.a(_divdi3.o)
                              RTAOS.lib(vrtaCore.o) (__divdi3)
C:/Program Files/ETAS/ISOLAR-EVE3.5.0/plugins/com.etas.evetools.toolsfolder_3.5.5/Tools/MinGW/bin/../lib/gcc/i686-w64-mingw32/8.1.0/libgcc.a(gthr-win32.o)
                              C:/Program Files/ETAS/ISOLAR-EVE3.5.0/plugins/com.etas.evetools.toolsfolder_3.5.5/Tools/MinGW/bin/../lib/gcc/i686-w64-mingw32/8.1.0\libstdc++.a(eh_alloc.o) (__gthr_win32_mutex_init_function)
C:/Program Files/ETAS/ISOLAR-EVE3.5.0/plugins/com.etas.evetools.toolsfolder_3.5.5/Tools/MinGW/bin/../lib/gcc/i686-w64-mingw32/8.1.0/libgcc_eh.a(unwind-dw2.o)
                              C:/Program Files/ETAS/ISOLAR-EVE3.5.0/plugins/com.etas.evetools.toolsfolder_3.5.5/Tools/MinGW/bin/../lib/gcc/i686-w64-mingw32/8.1.0\libstdc++.a(eh_personality.o) (_Unwind_SetGR)
C:/Program Files/ETAS/ISOLAR-EVE3.5.0/plugins/com.etas.evetools.toolsfolder_3.5.5/Tools/MinGW/bin/../lib/gcc/i686-w64-mingw32/8.1.0/libgcc_eh.a(unwind-dw2-fde.o)
                              C:/Program Files/ETAS/ISOLAR-EVE3.5.0/plugins/com.etas.evetools.toolsfolder_3.5.5/Tools/MinGW/bin/../lib/gcc/i686-w64-mingw32/8.1.0/libgcc_eh.a(unwind-dw2.o) (_Unwind_Find_FDE)
C:/Program Files/ETAS/ISOLAR-EVE3.5.0/plugins/com.etas.evetools.toolsfolder_3.5.5/Tools/MinGW/bin/../lib/gcc/i686-w64-mingw32/8.1.0/libgcc_eh.a(emutls.o)
                              C:/Program Files/ETAS/ISOLAR-EVE3.5.0/plugins/com.etas.evetools.toolsfolder_3.5.5/Tools/MinGW/bin/../lib/gcc/i686-w64-mingw32/8.1.0\libstdc++.a(eh_globals.o) (__emutls_get_address)
C:/Program Files/ETAS/ISOLAR-EVE3.5.0/plugins/com.etas.evetools.toolsfolder_3.5.5/Tools/MinGW/bin/../lib/gcc/i686-w64-mingw32/8.1.0/../../../../i686-w64-mingw32/lib/../lib/libmingwex.a(lib32_libmingwex_a-mingw_matherr.o)
                              C:/Program Files/ETAS/ISOLAR-EVE3.5.0/plugins/com.etas.evetools.toolsfolder_3.5.5/Tools/MinGW/bin/../lib/gcc/i686-w64-mingw32/8.1.0/../../../../i686-w64-mingw32/lib/../lib/crt2.o (_MINGW_INSTALL_DEBUG_MATHERR)
C:/Program Files/ETAS/ISOLAR-EVE3.5.0/plugins/com.etas.evetools.toolsfolder_3.5.5/Tools/MinGW/bin/../lib/gcc/i686-w64-mingw32/8.1.0/../../../../i686-w64-mingw32/lib/../lib/libmsvcrt.a(dwbes01258.o)
                              RTAOS.lib(vrtaLoggerDevice.o) (vsprintf)
C:/Program Files/ETAS/ISOLAR-EVE3.5.0/plugins/com.etas.evetools.toolsfolder_3.5.5/Tools/MinGW/bin/../lib/gcc/i686-w64-mingw32/8.1.0/../../../../i686-w64-mingw32/lib/../lib/libmsvcrt.a(dwbes01253.o)
                              C:/Program Files/ETAS/ISOLAR-EVE3.5.0/plugins/com.etas.evetools.toolsfolder_3.5.5/Tools/MinGW/bin/../lib/gcc/i686-w64-mingw32/8.1.0/../../../../i686-w64-mingw32/lib/../lib/libmingw32.a(lib32_libmingw32_a-pseudo-reloc.o) (vfprintf)
C:/Program Files/ETAS/ISOLAR-EVE3.5.0/plugins/com.etas.evetools.toolsfolder_3.5.5/Tools/MinGW/bin/../lib/gcc/i686-w64-mingw32/8.1.0/../../../../i686-w64-mingw32/lib/../lib/libmsvcrt.a(dwbes01221.o)
                              RTAOS.lib(vrtaLoggerDevice.o) (strncpy)
C:/Program Files/ETAS/ISOLAR-EVE3.5.0/plugins/com.etas.evetools.toolsfolder_3.5.5/Tools/MinGW/bin/../lib/gcc/i686-w64-mingw32/8.1.0/../../../../i686-w64-mingw32/lib/../lib/libmsvcrt.a(dwbes01220.o)
                              C:/Program Files/ETAS/ISOLAR-EVE3.5.0/plugins/com.etas.evetools.toolsfolder_3.5.5/Tools/MinGW/bin/../lib/gcc/i686-w64-mingw32/8.1.0\libstdc++.a(cp-demangle.o) (strncmp)
C:/Program Files/ETAS/ISOLAR-EVE3.5.0/plugins/com.etas.evetools.toolsfolder_3.5.5/Tools/MinGW/bin/../lib/gcc/i686-w64-mingw32/8.1.0/../../../../i686-w64-mingw32/lib/../lib/libmsvcrt.a(dwbes01217.o)
                              C:/Program Files/ETAS/ISOLAR-EVE3.5.0/plugins/com.etas.evetools.toolsfolder_3.5.5/Tools/MinGW/bin/../lib/gcc/i686-w64-mingw32/8.1.0/../../../../i686-w64-mingw32/lib/../lib/crt2.o (strlen)
C:/Program Files/ETAS/ISOLAR-EVE3.5.0/plugins/com.etas.evetools.toolsfolder_3.5.5/Tools/MinGW/bin/../lib/gcc/i686-w64-mingw32/8.1.0/../../../../i686-w64-mingw32/lib/../lib/libmsvcrt.a(dwbes01212.o)
                              RTAOS.lib(vrtaLoggerDevice.o) (strcpy)
C:/Program Files/ETAS/ISOLAR-EVE3.5.0/plugins/com.etas.evetools.toolsfolder_3.5.5/Tools/MinGW/bin/../lib/gcc/i686-w64-mingw32/8.1.0/../../../../i686-w64-mingw32/lib/../lib/libmsvcrt.a(dwbes01210.o)
                              C:/Program Files/ETAS/ISOLAR-EVE3.5.0/plugins/com.etas.evetools.toolsfolder_3.5.5/Tools/MinGW/bin/../lib/gcc/i686-w64-mingw32/8.1.0\libstdc++.a(tinfo.o) (strcmp)
C:/Program Files/ETAS/ISOLAR-EVE3.5.0/plugins/com.etas.evetools.toolsfolder_3.5.5/Tools/MinGW/bin/../lib/gcc/i686-w64-mingw32/8.1.0/../../../../i686-w64-mingw32/lib/../lib/libmsvcrt.a(dwbes01207.o)
                              RTAOS.lib(virtualDevice.o) (strcat)
C:/Program Files/ETAS/ISOLAR-EVE3.5.0/plugins/com.etas.evetools.toolsfolder_3.5.5/Tools/MinGW/bin/../lib/gcc/i686-w64-mingw32/8.1.0/../../../../i686-w64-mingw32/lib/../lib/libmsvcrt.a(dwbes01202.o)
                              RTAOS.lib(vrtaOSMonitorDevice.o) (sprintf)
C:/Program Files/ETAS/ISOLAR-EVE3.5.0/plugins/com.etas.evetools.toolsfolder_3.5.5/Tools/MinGW/bin/../lib/gcc/i686-w64-mingw32/8.1.0/../../../../i686-w64-mingw32/lib/../lib/libmsvcrt.a(dwbes01199.o)
                              C:/Program Files/ETAS/ISOLAR-EVE3.5.0/plugins/com.etas.evetools.toolsfolder_3.5.5/Tools/MinGW/bin/../lib/gcc/i686-w64-mingw32/8.1.0/../../../../i686-w64-mingw32/lib/../lib/libmingw32.a(lib32_libmingw32_a-crt_handler.o) (signal)
C:/Program Files/ETAS/ISOLAR-EVE3.5.0/plugins/com.etas.evetools.toolsfolder_3.5.5/Tools/MinGW/bin/../lib/gcc/i686-w64-mingw32/8.1.0/../../../../i686-w64-mingw32/lib/../lib/libmsvcrt.a(dwbes01190.o)
                              C:/Program Files/ETAS/ISOLAR-EVE3.5.0/plugins/com.etas.evetools.toolsfolder_3.5.5/Tools/MinGW/bin/../lib/gcc/i686-w64-mingw32/8.1.0\libstdc++.a(cp-demangle.o) (realloc)
C:/Program Files/ETAS/ISOLAR-EVE3.5.0/plugins/com.etas.evetools.toolsfolder_3.5.5/Tools/MinGW/bin/../lib/gcc/i686-w64-mingw32/8.1.0/../../../../i686-w64-mingw32/lib/../lib/libmsvcrt.a(dwbes01174.o)
                              C:/Program Files/ETAS/ISOLAR-EVE3.5.0/plugins/com.etas.evetools.toolsfolder_3.5.5/Tools/MinGW/bin/../lib/gcc/i686-w64-mingw32/8.1.0/libgcc_eh.a(emutls.o) (memset)
C:/Program Files/ETAS/ISOLAR-EVE3.5.0/plugins/com.etas.evetools.toolsfolder_3.5.5/Tools/MinGW/bin/../lib/gcc/i686-w64-mingw32/8.1.0/../../../../i686-w64-mingw32/lib/../lib/libmsvcrt.a(dwbes01172.o)
                              C:/Program Files/ETAS/ISOLAR-EVE3.5.0/plugins/com.etas.evetools.toolsfolder_3.5.5/Tools/MinGW/bin/../lib/gcc/i686-w64-mingw32/8.1.0/../../../../i686-w64-mingw32/lib/../lib/crt2.o (memcpy)
C:/Program Files/ETAS/ISOLAR-EVE3.5.0/plugins/com.etas.evetools.toolsfolder_3.5.5/Tools/MinGW/bin/../lib/gcc/i686-w64-mingw32/8.1.0/../../../../i686-w64-mingw32/lib/../lib/libmsvcrt.a(dwbes01163.o)
                              C:/Program Files/ETAS/ISOLAR-EVE3.5.0/plugins/com.etas.evetools.toolsfolder_3.5.5/Tools/MinGW/bin/../lib/gcc/i686-w64-mingw32/8.1.0/../../../../i686-w64-mingw32/lib/../lib/crt2.o (malloc)
C:/Program Files/ETAS/ISOLAR-EVE3.5.0/plugins/com.etas.evetools.toolsfolder_3.5.5/Tools/MinGW/bin/../lib/gcc/i686-w64-mingw32/8.1.0/../../../../i686-w64-mingw32/lib/../lib/libmsvcrt.a(dwbes01118.o)
                              C:/Program Files/ETAS/ISOLAR-EVE3.5.0/plugins/com.etas.evetools.toolsfolder_3.5.5/Tools/MinGW/bin/../lib/gcc/i686-w64-mingw32/8.1.0\libstdc++.a(vterminate.o) (fwrite)
C:/Program Files/ETAS/ISOLAR-EVE3.5.0/plugins/com.etas.evetools.toolsfolder_3.5.5/Tools/MinGW/bin/../lib/gcc/i686-w64-mingw32/8.1.0/../../../../i686-w64-mingw32/lib/../lib/libmsvcrt.a(dwbes01104.o)
                              C:/Program Files/ETAS/ISOLAR-EVE3.5.0/plugins/com.etas.evetools.toolsfolder_3.5.5/Tools/MinGW/bin/../lib/gcc/i686-w64-mingw32/8.1.0\libstdc++.a(vterminate.o) (free)
C:/Program Files/ETAS/ISOLAR-EVE3.5.0/plugins/com.etas.evetools.toolsfolder_3.5.5/Tools/MinGW/bin/../lib/gcc/i686-w64-mingw32/8.1.0/../../../../i686-w64-mingw32/lib/../lib/libmsvcrt.a(dwbes01100.o)
                              RTAOS.lib(vrtaLoggerDevice.o) (fputs)
C:/Program Files/ETAS/ISOLAR-EVE3.5.0/plugins/com.etas.evetools.toolsfolder_3.5.5/Tools/MinGW/bin/../lib/gcc/i686-w64-mingw32/8.1.0/../../../../i686-w64-mingw32/lib/../lib/libmsvcrt.a(dwbes01099.o)
                              C:/Program Files/ETAS/ISOLAR-EVE3.5.0/plugins/com.etas.evetools.toolsfolder_3.5.5/Tools/MinGW/bin/../lib/gcc/i686-w64-mingw32/8.1.0\libstdc++.a(vterminate.o) (fputc)
C:/Program Files/ETAS/ISOLAR-EVE3.5.0/plugins/com.etas.evetools.toolsfolder_3.5.5/Tools/MinGW/bin/../lib/gcc/i686-w64-mingw32/8.1.0/../../../../i686-w64-mingw32/lib/../lib/libmsvcrt.a(dwbes01097.o)
                              C:/Program Files/ETAS/ISOLAR-EVE3.5.0/plugins/com.etas.evetools.toolsfolder_3.5.5/Tools/MinGW/bin/../lib/gcc/i686-w64-mingw32/8.1.0/../../../../i686-w64-mingw32/lib/../lib/libmingw32.a(lib32_libmingw32_a-merr.o) (fprintf)
C:/Program Files/ETAS/ISOLAR-EVE3.5.0/plugins/com.etas.evetools.toolsfolder_3.5.5/Tools/MinGW/bin/../lib/gcc/i686-w64-mingw32/8.1.0/../../../../i686-w64-mingw32/lib/../lib/libmsvcrt.a(dwbes01095.o)
                              RTAOS.lib(vrtaLoggerDevice.o) (fopen)
C:/Program Files/ETAS/ISOLAR-EVE3.5.0/plugins/com.etas.evetools.toolsfolder_3.5.5/Tools/MinGW/bin/../lib/gcc/i686-w64-mingw32/8.1.0/../../../../i686-w64-mingw32/lib/../lib/libmsvcrt.a(dwbes01087.o)
                              RTAOS.lib(vrtaLoggerDevice.o) (fflush)
C:/Program Files/ETAS/ISOLAR-EVE3.5.0/plugins/com.etas.evetools.toolsfolder_3.5.5/Tools/MinGW/bin/../lib/gcc/i686-w64-mingw32/8.1.0/../../../../i686-w64-mingw32/lib/../lib/libmsvcrt.a(dwbes01084.o)
                              RTAOS.lib(vrtaLoggerDevice.o) (fclose)
C:/Program Files/ETAS/ISOLAR-EVE3.5.0/plugins/com.etas.evetools.toolsfolder_3.5.5/Tools/MinGW/bin/../lib/gcc/i686-w64-mingw32/8.1.0/../../../../i686-w64-mingw32/lib/../lib/libmsvcrt.a(dwbes01081.o)
                              C:/Program Files/ETAS/ISOLAR-EVE3.5.0/plugins/com.etas.evetools.toolsfolder_3.5.5/Tools/MinGW/bin/../lib/gcc/i686-w64-mingw32/8.1.0/../../../../i686-w64-mingw32/lib/../lib/crt2.o (exit)
C:/Program Files/ETAS/ISOLAR-EVE3.5.0/plugins/com.etas.evetools.toolsfolder_3.5.5/Tools/MinGW/bin/../lib/gcc/i686-w64-mingw32/8.1.0/../../../../i686-w64-mingw32/lib/../lib/libmsvcrt.a(dwbes01076.o)
                              C:/Program Files/ETAS/ISOLAR-EVE3.5.0/plugins/com.etas.evetools.toolsfolder_3.5.5/Tools/MinGW/bin/../lib/gcc/i686-w64-mingw32/8.1.0/../../../../i686-w64-mingw32/lib/../lib/libmingw32.a(lib32_libmingw32_a-tlsthrd.o) (calloc)
C:/Program Files/ETAS/ISOLAR-EVE3.5.0/plugins/com.etas.evetools.toolsfolder_3.5.5/Tools/MinGW/bin/../lib/gcc/i686-w64-mingw32/8.1.0/../../../../i686-w64-mingw32/lib/../lib/libmsvcrt.a(dwbes01066.o)
                              RTAOS.lib(vrtaSystemClockDevice.o) (atoi)
C:/Program Files/ETAS/ISOLAR-EVE3.5.0/plugins/com.etas.evetools.toolsfolder_3.5.5/Tools/MinGW/bin/../lib/gcc/i686-w64-mingw32/8.1.0/../../../../i686-w64-mingw32/lib/../lib/libmsvcrt.a(dwbes01057.o)
                              C:/Program Files/ETAS/ISOLAR-EVE3.5.0/plugins/com.etas.evetools.toolsfolder_3.5.5/Tools/MinGW/bin/../lib/gcc/i686-w64-mingw32/8.1.0\libstdc++.a(eh_personality.o) (abort)
C:/Program Files/ETAS/ISOLAR-EVE3.5.0/plugins/com.etas.evetools.toolsfolder_3.5.5/Tools/MinGW/bin/../lib/gcc/i686-w64-mingw32/8.1.0/../../../../i686-w64-mingw32/lib/../lib/libmsvcrt.a(dwbes01010.o)
                              C:/Program Files/ETAS/ISOLAR-EVE3.5.0/plugins/com.etas.evetools.toolsfolder_3.5.5/Tools/MinGW/bin/../lib/gcc/i686-w64-mingw32/8.1.0\libstdc++.a(pure.o) (write)
C:/Program Files/ETAS/ISOLAR-EVE3.5.0/plugins/com.etas.evetools.toolsfolder_3.5.5/Tools/MinGW/bin/../lib/gcc/i686-w64-mingw32/8.1.0/../../../../i686-w64-mingw32/lib/../lib/libmsvcrt.a(dwbes00629.o)
                              C:/Program Files/ETAS/ISOLAR-EVE3.5.0/plugins/com.etas.evetools.toolsfolder_3.5.5/Tools/MinGW/bin/../lib/gcc/i686-w64-mingw32/8.1.0/../../../../i686-w64-mingw32/lib/../lib/crt2.o (_onexit)
C:/Program Files/ETAS/ISOLAR-EVE3.5.0/plugins/com.etas.evetools.toolsfolder_3.5.5/Tools/MinGW/bin/../lib/gcc/i686-w64-mingw32/8.1.0/../../../../i686-w64-mingw32/lib/../lib/libmsvcrt.a(dwbes00351.o)
                              C:/Program Files/ETAS/ISOLAR-EVE3.5.0/plugins/com.etas.evetools.toolsfolder_3.5.5/Tools/MinGW/bin/../lib/gcc/i686-w64-mingw32/8.1.0/../../../../i686-w64-mingw32/lib/../lib/crt2.o (_initterm)
C:/Program Files/ETAS/ISOLAR-EVE3.5.0/plugins/com.etas.evetools.toolsfolder_3.5.5/Tools/MinGW/bin/../lib/gcc/i686-w64-mingw32/8.1.0/../../../../i686-w64-mingw32/lib/../lib/libmsvcrt.a(dwbes00161.o)
                              C:/Program Files/ETAS/ISOLAR-EVE3.5.0/plugins/com.etas.evetools.toolsfolder_3.5.5/Tools/MinGW/bin/../lib/gcc/i686-w64-mingw32/8.1.0/../../../../i686-w64-mingw32/lib/../lib/crt2.o (_cexit)
C:/Program Files/ETAS/ISOLAR-EVE3.5.0/plugins/com.etas.evetools.toolsfolder_3.5.5/Tools/MinGW/bin/../lib/gcc/i686-w64-mingw32/8.1.0/../../../../i686-w64-mingw32/lib/../lib/libmsvcrt.a(dwbes00144.o)
                              C:/Program Files/ETAS/ISOLAR-EVE3.5.0/plugins/com.etas.evetools.toolsfolder_3.5.5/Tools/MinGW/bin/../lib/gcc/i686-w64-mingw32/8.1.0/../../../../i686-w64-mingw32/lib/../lib/crt2.o (_amsg_exit)
C:/Program Files/ETAS/ISOLAR-EVE3.5.0/plugins/com.etas.evetools.toolsfolder_3.5.5/Tools/MinGW/bin/../lib/gcc/i686-w64-mingw32/8.1.0/../../../../i686-w64-mingw32/lib/../lib/libmsvcrt.a(dwbes00107.o)
                              C:/Program Files/ETAS/ISOLAR-EVE3.5.0/plugins/com.etas.evetools.toolsfolder_3.5.5/Tools/MinGW/bin/../lib/gcc/i686-w64-mingw32/8.1.0/../../../../i686-w64-mingw32/lib/../lib/libmingw32.a(lib32_libmingw32_a-merr.o) (__setusermatherr)
C:/Program Files/ETAS/ISOLAR-EVE3.5.0/plugins/com.etas.evetools.toolsfolder_3.5.5/Tools/MinGW/bin/../lib/gcc/i686-w64-mingw32/8.1.0/../../../../i686-w64-mingw32/lib/../lib/libmsvcrt.a(dwbes00104.o)
                              C:/Program Files/ETAS/ISOLAR-EVE3.5.0/plugins/com.etas.evetools.toolsfolder_3.5.5/Tools/MinGW/bin/../lib/gcc/i686-w64-mingw32/8.1.0/../../../../i686-w64-mingw32/lib/../lib/crt2.o (__set_app_type)
C:/Program Files/ETAS/ISOLAR-EVE3.5.0/plugins/com.etas.evetools.toolsfolder_3.5.5/Tools/MinGW/bin/../lib/gcc/i686-w64-mingw32/8.1.0/../../../../i686-w64-mingw32/lib/../lib/libmsvcrt.a(dwbes00083.o)
                              C:/Program Files/ETAS/ISOLAR-EVE3.5.0/plugins/com.etas.evetools.toolsfolder_3.5.5/Tools/MinGW/bin/../lib/gcc/i686-w64-mingw32/8.1.0/../../../../i686-w64-mingw32/lib/../lib/crt2.o (__p__fmode)
C:/Program Files/ETAS/ISOLAR-EVE3.5.0/plugins/com.etas.evetools.toolsfolder_3.5.5/Tools/MinGW/bin/../lib/gcc/i686-w64-mingw32/8.1.0/../../../../i686-w64-mingw32/lib/../lib/libmsvcrt.a(dwbes00076.o)
                              C:/Program Files/ETAS/ISOLAR-EVE3.5.0/plugins/com.etas.evetools.toolsfolder_3.5.5/Tools/MinGW/bin/../lib/gcc/i686-w64-mingw32/8.1.0/../../../../i686-w64-mingw32/lib/../lib/crt2.o (__p__acmdln)
C:/Program Files/ETAS/ISOLAR-EVE3.5.0/plugins/com.etas.evetools.toolsfolder_3.5.5/Tools/MinGW/bin/../lib/gcc/i686-w64-mingw32/8.1.0/../../../../i686-w64-mingw32/lib/../lib/libmsvcrt.a(dwbes00068.o)
                              C:/Program Files/ETAS/ISOLAR-EVE3.5.0/plugins/com.etas.evetools.toolsfolder_3.5.5/Tools/MinGW/bin/../lib/gcc/i686-w64-mingw32/8.1.0/../../../../i686-w64-mingw32/lib/../lib/libmingw32.a(lib32_libmingw32_a-charmax.o) (_imp____lconv_init)
C:/Program Files/ETAS/ISOLAR-EVE3.5.0/plugins/com.etas.evetools.toolsfolder_3.5.5/Tools/MinGW/bin/../lib/gcc/i686-w64-mingw32/8.1.0/../../../../i686-w64-mingw32/lib/../lib/libmsvcrt.a(dwbes00059.o)
                              C:/Program Files/ETAS/ISOLAR-EVE3.5.0/plugins/com.etas.evetools.toolsfolder_3.5.5/Tools/MinGW/bin/../lib/gcc/i686-w64-mingw32/8.1.0/../../../../i686-w64-mingw32/lib/../lib/crt2.o (_imp____initenv)
C:/Program Files/ETAS/ISOLAR-EVE3.5.0/plugins/com.etas.evetools.toolsfolder_3.5.5/Tools/MinGW/bin/../lib/gcc/i686-w64-mingw32/8.1.0/../../../../i686-w64-mingw32/lib/../lib/libmsvcrt.a(dwbes00058.o)
                              C:/Program Files/ETAS/ISOLAR-EVE3.5.0/plugins/com.etas.evetools.toolsfolder_3.5.5/Tools/MinGW/bin/../lib/gcc/i686-w64-mingw32/8.1.0/../../../../i686-w64-mingw32/lib/../lib/crt2.o (__getmainargs)
C:/Program Files/ETAS/ISOLAR-EVE3.5.0/plugins/com.etas.evetools.toolsfolder_3.5.5/Tools/MinGW/bin/../lib/gcc/i686-w64-mingw32/8.1.0/../../../../i686-w64-mingw32/lib/../lib/libmsvcrt.a(lib32_libmsvcrt_os_a-acrt_iob_func.o)
                              C:/Program Files/ETAS/ISOLAR-EVE3.5.0/plugins/com.etas.evetools.toolsfolder_3.5.5/Tools/MinGW/bin/../lib/gcc/i686-w64-mingw32/8.1.0/../../../../i686-w64-mingw32/lib/../lib/libmingw32.a(lib32_libmingw32_a-merr.o) (__acrt_iob_func)
C:/Program Files/ETAS/ISOLAR-EVE3.5.0/plugins/com.etas.evetools.toolsfolder_3.5.5/Tools/MinGW/bin/../lib/gcc/i686-w64-mingw32/8.1.0/../../../../i686-w64-mingw32/lib/../lib/libmsvcrt.a(lib32_libmsvcrt_os_a-invalid_parameter_handler.o)
                              C:/Program Files/ETAS/ISOLAR-EVE3.5.0/plugins/com.etas.evetools.toolsfolder_3.5.5/Tools/MinGW/bin/../lib/gcc/i686-w64-mingw32/8.1.0/../../../../i686-w64-mingw32/lib/../lib/crt2.o (_set_invalid_parameter_handler)
C:/Program Files/ETAS/ISOLAR-EVE3.5.0/plugins/com.etas.evetools.toolsfolder_3.5.5/Tools/MinGW/bin/../lib/gcc/i686-w64-mingw32/8.1.0/../../../../i686-w64-mingw32/lib/../lib/libmsvcrt.a(dwbeh.o)
                              C:/Program Files/ETAS/ISOLAR-EVE3.5.0/plugins/com.etas.evetools.toolsfolder_3.5.5/Tools/MinGW/bin/../lib/gcc/i686-w64-mingw32/8.1.0/../../../../i686-w64-mingw32/lib/../lib/libmsvcrt.a(dwbes01258.o) (_head_lib32_libmsvcrt_os_a)
C:/Program Files/ETAS/ISOLAR-EVE3.5.0/plugins/com.etas.evetools.toolsfolder_3.5.5/Tools/MinGW/bin/../lib/gcc/i686-w64-mingw32/8.1.0/../../../../i686-w64-mingw32/lib/../lib/libmsvcrt.a(dwbes00355.o)
                              C:/Program Files/ETAS/ISOLAR-EVE3.5.0/plugins/com.etas.evetools.toolsfolder_3.5.5/Tools/MinGW/bin/../lib/gcc/i686-w64-mingw32/8.1.0/../../../../i686-w64-mingw32/lib/../lib/libmsvcrt.a(lib32_libmsvcrt_os_a-acrt_iob_func.o) (_imp___iob)
C:/Program Files/ETAS/ISOLAR-EVE3.5.0/plugins/com.etas.evetools.toolsfolder_3.5.5/Tools/MinGW/bin/../lib/gcc/i686-w64-mingw32/8.1.0/../../../../i686-w64-mingw32/lib/../lib/libmsvcrt.a(dwbet.o)
                              C:/Program Files/ETAS/ISOLAR-EVE3.5.0/plugins/com.etas.evetools.toolsfolder_3.5.5/Tools/MinGW/bin/../lib/gcc/i686-w64-mingw32/8.1.0/../../../../i686-w64-mingw32/lib/../lib/libmsvcrt.a(dwbeh.o) (_lib32_libmsvcrt_os_a_iname)
C:/Program Files/ETAS/ISOLAR-EVE3.5.0/plugins/com.etas.evetools.toolsfolder_3.5.5/Tools/MinGW/bin/../lib/gcc/i686-w64-mingw32/8.1.0/../../../../i686-w64-mingw32/lib/../lib/libuser32.a(dmces00588.o)
                              RTAOS.lib(vrtaCore.o) (_imp__MessageBoxA@16)
C:/Program Files/ETAS/ISOLAR-EVE3.5.0/plugins/com.etas.evetools.toolsfolder_3.5.5/Tools/MinGW/bin/../lib/gcc/i686-w64-mingw32/8.1.0/../../../../i686-w64-mingw32/lib/../lib/libuser32.a(dmceh.o)
                              C:/Program Files/ETAS/ISOLAR-EVE3.5.0/plugins/com.etas.evetools.toolsfolder_3.5.5/Tools/MinGW/bin/../lib/gcc/i686-w64-mingw32/8.1.0/../../../../i686-w64-mingw32/lib/../lib/libuser32.a(dmces00588.o) (_head_lib32_libuser32_a)
C:/Program Files/ETAS/ISOLAR-EVE3.5.0/plugins/com.etas.evetools.toolsfolder_3.5.5/Tools/MinGW/bin/../lib/gcc/i686-w64-mingw32/8.1.0/../../../../i686-w64-mingw32/lib/../lib/libuser32.a(dmcet.o)
                              C:/Program Files/ETAS/ISOLAR-EVE3.5.0/plugins/com.etas.evetools.toolsfolder_3.5.5/Tools/MinGW/bin/../lib/gcc/i686-w64-mingw32/8.1.0/../../../../i686-w64-mingw32/lib/../lib/libuser32.a(dmceh.o) (_lib32_libuser32_a_iname)
C:/Program Files/ETAS/ISOLAR-EVE3.5.0/plugins/com.etas.evetools.toolsfolder_3.5.5/Tools/MinGW/bin/../lib/gcc/i686-w64-mingw32/8.1.0/../../../../i686-w64-mingw32/lib/../lib/libkernel32.a(dgzcs01255.o)
                              RTAOS.lib(vrtaSystemClock.o) (_imp__WaitForSingleObject@8)
C:/Program Files/ETAS/ISOLAR-EVE3.5.0/plugins/com.etas.evetools.toolsfolder_3.5.5/Tools/MinGW/bin/../lib/gcc/i686-w64-mingw32/8.1.0/../../../../i686-w64-mingw32/lib/../lib/libkernel32.a(dgzcs01246.o)
                              C:/Program Files/ETAS/ISOLAR-EVE3.5.0/plugins/com.etas.evetools.toolsfolder_3.5.5/Tools/MinGW/bin/../lib/gcc/i686-w64-mingw32/8.1.0/../../../../i686-w64-mingw32/lib/../lib/libmingw32.a(lib32_libmingw32_a-pseudo-reloc.o) (_imp__VirtualQuery@12)
C:/Program Files/ETAS/ISOLAR-EVE3.5.0/plugins/com.etas.evetools.toolsfolder_3.5.5/Tools/MinGW/bin/../lib/gcc/i686-w64-mingw32/8.1.0/../../../../i686-w64-mingw32/lib/../lib/libkernel32.a(dgzcs01243.o)
                              C:/Program Files/ETAS/ISOLAR-EVE3.5.0/plugins/com.etas.evetools.toolsfolder_3.5.5/Tools/MinGW/bin/../lib/gcc/i686-w64-mingw32/8.1.0/../../../../i686-w64-mingw32/lib/../lib/libmingw32.a(lib32_libmingw32_a-pseudo-reloc.o) (_imp__VirtualProtect@16)
C:/Program Files/ETAS/ISOLAR-EVE3.5.0/plugins/com.etas.evetools.toolsfolder_3.5.5/Tools/MinGW/bin/../lib/gcc/i686-w64-mingw32/8.1.0/../../../../i686-w64-mingw32/lib/../lib/libkernel32.a(dgzcs01210.o)
                              C:/Program Files/ETAS/ISOLAR-EVE3.5.0/plugins/com.etas.evetools.toolsfolder_3.5.5/Tools/MinGW/bin/../lib/gcc/i686-w64-mingw32/8.1.0/../../../../i686-w64-mingw32/lib/../lib/libmingw32.a(lib32_libmingw32_a-gs_support.o) (_imp__UnhandledExceptionFilter@4)
C:/Program Files/ETAS/ISOLAR-EVE3.5.0/plugins/com.etas.evetools.toolsfolder_3.5.5/Tools/MinGW/bin/../lib/gcc/i686-w64-mingw32/8.1.0/../../../../i686-w64-mingw32/lib/../lib/libkernel32.a(dgzcs01198.o)
                              C:/Program Files/ETAS/ISOLAR-EVE3.5.0/plugins/com.etas.evetools.toolsfolder_3.5.5/Tools/MinGW/bin/../lib/gcc/i686-w64-mingw32/8.1.0/libgcc.a(gthr-win32.o) (_imp__TlsSetValue@8)
C:/Program Files/ETAS/ISOLAR-EVE3.5.0/plugins/com.etas.evetools.toolsfolder_3.5.5/Tools/MinGW/bin/../lib/gcc/i686-w64-mingw32/8.1.0/../../../../i686-w64-mingw32/lib/../lib/libkernel32.a(dgzcs01197.o)
                              C:/Program Files/ETAS/ISOLAR-EVE3.5.0/plugins/com.etas.evetools.toolsfolder_3.5.5/Tools/MinGW/bin/../lib/gcc/i686-w64-mingw32/8.1.0/../../../../i686-w64-mingw32/lib/../lib/libmingw32.a(lib32_libmingw32_a-tlsthrd.o) (_imp__TlsGetValue@4)
C:/Program Files/ETAS/ISOLAR-EVE3.5.0/plugins/com.etas.evetools.toolsfolder_3.5.5/Tools/MinGW/bin/../lib/gcc/i686-w64-mingw32/8.1.0/../../../../i686-w64-mingw32/lib/../lib/libkernel32.a(dgzcs01196.o)
                              C:/Program Files/ETAS/ISOLAR-EVE3.5.0/plugins/com.etas.evetools.toolsfolder_3.5.5/Tools/MinGW/bin/../lib/gcc/i686-w64-mingw32/8.1.0/libgcc.a(gthr-win32.o) (_imp__TlsFree@4)
C:/Program Files/ETAS/ISOLAR-EVE3.5.0/plugins/com.etas.evetools.toolsfolder_3.5.5/Tools/MinGW/bin/../lib/gcc/i686-w64-mingw32/8.1.0/../../../../i686-w64-mingw32/lib/../lib/libkernel32.a(dgzcs01195.o)
                              C:/Program Files/ETAS/ISOLAR-EVE3.5.0/plugins/com.etas.evetools.toolsfolder_3.5.5/Tools/MinGW/bin/../lib/gcc/i686-w64-mingw32/8.1.0/libgcc.a(gthr-win32.o) (_imp__TlsAlloc@0)
C:/Program Files/ETAS/ISOLAR-EVE3.5.0/plugins/com.etas.evetools.toolsfolder_3.5.5/Tools/MinGW/bin/../lib/gcc/i686-w64-mingw32/8.1.0/../../../../i686-w64-mingw32/lib/../lib/libkernel32.a(dgzcs01190.o)
                              RTAOS.lib(vrtaAppMain.o) (_imp__TerminateProcess@8)
C:/Program Files/ETAS/ISOLAR-EVE3.5.0/plugins/com.etas.evetools.toolsfolder_3.5.5/Tools/MinGW/bin/../lib/gcc/i686-w64-mingw32/8.1.0/../../../../i686-w64-mingw32/lib/../lib/libkernel32.a(dgzcs01186.o)
                              RTAOS.lib(vrtaSystemClockDevice.o) (_imp__SwitchToThread@0)
C:/Program Files/ETAS/ISOLAR-EVE3.5.0/plugins/com.etas.evetools.toolsfolder_3.5.5/Tools/MinGW/bin/../lib/gcc/i686-w64-mingw32/8.1.0/../../../../i686-w64-mingw32/lib/../lib/libkernel32.a(dgzcs01176.o)
                              C:/Program Files/ETAS/ISOLAR-EVE3.5.0/plugins/com.etas.evetools.toolsfolder_3.5.5/Tools/MinGW/bin/../lib/gcc/i686-w64-mingw32/8.1.0/../../../../i686-w64-mingw32/lib/../lib/crt2.o (_imp__Sleep@4)
C:/Program Files/ETAS/ISOLAR-EVE3.5.0/plugins/com.etas.evetools.toolsfolder_3.5.5/Tools/MinGW/bin/../lib/gcc/i686-w64-mingw32/8.1.0/../../../../i686-w64-mingw32/lib/../lib/libkernel32.a(dgzcs01163.o)
                              C:/Program Files/ETAS/ISOLAR-EVE3.5.0/plugins/com.etas.evetools.toolsfolder_3.5.5/Tools/MinGW/bin/../lib/gcc/i686-w64-mingw32/8.1.0/../../../../i686-w64-mingw32/lib/../lib/crt2.o (_imp__SetUnhandledExceptionFilter@4)
C:/Program Files/ETAS/ISOLAR-EVE3.5.0/plugins/com.etas.evetools.toolsfolder_3.5.5/Tools/MinGW/bin/../lib/gcc/i686-w64-mingw32/8.1.0/../../../../i686-w64-mingw32/lib/../lib/libkernel32.a(dgzcs01114.o)
                              C:/Program Files/ETAS/ISOLAR-EVE3.5.0/plugins/com.etas.evetools.toolsfolder_3.5.5/Tools/MinGW/bin/../lib/gcc/i686-w64-mingw32/8.1.0/libgcc.a(gthr-win32.o) (_imp__SetLastError@4)
C:/Program Files/ETAS/ISOLAR-EVE3.5.0/plugins/com.etas.evetools.toolsfolder_3.5.5/Tools/MinGW/bin/../lib/gcc/i686-w64-mingw32/8.1.0/../../../../i686-w64-mingw32/lib/../lib/libkernel32.a(dgzcs00997.o)
                              RTAOS.lib(vrtaSystemClockDevice.o) (_imp__ReleaseSemaphore@12)
C:/Program Files/ETAS/ISOLAR-EVE3.5.0/plugins/com.etas.evetools.toolsfolder_3.5.5/Tools/MinGW/bin/../lib/gcc/i686-w64-mingw32/8.1.0/../../../../i686-w64-mingw32/lib/../lib/libkernel32.a(dgzcs00993.o)
                              RTAOS.lib(vrtaSystemClock.o) (_imp__ReleaseMutex@4)
C:/Program Files/ETAS/ISOLAR-EVE3.5.0/plugins/com.etas.evetools.toolsfolder_3.5.5/Tools/MinGW/bin/../lib/gcc/i686-w64-mingw32/8.1.0/../../../../i686-w64-mingw32/lib/../lib/libkernel32.a(dgzcs00950.o)
                              RTAOS.lib(vrtaCore.o) (_imp__QueryPerformanceFrequency@4)
C:/Program Files/ETAS/ISOLAR-EVE3.5.0/plugins/com.etas.evetools.toolsfolder_3.5.5/Tools/MinGW/bin/../lib/gcc/i686-w64-mingw32/8.1.0/../../../../i686-w64-mingw32/lib/../lib/libkernel32.a(dgzcs00949.o)
                              RTAOS.lib(vrtaCore.o) (_imp__QueryPerformanceCounter@4)
C:/Program Files/ETAS/ISOLAR-EVE3.5.0/plugins/com.etas.evetools.toolsfolder_3.5.5/Tools/MinGW/bin/../lib/gcc/i686-w64-mingw32/8.1.0/../../../../i686-w64-mingw32/lib/../lib/libkernel32.a(dgzcs00866.o)
                              RTAOS.lib(vrtaSystemClockDevice.o) (_imp__MapViewOfFile@20)
C:/Program Files/ETAS/ISOLAR-EVE3.5.0/plugins/com.etas.evetools.toolsfolder_3.5.5/Tools/MinGW/bin/../lib/gcc/i686-w64-mingw32/8.1.0/../../../../i686-w64-mingw32/lib/../lib/libkernel32.a(dgzcs00839.o)
                              C:/Program Files/ETAS/ISOLAR-EVE3.5.0/plugins/com.etas.evetools.toolsfolder_3.5.5/Tools/MinGW/bin/../lib/gcc/i686-w64-mingw32/8.1.0/crtbegin.o (_imp__LoadLibraryA@4)
C:/Program Files/ETAS/ISOLAR-EVE3.5.0/plugins/com.etas.evetools.toolsfolder_3.5.5/Tools/MinGW/bin/../lib/gcc/i686-w64-mingw32/8.1.0/../../../../i686-w64-mingw32/lib/../lib/libkernel32.a(dgzcs00836.o)
                              C:/Program Files/ETAS/ISOLAR-EVE3.5.0/plugins/com.etas.evetools.toolsfolder_3.5.5/Tools/MinGW/bin/../lib/gcc/i686-w64-mingw32/8.1.0/../../../../i686-w64-mingw32/lib/../lib/libmingw32.a(lib32_libmingw32_a-tlsthrd.o) (_imp__LeaveCriticalSection@4)
C:/Program Files/ETAS/ISOLAR-EVE3.5.0/plugins/com.etas.evetools.toolsfolder_3.5.5/Tools/MinGW/bin/../lib/gcc/i686-w64-mingw32/8.1.0/../../../../i686-w64-mingw32/lib/../lib/libkernel32.a(dgzcs00750.o)
                              C:/Program Files/ETAS/ISOLAR-EVE3.5.0/plugins/com.etas.evetools.toolsfolder_3.5.5/Tools/MinGW/bin/../lib/gcc/i686-w64-mingw32/8.1.0/../../../../i686-w64-mingw32/lib/../lib/libmingw32.a(lib32_libmingw32_a-tlsthrd.o) (_imp__InitializeCriticalSection@4)
C:/Program Files/ETAS/ISOLAR-EVE3.5.0/plugins/com.etas.evetools.toolsfolder_3.5.5/Tools/MinGW/bin/../lib/gcc/i686-w64-mingw32/8.1.0/../../../../i686-w64-mingw32/lib/../lib/libkernel32.a(dgzcs00666.o)
                              C:/Program Files/ETAS/ISOLAR-EVE3.5.0/plugins/com.etas.evetools.toolsfolder_3.5.5/Tools/MinGW/bin/../lib/gcc/i686-w64-mingw32/8.1.0/../../../../i686-w64-mingw32/lib/../lib/libmingw32.a(lib32_libmingw32_a-gs_support.o) (_imp__GetTickCount@0)
C:/Program Files/ETAS/ISOLAR-EVE3.5.0/plugins/com.etas.evetools.toolsfolder_3.5.5/Tools/MinGW/bin/../lib/gcc/i686-w64-mingw32/8.1.0/../../../../i686-w64-mingw32/lib/../lib/libkernel32.a(dgzcs00638.o)
                              C:/Program Files/ETAS/ISOLAR-EVE3.5.0/plugins/com.etas.evetools.toolsfolder_3.5.5/Tools/MinGW/bin/../lib/gcc/i686-w64-mingw32/8.1.0/../../../../i686-w64-mingw32/lib/../lib/libmingw32.a(lib32_libmingw32_a-gs_support.o) (_imp__GetSystemTimeAsFileTime@4)
C:/Program Files/ETAS/ISOLAR-EVE3.5.0/plugins/com.etas.evetools.toolsfolder_3.5.5/Tools/MinGW/bin/../lib/gcc/i686-w64-mingw32/8.1.0/../../../../i686-w64-mingw32/lib/../lib/libkernel32.a(dgzcs00615.o)
                              C:/Program Files/ETAS/ISOLAR-EVE3.5.0/plugins/com.etas.evetools.toolsfolder_3.5.5/Tools/MinGW/bin/../lib/gcc/i686-w64-mingw32/8.1.0/../../../../i686-w64-mingw32/lib/../lib/crt2.o (_imp__GetStartupInfoA@4)
C:/Program Files/ETAS/ISOLAR-EVE3.5.0/plugins/com.etas.evetools.toolsfolder_3.5.5/Tools/MinGW/bin/../lib/gcc/i686-w64-mingw32/8.1.0/../../../../i686-w64-mingw32/lib/../lib/libkernel32.a(dgzcs00584.o)
                              C:/Program Files/ETAS/ISOLAR-EVE3.5.0/plugins/com.etas.evetools.toolsfolder_3.5.5/Tools/MinGW/bin/../lib/gcc/i686-w64-mingw32/8.1.0/crtbegin.o (_imp__GetProcAddress@8)
C:/Program Files/ETAS/ISOLAR-EVE3.5.0/plugins/com.etas.evetools.toolsfolder_3.5.5/Tools/MinGW/bin/../lib/gcc/i686-w64-mingw32/8.1.0/../../../../i686-w64-mingw32/lib/../lib/libkernel32.a(dgzcs00536.o)
                              C:/Program Files/ETAS/ISOLAR-EVE3.5.0/plugins/com.etas.evetools.toolsfolder_3.5.5/Tools/MinGW/bin/../lib/gcc/i686-w64-mingw32/8.1.0/crtbegin.o (_imp__GetModuleHandleA@4)
C:/Program Files/ETAS/ISOLAR-EVE3.5.0/plugins/com.etas.evetools.toolsfolder_3.5.5/Tools/MinGW/bin/../lib/gcc/i686-w64-mingw32/8.1.0/../../../../i686-w64-mingw32/lib/../lib/libkernel32.a(dgzcs00518.o)
                              RTAOS.lib(vrtaCore.o) (_imp__GetLastError@0)
C:/Program Files/ETAS/ISOLAR-EVE3.5.0/plugins/com.etas.evetools.toolsfolder_3.5.5/Tools/MinGW/bin/../lib/gcc/i686-w64-mingw32/8.1.0/../../../../i686-w64-mingw32/lib/../lib/libkernel32.a(dgzcs00482.o)
                              RTAOS.lib(vrtaCore.o) (_imp__GetEnvironmentVariableA@12)
C:/Program Files/ETAS/ISOLAR-EVE3.5.0/plugins/com.etas.evetools.toolsfolder_3.5.5/Tools/MinGW/bin/../lib/gcc/i686-w64-mingw32/8.1.0/../../../../i686-w64-mingw32/lib/../lib/libkernel32.a(dgzcs00460.o)
                              C:/Program Files/ETAS/ISOLAR-EVE3.5.0/plugins/com.etas.evetools.toolsfolder_3.5.5/Tools/MinGW/bin/../lib/gcc/i686-w64-mingw32/8.1.0/../../../../i686-w64-mingw32/lib/../lib/libmingw32.a(lib32_libmingw32_a-gs_support.o) (_imp__GetCurrentThreadId@0)
C:/Program Files/ETAS/ISOLAR-EVE3.5.0/plugins/com.etas.evetools.toolsfolder_3.5.5/Tools/MinGW/bin/../lib/gcc/i686-w64-mingw32/8.1.0/../../../../i686-w64-mingw32/lib/../lib/libkernel32.a(dgzcs00456.o)
                              C:/Program Files/ETAS/ISOLAR-EVE3.5.0/plugins/com.etas.evetools.toolsfolder_3.5.5/Tools/MinGW/bin/../lib/gcc/i686-w64-mingw32/8.1.0/../../../../i686-w64-mingw32/lib/../lib/libmingw32.a(lib32_libmingw32_a-gs_support.o) (_imp__GetCurrentProcessId@0)
C:/Program Files/ETAS/ISOLAR-EVE3.5.0/plugins/com.etas.evetools.toolsfolder_3.5.5/Tools/MinGW/bin/../lib/gcc/i686-w64-mingw32/8.1.0/../../../../i686-w64-mingw32/lib/../lib/libkernel32.a(dgzcs00455.o)
                              RTAOS.lib(vrtaAppMain.o) (_imp__GetCurrentProcess@0)
C:/Program Files/ETAS/ISOLAR-EVE3.5.0/plugins/com.etas.evetools.toolsfolder_3.5.5/Tools/MinGW/bin/../lib/gcc/i686-w64-mingw32/8.1.0/../../../../i686-w64-mingw32/lib/../lib/libkernel32.a(dgzcs00359.o)
                              C:/Program Files/ETAS/ISOLAR-EVE3.5.0/plugins/com.etas.evetools.toolsfolder_3.5.5/Tools/MinGW/bin/../lib/gcc/i686-w64-mingw32/8.1.0/crtbegin.o (_imp__FreeLibrary@4)
C:/Program Files/ETAS/ISOLAR-EVE3.5.0/plugins/com.etas.evetools.toolsfolder_3.5.5/Tools/MinGW/bin/../lib/gcc/i686-w64-mingw32/8.1.0/../../../../i686-w64-mingw32/lib/../lib/libkernel32.a(dgzcs00354.o)
                              RTAOS.lib(vrtaCore.o) (_imp__FormatMessageA@28)
C:/Program Files/ETAS/ISOLAR-EVE3.5.0/plugins/com.etas.evetools.toolsfolder_3.5.5/Tools/MinGW/bin/../lib/gcc/i686-w64-mingw32/8.1.0/../../../../i686-w64-mingw32/lib/../lib/libkernel32.a(dgzcs00286.o)
                              RTAOS.lib(vrtaSystemClock.o) (_imp__ExitThread@4)
C:/Program Files/ETAS/ISOLAR-EVE3.5.0/plugins/com.etas.evetools.toolsfolder_3.5.5/Tools/MinGW/bin/../lib/gcc/i686-w64-mingw32/8.1.0/../../../../i686-w64-mingw32/lib/../lib/libkernel32.a(dgzcs00242.o)
                              C:/Program Files/ETAS/ISOLAR-EVE3.5.0/plugins/com.etas.evetools.toolsfolder_3.5.5/Tools/MinGW/bin/../lib/gcc/i686-w64-mingw32/8.1.0/../../../../i686-w64-mingw32/lib/../lib/libmingw32.a(lib32_libmingw32_a-tlsthrd.o) (_imp__EnterCriticalSection@4)
C:/Program Files/ETAS/ISOLAR-EVE3.5.0/plugins/com.etas.evetools.toolsfolder_3.5.5/Tools/MinGW/bin/../lib/gcc/i686-w64-mingw32/8.1.0/../../../../i686-w64-mingw32/lib/../lib/libkernel32.a(dgzcs00214.o)
                              C:/Program Files/ETAS/ISOLAR-EVE3.5.0/plugins/com.etas.evetools.toolsfolder_3.5.5/Tools/MinGW/bin/../lib/gcc/i686-w64-mingw32/8.1.0/../../../../i686-w64-mingw32/lib/../lib/libmingw32.a(lib32_libmingw32_a-tlsthrd.o) (_imp__DeleteCriticalSection@4)
C:/Program Files/ETAS/ISOLAR-EVE3.5.0/plugins/com.etas.evetools.toolsfolder_3.5.5/Tools/MinGW/bin/../lib/gcc/i686-w64-mingw32/8.1.0/../../../../i686-w64-mingw32/lib/../lib/libkernel32.a(dgzcs00178.o)
                              C:/Program Files/ETAS/ISOLAR-EVE3.5.0/plugins/com.etas.evetools.toolsfolder_3.5.5/Tools/MinGW/bin/../lib/gcc/i686-w64-mingw32/8.1.0/libgcc.a(gthr-win32.o) (_imp__CreateSemaphoreW@16)
C:/Program Files/ETAS/ISOLAR-EVE3.5.0/plugins/com.etas.evetools.toolsfolder_3.5.5/Tools/MinGW/bin/../lib/gcc/i686-w64-mingw32/8.1.0/../../../../i686-w64-mingw32/lib/../lib/libkernel32.a(dgzcs00175.o)
                              RTAOS.lib(vrtaSystemClockDevice.o) (_imp__CreateSemaphoreA@16)
C:/Program Files/ETAS/ISOLAR-EVE3.5.0/plugins/com.etas.evetools.toolsfolder_3.5.5/Tools/MinGW/bin/../lib/gcc/i686-w64-mingw32/8.1.0/../../../../i686-w64-mingw32/lib/../lib/libkernel32.a(dgzcs00159.o)
                              RTAOS.lib(vrtaSystemClock.o) (_imp__CreateMutexA@12)
C:/Program Files/ETAS/ISOLAR-EVE3.5.0/plugins/com.etas.evetools.toolsfolder_3.5.5/Tools/MinGW/bin/../lib/gcc/i686-w64-mingw32/8.1.0/../../../../i686-w64-mingw32/lib/../lib/libkernel32.a(dgzcs00140.o)
                              RTAOS.lib(vrtaSystemClockDevice.o) (_imp__CreateFileMappingA@24)
C:/Program Files/ETAS/ISOLAR-EVE3.5.0/plugins/com.etas.evetools.toolsfolder_3.5.5/Tools/MinGW/bin/../lib/gcc/i686-w64-mingw32/8.1.0/../../../../i686-w64-mingw32/lib/../lib/libkernel32.a(dgzcs00083.o)
                              C:/Program Files/ETAS/ISOLAR-EVE3.5.0/plugins/com.etas.evetools.toolsfolder_3.5.5/Tools/MinGW/bin/../lib/gcc/i686-w64-mingw32/8.1.0/libgcc.a(gthr-win32.o) (_imp__CloseHandle@4)
C:/Program Files/ETAS/ISOLAR-EVE3.5.0/plugins/com.etas.evetools.toolsfolder_3.5.5/Tools/MinGW/bin/../lib/gcc/i686-w64-mingw32/8.1.0/../../../../i686-w64-mingw32/lib/../lib/libkernel32.a(dgzch.o)
                              C:/Program Files/ETAS/ISOLAR-EVE3.5.0/plugins/com.etas.evetools.toolsfolder_3.5.5/Tools/MinGW/bin/../lib/gcc/i686-w64-mingw32/8.1.0/../../../../i686-w64-mingw32/lib/../lib/libkernel32.a(dgzcs01255.o) (_head_lib32_libkernel32_a)
C:/Program Files/ETAS/ISOLAR-EVE3.5.0/plugins/com.etas.evetools.toolsfolder_3.5.5/Tools/MinGW/bin/../lib/gcc/i686-w64-mingw32/8.1.0/../../../../i686-w64-mingw32/lib/../lib/libkernel32.a(dgzct.o)
                              C:/Program Files/ETAS/ISOLAR-EVE3.5.0/plugins/com.etas.evetools.toolsfolder_3.5.5/Tools/MinGW/bin/../lib/gcc/i686-w64-mingw32/8.1.0/../../../../i686-w64-mingw32/lib/../lib/libkernel32.a(dgzch.o) (_lib32_libkernel32_a_iname)
C:/Program Files/ETAS/ISOLAR-EVE3.5.0/plugins/com.etas.evetools.toolsfolder_3.5.5/Tools/MinGW/bin/../lib/gcc/i686-w64-mingw32/8.1.0/../../../../i686-w64-mingw32/lib/../lib/libmingw32.a(lib32_libmingw32_a-tlsmthread.o)
                              C:/Program Files/ETAS/ISOLAR-EVE3.5.0/plugins/com.etas.evetools.toolsfolder_3.5.5/Tools/MinGW/bin/../lib/gcc/i686-w64-mingw32/8.1.0/libgcc.a(gthr-win32.o) (__mingwthr_key_dtor)

Allocating common symbols
Common symbol       size              file

Os_dyn_alarms       0xe0              RTAOS.lib(Os_Cfg.o)
Rte_Var_OsTask_1WaitingEv
                    0x4               Rte.o
Os_ICUForInterruptVector
                    0x42              RTAOS.lib(vrtaAppMain.o)
Rte_Var_OsTask_21WaitingEv
                    0x4               Rte.o
Rte_Queue_CPT_SEN_BATT_COMP_CS_BATT_Receive_batt_sen_op_data
                    0x1               Rte.o
Rte_Rx_000001_modedata
                    0x1               Rte.o
Rte_Queue_CPT_ECU_ABS_CS_BATT_Server_batt_sen_op_data
                    0x28              Rte.o
__native_startup_lock
                    0x4               C:/Program Files/ETAS/ISOLAR-EVE3.5.0/plugins/com.etas.evetools.toolsfolder_3.5.5/Tools/MinGW/bin/../lib/gcc/i686-w64-mingw32/8.1.0/../../../../i686-w64-mingw32/lib/../lib/libmingw32.a(lib32_libmingw32_a-natstart.o)
Os_RunningISR       0x4               RTAOS.lib(Os_Cfg.o)
Os_ReadyTasks       0x4               RTAOS.lib(Os_Cfg.o)
Rte_Queue_CPT_ECU_ABS_PCylinder_get_cylinder_Status_data
                    0x28              Rte.o
Rte_Queue_CPT_Engine_Cycle_ACT_Engine_Cleintport_set_engine_data
                    0x1               Rte.o
Os_dyn_fifocontrol  0x10              RTAOS.lib(Os_Cfg.o)
Rte_Queue_CPT_ACT_HYDRAULIC_MODULATOR_REARR_COMP_ACT_HM_RR_Client_set_E_op_data
                    0x1               Rte.o
Os_WaitingTasks     0x4               RTAOS.lib(Os_Cfg.o)
Os_SuspendOSCount   0x4               RTAOS.lib(SuspendOSInterrupts.o)
hmod_libgcc         0x4               C:/Program Files/ETAS/ISOLAR-EVE3.5.0/plugins/com.etas.evetools.toolsfolder_3.5.5/Tools/MinGW/bin/../lib/gcc/i686-w64-mingw32/8.1.0/crtbegin.o
Rte_Var_OsTask_3WaitingEv
                    0x4               Rte.o
Rte_Queue_CPT_ECU_ABS_ActSEngine_set_engine_data
                    0x50              Rte.o
Rte_Queue_CPT_ECU_ABS_PHMRearR_set_E_op_data
                    0x50              Rte.o
Os_SuspendOSImask   0x4               RTAOS.lib(SuspendOSInterrupts.o)
Rte_Queue_CPT_BrakePedalSen_RPort_get_BrakePedal_Status_data
                    0x1               Rte.o
Os_dyn_scheduletables
                    0x10              RTAOS.lib(Os_Cfg.o)
Rte_Rx_000013_brake_value
                    0x1               Rte.o
Rte_Rx_000008_backright
                    0x4               Rte.o
Rte_Rx_000016_temperature
                    0x4               Rte.o
Rte_Rx_000006_frontright
                    0x4               Rte.o
Rte_Var_OsTask_7WaitingEv
                    0x4               Rte.o
Rte_Rx_000009_batt_data
                    0x1               Rte.o
Rte_Rx_000018_infoArray
                    0x5               Rte.o
Rte_Queue_CPT_AccelPedalSen_RPort_get_AccelPedal_Status_data
                    0x1               Rte.o
Rte_Var_OsTask_11WaitingEv
                    0x4               Rte.o
Rte_Rx_000004_motor_speed_data
                    0x2               Rte.o
Os_TaskFifo         0x78              RTAOS.lib(Os_Cfg.o)
Rte_Rx_000007_backleft
                    0x4               Rte.o
Rte_Var_OsTask_10WaitingEv
                    0x4               Rte.o
Rte_Rx_000005_frontleft
                    0x4               Rte.o
batt_stat           0x4               Rte_APP_MOTOR_COMP.o
Rte_Rx_000012_avg_speed_data
                    0x8               Rte.o
Rte_Rx_000003_modedata
                    0x1               Rte.o
Rte_Rx_000014_gear_value
                    0x1               Rte.o
Rte_Queue_CPT_SpeedSen_RPort_get_Tire_RPM_data
                    0x8               Rte.o
Rte_Queue_CPT_GearModeSen_RPort_get_Gear_Mode_data
                    0x1               Rte.o
__native_startup_state
                    0x4               C:/Program Files/ETAS/ISOLAR-EVE3.5.0/plugins/com.etas.evetools.toolsfolder_3.5.5/Tools/MinGW/bin/../lib/gcc/i686-w64-mingw32/8.1.0/../../../../i686-w64-mingw32/lib/../lib/libmingw32.a(lib32_libmingw32_a-natstart.o)
Rte_Rx_000010_pwm_data
                    0x1               Rte.o
Rte_Rx_000015_pressure
                    0x4               Rte.o
Os_dyn_isrs         0xc               RTAOS.lib(Os_Cfg.o)
Os_CurrentAppMode   0x1               RTAOS.lib(Os_Cfg.o)
__mingw_winmain_lpCmdLine
                    0x4               C:/Program Files/ETAS/ISOLAR-EVE3.5.0/plugins/com.etas.evetools.toolsfolder_3.5.5/Tools/MinGW/bin/../lib/gcc/i686-w64-mingw32/8.1.0/../../../../i686-w64-mingw32/lib/../lib/crt2.o
VRTA_DEBUG_DEFER_INTERRUPTS
                    0x4               RTAOS.lib(vrtaAppMain.o)
isArrFull           0x4               Rte_SEN_BATT_COMP.o
Rte_Var_OsTask_19WaitingEv
                    0x4               Rte.o
Rte_Queue_CPT_ECU_ABS_PBrakePedal_get_BrakePedal_Status_data
                    0x28              Rte.o
Os_WaitSP           0x4               RTAOS.lib(Os_Cfg.o)
Os_dyn_ecc          0x850             RTAOS.lib(Os_Cfg.o)
Os_IdleMeter        0x8               RTAOS.lib(Os_Cfg.o)
Rte_Queue_CPT_ECU_ABS_PTireRPM_get_Tire_RPM_data
                    0x28              Rte.o
Os_CurrentMeteredObject
                    0x4               RTAOS.lib(Os_Cfg.o)
Rte_Queue_CPT_ECU_ABS_ActSGear_set_phygear_data
                    0x50              Rte.o
Rte_Queue_CPT_ECU_ABS_PHMFrontL_set_E_op_data
                    0x50              Rte.o
Rte_Var_OsTask_15WaitingEv
                    0x4               Rte.o
Rte_Queue_CPT_ECU_ABS_CS_MOTOR_Server_motor_act_op_data
                    0x50              Rte.o
Os_ICUForCore       0x2               RTAOS.lib(vrtaAppMain.o)
Os_OrtiApiID        0x1               RTAOS.lib(Os_Cfg.o)
Os_ChainTaskRef     0x4               RTAOS.lib(Os_Cfg.o)
Rte_Queue_CPT_ECU_ABS_PHMFrontR_set_E_op_data
                    0x50              Rte.o
Rte_Var_OsTask_04WaitingEv
                    0x4               Rte.o
Rte_Rx_000017_powerValue
                    0x2               Rte.o
Os_dyn_counters     0x8               RTAOS.lib(Os_Cfg.o)
Rte_Var_OsTask_23WaitingEv
                    0x4               Rte.o
Rte_Rx_000011_accel_value
                    0x1               Rte.o
idx                 0x4               Rte_SEN_BATT_COMP.o
Rte_Queue_CPT_ACT_MOTOR_COMP_CS_MOTOR_Client_motor_act_op_data
                    0x1               Rte.o
Rte_Rx_000002_modedata
                    0x1               Rte.o
Rte_Var_OsTask_12WaitingEv
                    0x4               Rte.o
Rte_Queue_CPT_Cylinder_Sen_Rport_get_cylinder_Status_data
                    0x4               Rte.o
pwm                 0x4               Rte_APP_MOTOR_COMP.o
Os_GetStackValueAdjust
                    0x4               RTAOS.lib(Os_Cfg.o)
Os_dyn_resources    0x10              RTAOS.lib(Os_Cfg.o)
Rte_Var_OsTask_20WaitingEv
                    0x4               Rte.o
Os_StackBase        0x4               RTAOS.lib(Os_Cfg.o)
Rte_Queue_CPT_ECU_ABS_PHMRearL_set_E_op_data
                    0x50              Rte.o
arr                 0x18              Rte_SEN_BATT_COMP.o
Os_VCoreIsUntrusted
                    0x4               RTAOS.lib(Os_Cfg.o)
Rte_Var_OsTask_6WaitingEv
                    0x4               Rte.o
Rte_Queue_CPT_ACT_HYDRAULIC_MODULATOR_REARL_COMP_ACT_HM_RL_Client_set_E_op_data
                    0x1               Rte.o
Rte_Queue_CPT_ACT_HYDRAULIC_MODULATOR_FRONTL_COMP_ACT_HM_FL_Client_set_E_op_data
                    0x1               Rte.o
Rte_Rx_000000_modedata
                    0x1               Rte.o
Os_RunningTask      0x4               RTAOS.lib(Os_Cfg.o)
Os_InShutdownHook   0x1               RTAOS.lib(Os_Cfg.o)
__mingw_winmain_hInstance
                    0x4               C:/Program Files/ETAS/ISOLAR-EVE3.5.0/plugins/com.etas.evetools.toolsfolder_3.5.5/Tools/MinGW/bin/../lib/gcc/i686-w64-mingw32/8.1.0/../../../../i686-w64-mingw32/lib/../lib/crt2.o
Os_OrtiLastError    0x1               RTAOS.lib(Os_Cfg.o)
Rte_Var_OsTask_14WaitingEv
                    0x4               Rte.o
Os_dyn_tasks        0x3e8             RTAOS.lib(Os_Cfg.o)
Os_RunningTPMask    0x4               RTAOS.lib(Os_Cfg.o)
Rte_Queue_CPT_ECU_ABS_PGearMode_get_Gear_Mode_data
                    0x28              Rte.o
Rte_Queue_CPT_ECU_ABS_PAccelPedal_get_AccelPedal_Status_data
                    0x28              Rte.o
Rte_Queue_CPT_ACT_HYDRAULIC_MODULATOR_FRONTR_COMP_ACT_HM_FR_Client_set_E_op_data
                    0x1               Rte.o
Rte_Queue_CPT_Engine_Gear_ACT_phyGear_relayPport_set_phygear_data
                    0x1               Rte.o

Discarded input sections

 .drectve       0x00000000       0x54 C:/Program Files/ETAS/ISOLAR-EVE3.5.0/plugins/com.etas.evetools.toolsfolder_3.5.5/Tools/MinGW/bin/../lib/gcc/i686-w64-mingw32/8.1.0/../../../../i686-w64-mingw32/lib/../lib/crt2.o
 .drectve       0x00000000       0x1c C:/Program Files/ETAS/ISOLAR-EVE3.5.0/plugins/com.etas.evetools.toolsfolder_3.5.5/Tools/MinGW/bin/../lib/gcc/i686-w64-mingw32/8.1.0/crtbegin.o
 .drectve       0x00000000      0x7ec Rte.o
 .drectve       0x00000000       0x30 Rte_APP_MOTOR_COMP.o
 .drectve       0x00000000       0x44 Rte_SEN_BATT_COMP.o
 .text$_ZN14vrtaComparable5ValueEv
                0x00000000       0x14 virtualdevices.o
 .drectve       0x00000000      0x29c RTAOS.lib(Os_Cfg.o)
 .drectve       0x00000000       0x44 RTAOS.lib(SuspendOSInterrupts.o)
 .drectve       0x00000000       0x74 RTAOS.lib(vrtaAppMain.o)
 .rdata$_ZTS10vrtaDevice
                0x00000000       0x10 RTAOS.lib(vrtaLoggerDevice.o)
 .rdata$_ZTI10vrtaDevice
                0x00000000        0x8 RTAOS.lib(vrtaLoggerDevice.o)
 .rdata$_ZTS18vrtaIdleSubscriber
                0x00000000       0x18 RTAOS.lib(vrtaOSMonitorDevice.o)
 .rdata$_ZTI18vrtaIdleSubscriber
                0x00000000        0x8 RTAOS.lib(vrtaOSMonitorDevice.o)
 .text$_ZN14vrtaComparable5ValueEv
                0x00000000       0x10 RTAOS.lib(vrtaSampleDevices.o)
 .text$_ZN9vrtaClockD1Ev
                0x00000000       0x30 RTAOS.lib(vrtaSampleDevices.o)
 .text$_ZThn36_N9vrtaClockD1Ev
                0x00000000       0x30 RTAOS.lib(vrtaSampleDevices.o)
 .rdata$_ZTS10vrtaDevice
                0x00000000       0x10 RTAOS.lib(vrtaSampleDevices.o)
 .rdata$_ZTI10vrtaDevice
                0x00000000        0x8 RTAOS.lib(vrtaSampleDevices.o)
 .rdata$_ZTS25vrtaSystemClockSubscriber
                0x00000000       0x1c RTAOS.lib(vrtaSystemClock.o)
 .rdata$_ZTI25vrtaSystemClockSubscriber
                0x00000000        0x8 RTAOS.lib(vrtaSystemClock.o)
 .rdata$_ZTS18vrtaIdleSubscriber
                0x00000000       0x18 RTAOS.lib(vrtaSystemClock.o)
 .rdata$_ZTI18vrtaIdleSubscriber
                0x00000000        0x8 RTAOS.lib(vrtaSystemClock.o)
 .text$_ZN13VirtualDevice8StartingEv
                0x00000000       0x10 RTAOS.lib(vrtaSystemClockDevice.o)
 .text$_ZN13VirtualDevice8StoppingEv
                0x00000000       0x10 RTAOS.lib(vrtaSystemClockDevice.o)
 .rdata$_ZTS13VirtualDevice
                0x00000000       0x10 RTAOS.lib(vrtaSystemClockDevice.o)
 .rdata$_ZTI13VirtualDevice
                0x00000000        0x8 RTAOS.lib(vrtaSystemClockDevice.o)
 .rdata$_ZTS18vrtaIdleSubscriber
                0x00000000       0x18 RTAOS.lib(vrtaSystemClockDevice.o)
 .rdata$_ZTI18vrtaIdleSubscriber
                0x00000000        0x8 RTAOS.lib(vrtaSystemClockDevice.o)
 .text$_ZN13VirtualDevice8StartingEv
                0x00000000       0x10 RTAOS.lib(virtualDevice.o)
 .text$_ZN13VirtualDevice8StoppingEv
                0x00000000       0x10 RTAOS.lib(virtualDevice.o)
 .rdata$_ZTS13VirtualDevice
                0x00000000       0x10 RTAOS.lib(virtualDevice.o)
 .rdata$_ZTI13VirtualDevice
                0x00000000        0x8 RTAOS.lib(virtualDevice.o)
 .text          0x00000000        0x8 C:/Program Files/ETAS/ISOLAR-EVE3.5.0/plugins/com.etas.evetools.toolsfolder_3.5.5/Tools/MinGW/bin/../lib/gcc/i686-w64-mingw32/8.1.0/../../../../i686-w64-mingw32/lib/../lib/libwinmm.a(dcnfs00150.o)
 .text          0x00000000        0x8 C:/Program Files/ETAS/ISOLAR-EVE3.5.0/plugins/com.etas.evetools.toolsfolder_3.5.5/Tools/MinGW/bin/../lib/gcc/i686-w64-mingw32/8.1.0/../../../../i686-w64-mingw32/lib/../lib/libwinmm.a(dcnfs00149.o)
 .text          0x00000000        0x8 C:/Program Files/ETAS/ISOLAR-EVE3.5.0/plugins/com.etas.evetools.toolsfolder_3.5.5/Tools/MinGW/bin/../lib/gcc/i686-w64-mingw32/8.1.0/../../../../i686-w64-mingw32/lib/../lib/libwinmm.a(dcnfs00144.o)
 .rdata$_ZTSSt9exception
                0x00000000       0x10 C:/Program Files/ETAS/ISOLAR-EVE3.5.0/plugins/com.etas.evetools.toolsfolder_3.5.5/Tools/MinGW/bin/../lib/gcc/i686-w64-mingw32/8.1.0\libstdc++.a(eh_personality.o)
 .rdata$_ZTISt9exception
                0x00000000        0x8 C:/Program Files/ETAS/ISOLAR-EVE3.5.0/plugins/com.etas.evetools.toolsfolder_3.5.5/Tools/MinGW/bin/../lib/gcc/i686-w64-mingw32/8.1.0\libstdc++.a(eh_personality.o)
 .rdata$_ZTSSt9exception
                0x00000000       0x10 C:/Program Files/ETAS/ISOLAR-EVE3.5.0/plugins/com.etas.evetools.toolsfolder_3.5.5/Tools/MinGW/bin/../lib/gcc/i686-w64-mingw32/8.1.0\libstdc++.a(new_op.o)
 .rdata$_ZTISt9exception
                0x00000000        0x8 C:/Program Files/ETAS/ISOLAR-EVE3.5.0/plugins/com.etas.evetools.toolsfolder_3.5.5/Tools/MinGW/bin/../lib/gcc/i686-w64-mingw32/8.1.0\libstdc++.a(new_op.o)
 .rdata$_ZTSSt9bad_alloc
                0x00000000       0x10 C:/Program Files/ETAS/ISOLAR-EVE3.5.0/plugins/com.etas.evetools.toolsfolder_3.5.5/Tools/MinGW/bin/../lib/gcc/i686-w64-mingw32/8.1.0\libstdc++.a(new_op.o)
 .rdata$_ZTISt9bad_alloc
                0x00000000        0xc C:/Program Files/ETAS/ISOLAR-EVE3.5.0/plugins/com.etas.evetools.toolsfolder_3.5.5/Tools/MinGW/bin/../lib/gcc/i686-w64-mingw32/8.1.0\libstdc++.a(new_op.o)
 .rdata$_ZTSSt9type_info
                0x00000000       0x10 C:/Program Files/ETAS/ISOLAR-EVE3.5.0/plugins/com.etas.evetools.toolsfolder_3.5.5/Tools/MinGW/bin/../lib/gcc/i686-w64-mingw32/8.1.0\libstdc++.a(si_class_type_info.o)
 .rdata$_ZTISt9type_info
                0x00000000        0x8 C:/Program Files/ETAS/ISOLAR-EVE3.5.0/plugins/com.etas.evetools.toolsfolder_3.5.5/Tools/MinGW/bin/../lib/gcc/i686-w64-mingw32/8.1.0\libstdc++.a(si_class_type_info.o)
 .rdata$_ZTSN10__cxxabiv117__class_type_infoE
                0x00000000       0x40 C:/Program Files/ETAS/ISOLAR-EVE3.5.0/plugins/com.etas.evetools.toolsfolder_3.5.5/Tools/MinGW/bin/../lib/gcc/i686-w64-mingw32/8.1.0\libstdc++.a(si_class_type_info.o)
 .rdata$_ZTIN10__cxxabiv117__class_type_infoE
                0x00000000        0xc C:/Program Files/ETAS/ISOLAR-EVE3.5.0/plugins/com.etas.evetools.toolsfolder_3.5.5/Tools/MinGW/bin/../lib/gcc/i686-w64-mingw32/8.1.0\libstdc++.a(si_class_type_info.o)
 .rdata$_ZTSSt9type_info
                0x00000000       0x10 C:/Program Files/ETAS/ISOLAR-EVE3.5.0/plugins/com.etas.evetools.toolsfolder_3.5.5/Tools/MinGW/bin/../lib/gcc/i686-w64-mingw32/8.1.0\libstdc++.a(tinfo.o)
 .rdata$_ZTISt9type_info
                0x00000000        0x8 C:/Program Files/ETAS/ISOLAR-EVE3.5.0/plugins/com.etas.evetools.toolsfolder_3.5.5/Tools/MinGW/bin/../lib/gcc/i686-w64-mingw32/8.1.0\libstdc++.a(tinfo.o)
 .rdata$_ZTSSt9type_info
                0x00000000       0x10 C:/Program Files/ETAS/ISOLAR-EVE3.5.0/plugins/com.etas.evetools.toolsfolder_3.5.5/Tools/MinGW/bin/../lib/gcc/i686-w64-mingw32/8.1.0\libstdc++.a(vmi_class_type_info.o)
 .rdata$_ZTISt9type_info
                0x00000000        0x8 C:/Program Files/ETAS/ISOLAR-EVE3.5.0/plugins/com.etas.evetools.toolsfolder_3.5.5/Tools/MinGW/bin/../lib/gcc/i686-w64-mingw32/8.1.0\libstdc++.a(vmi_class_type_info.o)
 .rdata$_ZTSN10__cxxabiv117__class_type_infoE
                0x00000000       0x40 C:/Program Files/ETAS/ISOLAR-EVE3.5.0/plugins/com.etas.evetools.toolsfolder_3.5.5/Tools/MinGW/bin/../lib/gcc/i686-w64-mingw32/8.1.0\libstdc++.a(vmi_class_type_info.o)
 .rdata$_ZTIN10__cxxabiv117__class_type_infoE
                0x00000000        0xc C:/Program Files/ETAS/ISOLAR-EVE3.5.0/plugins/com.etas.evetools.toolsfolder_3.5.5/Tools/MinGW/bin/../lib/gcc/i686-w64-mingw32/8.1.0\libstdc++.a(vmi_class_type_info.o)
 .rdata$_ZTSSt9exception
                0x00000000       0x10 C:/Program Files/ETAS/ISOLAR-EVE3.5.0/plugins/com.etas.evetools.toolsfolder_3.5.5/Tools/MinGW/bin/../lib/gcc/i686-w64-mingw32/8.1.0\libstdc++.a(vterminate.o)
 .rdata$_ZTISt9exception
                0x00000000        0x8 C:/Program Files/ETAS/ISOLAR-EVE3.5.0/plugins/com.etas.evetools.toolsfolder_3.5.5/Tools/MinGW/bin/../lib/gcc/i686-w64-mingw32/8.1.0\libstdc++.a(vterminate.o)
 .rdata$_ZTSSt9exception
                0x00000000       0x10 C:/Program Files/ETAS/ISOLAR-EVE3.5.0/plugins/com.etas.evetools.toolsfolder_3.5.5/Tools/MinGW/bin/../lib/gcc/i686-w64-mingw32/8.1.0\libstdc++.a(bad_alloc.o)
 .rdata$_ZTISt9exception
                0x00000000        0x8 C:/Program Files/ETAS/ISOLAR-EVE3.5.0/plugins/com.etas.evetools.toolsfolder_3.5.5/Tools/MinGW/bin/../lib/gcc/i686-w64-mingw32/8.1.0\libstdc++.a(bad_alloc.o)
 .rdata$_ZTSSt9bad_alloc
                0x00000000       0x10 C:/Program Files/ETAS/ISOLAR-EVE3.5.0/plugins/com.etas.evetools.toolsfolder_3.5.5/Tools/MinGW/bin/../lib/gcc/i686-w64-mingw32/8.1.0\libstdc++.a(bad_alloc.o)
 .rdata$_ZTISt9bad_alloc
                0x00000000        0xc C:/Program Files/ETAS/ISOLAR-EVE3.5.0/plugins/com.etas.evetools.toolsfolder_3.5.5/Tools/MinGW/bin/../lib/gcc/i686-w64-mingw32/8.1.0\libstdc++.a(bad_alloc.o)
 .rdata$_ZTSSt9exception
                0x00000000       0x10 C:/Program Files/ETAS/ISOLAR-EVE3.5.0/plugins/com.etas.evetools.toolsfolder_3.5.5/Tools/MinGW/bin/../lib/gcc/i686-w64-mingw32/8.1.0\libstdc++.a(bad_array_new.o)
 .rdata$_ZTISt9exception
                0x00000000        0x8 C:/Program Files/ETAS/ISOLAR-EVE3.5.0/plugins/com.etas.evetools.toolsfolder_3.5.5/Tools/MinGW/bin/../lib/gcc/i686-w64-mingw32/8.1.0\libstdc++.a(bad_array_new.o)
 .rdata$_ZTSSt9bad_alloc
                0x00000000       0x10 C:/Program Files/ETAS/ISOLAR-EVE3.5.0/plugins/com.etas.evetools.toolsfolder_3.5.5/Tools/MinGW/bin/../lib/gcc/i686-w64-mingw32/8.1.0\libstdc++.a(bad_array_new.o)
 .rdata$_ZTISt9bad_alloc
                0x00000000        0xc C:/Program Files/ETAS/ISOLAR-EVE3.5.0/plugins/com.etas.evetools.toolsfolder_3.5.5/Tools/MinGW/bin/../lib/gcc/i686-w64-mingw32/8.1.0\libstdc++.a(bad_array_new.o)
 .rdata$_ZTSSt20bad_array_new_length
                0x00000000       0x1c C:/Program Files/ETAS/ISOLAR-EVE3.5.0/plugins/com.etas.evetools.toolsfolder_3.5.5/Tools/MinGW/bin/../lib/gcc/i686-w64-mingw32/8.1.0\libstdc++.a(bad_array_new.o)
 .rdata$_ZTISt20bad_array_new_length
                0x00000000        0xc C:/Program Files/ETAS/ISOLAR-EVE3.5.0/plugins/com.etas.evetools.toolsfolder_3.5.5/Tools/MinGW/bin/../lib/gcc/i686-w64-mingw32/8.1.0\libstdc++.a(bad_array_new.o)
 .rdata$_ZTSSt9exception
                0x00000000       0x10 C:/Program Files/ETAS/ISOLAR-EVE3.5.0/plugins/com.etas.evetools.toolsfolder_3.5.5/Tools/MinGW/bin/../lib/gcc/i686-w64-mingw32/8.1.0\libstdc++.a(bad_cast.o)
 .rdata$_ZTISt9exception
                0x00000000        0x8 C:/Program Files/ETAS/ISOLAR-EVE3.5.0/plugins/com.etas.evetools.toolsfolder_3.5.5/Tools/MinGW/bin/../lib/gcc/i686-w64-mingw32/8.1.0\libstdc++.a(bad_cast.o)
 .rdata$_ZTSSt8bad_cast
                0x00000000        0xc C:/Program Files/ETAS/ISOLAR-EVE3.5.0/plugins/com.etas.evetools.toolsfolder_3.5.5/Tools/MinGW/bin/../lib/gcc/i686-w64-mingw32/8.1.0\libstdc++.a(bad_cast.o)
 .rdata$_ZTISt8bad_cast
                0x00000000        0xc C:/Program Files/ETAS/ISOLAR-EVE3.5.0/plugins/com.etas.evetools.toolsfolder_3.5.5/Tools/MinGW/bin/../lib/gcc/i686-w64-mingw32/8.1.0\libstdc++.a(bad_cast.o)
 .rdata$_ZTSSt9exception
                0x00000000       0x10 C:/Program Files/ETAS/ISOLAR-EVE3.5.0/plugins/com.etas.evetools.toolsfolder_3.5.5/Tools/MinGW/bin/../lib/gcc/i686-w64-mingw32/8.1.0\libstdc++.a(bad_typeid.o)
 .rdata$_ZTISt9exception
                0x00000000        0x8 C:/Program Files/ETAS/ISOLAR-EVE3.5.0/plugins/com.etas.evetools.toolsfolder_3.5.5/Tools/MinGW/bin/../lib/gcc/i686-w64-mingw32/8.1.0\libstdc++.a(bad_typeid.o)
 .rdata$_ZTSSt10bad_typeid
                0x00000000       0x10 C:/Program Files/ETAS/ISOLAR-EVE3.5.0/plugins/com.etas.evetools.toolsfolder_3.5.5/Tools/MinGW/bin/../lib/gcc/i686-w64-mingw32/8.1.0\libstdc++.a(bad_typeid.o)
 .rdata$_ZTISt10bad_typeid
                0x00000000        0xc C:/Program Files/ETAS/ISOLAR-EVE3.5.0/plugins/com.etas.evetools.toolsfolder_3.5.5/Tools/MinGW/bin/../lib/gcc/i686-w64-mingw32/8.1.0\libstdc++.a(bad_typeid.o)
 .rdata$_ZTSSt9exception
                0x00000000       0x10 C:/Program Files/ETAS/ISOLAR-EVE3.5.0/plugins/com.etas.evetools.toolsfolder_3.5.5/Tools/MinGW/bin/../lib/gcc/i686-w64-mingw32/8.1.0\libstdc++.a(eh_alloc.o)
 .rdata$_ZTISt9exception
                0x00000000        0x8 C:/Program Files/ETAS/ISOLAR-EVE3.5.0/plugins/com.etas.evetools.toolsfolder_3.5.5/Tools/MinGW/bin/../lib/gcc/i686-w64-mingw32/8.1.0\libstdc++.a(eh_alloc.o)
 .rdata$_ZTSSt9exception
                0x00000000       0x10 C:/Program Files/ETAS/ISOLAR-EVE3.5.0/plugins/com.etas.evetools.toolsfolder_3.5.5/Tools/MinGW/bin/../lib/gcc/i686-w64-mingw32/8.1.0\libstdc++.a(eh_exception.o)
 .rdata$_ZTISt9exception
                0x00000000        0x8 C:/Program Files/ETAS/ISOLAR-EVE3.5.0/plugins/com.etas.evetools.toolsfolder_3.5.5/Tools/MinGW/bin/../lib/gcc/i686-w64-mingw32/8.1.0\libstdc++.a(eh_exception.o)
 .rdata$_ZTSSt13bad_exception
                0x00000000       0x14 C:/Program Files/ETAS/ISOLAR-EVE3.5.0/plugins/com.etas.evetools.toolsfolder_3.5.5/Tools/MinGW/bin/../lib/gcc/i686-w64-mingw32/8.1.0\libstdc++.a(eh_exception.o)
 .rdata$_ZTISt13bad_exception
                0x00000000        0xc C:/Program Files/ETAS/ISOLAR-EVE3.5.0/plugins/com.etas.evetools.toolsfolder_3.5.5/Tools/MinGW/bin/../lib/gcc/i686-w64-mingw32/8.1.0\libstdc++.a(eh_exception.o)
 .rdata$_ZTSN10__cxxabiv115__forced_unwindE
                0x00000000       0x20 C:/Program Files/ETAS/ISOLAR-EVE3.5.0/plugins/com.etas.evetools.toolsfolder_3.5.5/Tools/MinGW/bin/../lib/gcc/i686-w64-mingw32/8.1.0\libstdc++.a(eh_exception.o)
 .rdata$_ZTIN10__cxxabiv115__forced_unwindE
                0x00000000        0x8 C:/Program Files/ETAS/ISOLAR-EVE3.5.0/plugins/com.etas.evetools.toolsfolder_3.5.5/Tools/MinGW/bin/../lib/gcc/i686-w64-mingw32/8.1.0\libstdc++.a(eh_exception.o)
 .rdata$_ZTSN10__cxxabiv119__foreign_exceptionE
                0x00000000       0x40 C:/Program Files/ETAS/ISOLAR-EVE3.5.0/plugins/com.etas.evetools.toolsfolder_3.5.5/Tools/MinGW/bin/../lib/gcc/i686-w64-mingw32/8.1.0\libstdc++.a(eh_exception.o)
 .rdata$_ZTIN10__cxxabiv119__foreign_exceptionE
                0x00000000        0x8 C:/Program Files/ETAS/ISOLAR-EVE3.5.0/plugins/com.etas.evetools.toolsfolder_3.5.5/Tools/MinGW/bin/../lib/gcc/i686-w64-mingw32/8.1.0\libstdc++.a(eh_exception.o)
 .drectve       0x00000000       0x50 C:/Program Files/ETAS/ISOLAR-EVE3.5.0/plugins/com.etas.evetools.toolsfolder_3.5.5/Tools/MinGW/bin/../lib/gcc/i686-w64-mingw32/8.1.0/../../../../i686-w64-mingw32/lib/../lib/libmingw32.a(lib32_libmingw32_a-natstart.o)
 .drectve       0x00000000       0x3c C:/Program Files/ETAS/ISOLAR-EVE3.5.0/plugins/com.etas.evetools.toolsfolder_3.5.5/Tools/MinGW/bin/../lib/gcc/i686-w64-mingw32/8.1.0/libgcc.a(_ctors.o)
 .text          0x00000000        0x8 C:/Program Files/ETAS/ISOLAR-EVE3.5.0/plugins/com.etas.evetools.toolsfolder_3.5.5/Tools/MinGW/bin/../lib/gcc/i686-w64-mingw32/8.1.0/../../../../i686-w64-mingw32/lib/../lib/libmsvcrt.a(dwbes00068.o)
 .text          0x00000000        0x8 C:/Program Files/ETAS/ISOLAR-EVE3.5.0/plugins/com.etas.evetools.toolsfolder_3.5.5/Tools/MinGW/bin/../lib/gcc/i686-w64-mingw32/8.1.0/../../../../i686-w64-mingw32/lib/../lib/libuser32.a(dmces00588.o)
 .text          0x00000000        0x8 C:/Program Files/ETAS/ISOLAR-EVE3.5.0/plugins/com.etas.evetools.toolsfolder_3.5.5/Tools/MinGW/bin/../lib/gcc/i686-w64-mingw32/8.1.0/../../../../i686-w64-mingw32/lib/../lib/libkernel32.a(dgzcs01255.o)
 .text          0x00000000        0x8 C:/Program Files/ETAS/ISOLAR-EVE3.5.0/plugins/com.etas.evetools.toolsfolder_3.5.5/Tools/MinGW/bin/../lib/gcc/i686-w64-mingw32/8.1.0/../../../../i686-w64-mingw32/lib/../lib/libkernel32.a(dgzcs01246.o)
 .text          0x00000000        0x8 C:/Program Files/ETAS/ISOLAR-EVE3.5.0/plugins/com.etas.evetools.toolsfolder_3.5.5/Tools/MinGW/bin/../lib/gcc/i686-w64-mingw32/8.1.0/../../../../i686-w64-mingw32/lib/../lib/libkernel32.a(dgzcs01243.o)
 .text          0x00000000        0x8 C:/Program Files/ETAS/ISOLAR-EVE3.5.0/plugins/com.etas.evetools.toolsfolder_3.5.5/Tools/MinGW/bin/../lib/gcc/i686-w64-mingw32/8.1.0/../../../../i686-w64-mingw32/lib/../lib/libkernel32.a(dgzcs01210.o)
 .text          0x00000000        0x8 C:/Program Files/ETAS/ISOLAR-EVE3.5.0/plugins/com.etas.evetools.toolsfolder_3.5.5/Tools/MinGW/bin/../lib/gcc/i686-w64-mingw32/8.1.0/../../../../i686-w64-mingw32/lib/../lib/libkernel32.a(dgzcs01198.o)
 .text          0x00000000        0x8 C:/Program Files/ETAS/ISOLAR-EVE3.5.0/plugins/com.etas.evetools.toolsfolder_3.5.5/Tools/MinGW/bin/../lib/gcc/i686-w64-mingw32/8.1.0/../../../../i686-w64-mingw32/lib/../lib/libkernel32.a(dgzcs01197.o)
 .text          0x00000000        0x8 C:/Program Files/ETAS/ISOLAR-EVE3.5.0/plugins/com.etas.evetools.toolsfolder_3.5.5/Tools/MinGW/bin/../lib/gcc/i686-w64-mingw32/8.1.0/../../../../i686-w64-mingw32/lib/../lib/libkernel32.a(dgzcs01196.o)
 .text          0x00000000        0x8 C:/Program Files/ETAS/ISOLAR-EVE3.5.0/plugins/com.etas.evetools.toolsfolder_3.5.5/Tools/MinGW/bin/../lib/gcc/i686-w64-mingw32/8.1.0/../../../../i686-w64-mingw32/lib/../lib/libkernel32.a(dgzcs01195.o)
 .text          0x00000000        0x8 C:/Program Files/ETAS/ISOLAR-EVE3.5.0/plugins/com.etas.evetools.toolsfolder_3.5.5/Tools/MinGW/bin/../lib/gcc/i686-w64-mingw32/8.1.0/../../../../i686-w64-mingw32/lib/../lib/libkernel32.a(dgzcs01190.o)
 .text          0x00000000        0x8 C:/Program Files/ETAS/ISOLAR-EVE3.5.0/plugins/com.etas.evetools.toolsfolder_3.5.5/Tools/MinGW/bin/../lib/gcc/i686-w64-mingw32/8.1.0/../../../../i686-w64-mingw32/lib/../lib/libkernel32.a(dgzcs01186.o)
 .text          0x00000000        0x8 C:/Program Files/ETAS/ISOLAR-EVE3.5.0/plugins/com.etas.evetools.toolsfolder_3.5.5/Tools/MinGW/bin/../lib/gcc/i686-w64-mingw32/8.1.0/../../../../i686-w64-mingw32/lib/../lib/libkernel32.a(dgzcs01176.o)
 .text          0x00000000        0x8 C:/Program Files/ETAS/ISOLAR-EVE3.5.0/plugins/com.etas.evetools.toolsfolder_3.5.5/Tools/MinGW/bin/../lib/gcc/i686-w64-mingw32/8.1.0/../../../../i686-w64-mingw32/lib/../lib/libkernel32.a(dgzcs01163.o)
 .text          0x00000000        0x8 C:/Program Files/ETAS/ISOLAR-EVE3.5.0/plugins/com.etas.evetools.toolsfolder_3.5.5/Tools/MinGW/bin/../lib/gcc/i686-w64-mingw32/8.1.0/../../../../i686-w64-mingw32/lib/../lib/libkernel32.a(dgzcs01114.o)
 .text          0x00000000        0x8 C:/Program Files/ETAS/ISOLAR-EVE3.5.0/plugins/com.etas.evetools.toolsfolder_3.5.5/Tools/MinGW/bin/../lib/gcc/i686-w64-mingw32/8.1.0/../../../../i686-w64-mingw32/lib/../lib/libkernel32.a(dgzcs00997.o)
 .text          0x00000000        0x8 C:/Program Files/ETAS/ISOLAR-EVE3.5.0/plugins/com.etas.evetools.toolsfolder_3.5.5/Tools/MinGW/bin/../lib/gcc/i686-w64-mingw32/8.1.0/../../../../i686-w64-mingw32/lib/../lib/libkernel32.a(dgzcs00993.o)
 .text          0x00000000        0x8 C:/Program Files/ETAS/ISOLAR-EVE3.5.0/plugins/com.etas.evetools.toolsfolder_3.5.5/Tools/MinGW/bin/../lib/gcc/i686-w64-mingw32/8.1.0/../../../../i686-w64-mingw32/lib/../lib/libkernel32.a(dgzcs00950.o)
 .text          0x00000000        0x8 C:/Program Files/ETAS/ISOLAR-EVE3.5.0/plugins/com.etas.evetools.toolsfolder_3.5.5/Tools/MinGW/bin/../lib/gcc/i686-w64-mingw32/8.1.0/../../../../i686-w64-mingw32/lib/../lib/libkernel32.a(dgzcs00949.o)
 .text          0x00000000        0x8 C:/Program Files/ETAS/ISOLAR-EVE3.5.0/plugins/com.etas.evetools.toolsfolder_3.5.5/Tools/MinGW/bin/../lib/gcc/i686-w64-mingw32/8.1.0/../../../../i686-w64-mingw32/lib/../lib/libkernel32.a(dgzcs00866.o)
 .text          0x00000000        0x8 C:/Program Files/ETAS/ISOLAR-EVE3.5.0/plugins/com.etas.evetools.toolsfolder_3.5.5/Tools/MinGW/bin/../lib/gcc/i686-w64-mingw32/8.1.0/../../../../i686-w64-mingw32/lib/../lib/libkernel32.a(dgzcs00839.o)
 .text          0x00000000        0x8 C:/Program Files/ETAS/ISOLAR-EVE3.5.0/plugins/com.etas.evetools.toolsfolder_3.5.5/Tools/MinGW/bin/../lib/gcc/i686-w64-mingw32/8.1.0/../../../../i686-w64-mingw32/lib/../lib/libkernel32.a(dgzcs00836.o)
 .text          0x00000000        0x8 C:/Program Files/ETAS/ISOLAR-EVE3.5.0/plugins/com.etas.evetools.toolsfolder_3.5.5/Tools/MinGW/bin/../lib/gcc/i686-w64-mingw32/8.1.0/../../../../i686-w64-mingw32/lib/../lib/libkernel32.a(dgzcs00750.o)
 .text          0x00000000        0x8 C:/Program Files/ETAS/ISOLAR-EVE3.5.0/plugins/com.etas.evetools.toolsfolder_3.5.5/Tools/MinGW/bin/../lib/gcc/i686-w64-mingw32/8.1.0/../../../../i686-w64-mingw32/lib/../lib/libkernel32.a(dgzcs00666.o)
 .text          0x00000000        0x8 C:/Program Files/ETAS/ISOLAR-EVE3.5.0/plugins/com.etas.evetools.toolsfolder_3.5.5/Tools/MinGW/bin/../lib/gcc/i686-w64-mingw32/8.1.0/../../../../i686-w64-mingw32/lib/../lib/libkernel32.a(dgzcs00638.o)
 .text          0x00000000        0x8 C:/Program Files/ETAS/ISOLAR-EVE3.5.0/plugins/com.etas.evetools.toolsfolder_3.5.5/Tools/MinGW/bin/../lib/gcc/i686-w64-mingw32/8.1.0/../../../../i686-w64-mingw32/lib/../lib/libkernel32.a(dgzcs00615.o)
 .text          0x00000000        0x8 C:/Program Files/ETAS/ISOLAR-EVE3.5.0/plugins/com.etas.evetools.toolsfolder_3.5.5/Tools/MinGW/bin/../lib/gcc/i686-w64-mingw32/8.1.0/../../../../i686-w64-mingw32/lib/../lib/libkernel32.a(dgzcs00584.o)
 .text          0x00000000        0x8 C:/Program Files/ETAS/ISOLAR-EVE3.5.0/plugins/com.etas.evetools.toolsfolder_3.5.5/Tools/MinGW/bin/../lib/gcc/i686-w64-mingw32/8.1.0/../../../../i686-w64-mingw32/lib/../lib/libkernel32.a(dgzcs00536.o)
 .text          0x00000000        0x8 C:/Program Files/ETAS/ISOLAR-EVE3.5.0/plugins/com.etas.evetools.toolsfolder_3.5.5/Tools/MinGW/bin/../lib/gcc/i686-w64-mingw32/8.1.0/../../../../i686-w64-mingw32/lib/../lib/libkernel32.a(dgzcs00518.o)
 .text          0x00000000        0x8 C:/Program Files/ETAS/ISOLAR-EVE3.5.0/plugins/com.etas.evetools.toolsfolder_3.5.5/Tools/MinGW/bin/../lib/gcc/i686-w64-mingw32/8.1.0/../../../../i686-w64-mingw32/lib/../lib/libkernel32.a(dgzcs00482.o)
 .text          0x00000000        0x8 C:/Program Files/ETAS/ISOLAR-EVE3.5.0/plugins/com.etas.evetools.toolsfolder_3.5.5/Tools/MinGW/bin/../lib/gcc/i686-w64-mingw32/8.1.0/../../../../i686-w64-mingw32/lib/../lib/libkernel32.a(dgzcs00460.o)
 .text          0x00000000        0x8 C:/Program Files/ETAS/ISOLAR-EVE3.5.0/plugins/com.etas.evetools.toolsfolder_3.5.5/Tools/MinGW/bin/../lib/gcc/i686-w64-mingw32/8.1.0/../../../../i686-w64-mingw32/lib/../lib/libkernel32.a(dgzcs00456.o)
 .text          0x00000000        0x8 C:/Program Files/ETAS/ISOLAR-EVE3.5.0/plugins/com.etas.evetools.toolsfolder_3.5.5/Tools/MinGW/bin/../lib/gcc/i686-w64-mingw32/8.1.0/../../../../i686-w64-mingw32/lib/../lib/libkernel32.a(dgzcs00455.o)
 .text          0x00000000        0x8 C:/Program Files/ETAS/ISOLAR-EVE3.5.0/plugins/com.etas.evetools.toolsfolder_3.5.5/Tools/MinGW/bin/../lib/gcc/i686-w64-mingw32/8.1.0/../../../../i686-w64-mingw32/lib/../lib/libkernel32.a(dgzcs00359.o)
 .text          0x00000000        0x8 C:/Program Files/ETAS/ISOLAR-EVE3.5.0/plugins/com.etas.evetools.toolsfolder_3.5.5/Tools/MinGW/bin/../lib/gcc/i686-w64-mingw32/8.1.0/../../../../i686-w64-mingw32/lib/../lib/libkernel32.a(dgzcs00354.o)
 .text          0x00000000        0x8 C:/Program Files/ETAS/ISOLAR-EVE3.5.0/plugins/com.etas.evetools.toolsfolder_3.5.5/Tools/MinGW/bin/../lib/gcc/i686-w64-mingw32/8.1.0/../../../../i686-w64-mingw32/lib/../lib/libkernel32.a(dgzcs00286.o)
 .text          0x00000000        0x8 C:/Program Files/ETAS/ISOLAR-EVE3.5.0/plugins/com.etas.evetools.toolsfolder_3.5.5/Tools/MinGW/bin/../lib/gcc/i686-w64-mingw32/8.1.0/../../../../i686-w64-mingw32/lib/../lib/libkernel32.a(dgzcs00242.o)
 .text          0x00000000        0x8 C:/Program Files/ETAS/ISOLAR-EVE3.5.0/plugins/com.etas.evetools.toolsfolder_3.5.5/Tools/MinGW/bin/../lib/gcc/i686-w64-mingw32/8.1.0/../../../../i686-w64-mingw32/lib/../lib/libkernel32.a(dgzcs00214.o)
 .text          0x00000000        0x8 C:/Program Files/ETAS/ISOLAR-EVE3.5.0/plugins/com.etas.evetools.toolsfolder_3.5.5/Tools/MinGW/bin/../lib/gcc/i686-w64-mingw32/8.1.0/../../../../i686-w64-mingw32/lib/../lib/libkernel32.a(dgzcs00178.o)
 .text          0x00000000        0x8 C:/Program Files/ETAS/ISOLAR-EVE3.5.0/plugins/com.etas.evetools.toolsfolder_3.5.5/Tools/MinGW/bin/../lib/gcc/i686-w64-mingw32/8.1.0/../../../../i686-w64-mingw32/lib/../lib/libkernel32.a(dgzcs00175.o)
 .text          0x00000000        0x8 C:/Program Files/ETAS/ISOLAR-EVE3.5.0/plugins/com.etas.evetools.toolsfolder_3.5.5/Tools/MinGW/bin/../lib/gcc/i686-w64-mingw32/8.1.0/../../../../i686-w64-mingw32/lib/../lib/libkernel32.a(dgzcs00159.o)
 .text          0x00000000        0x8 C:/Program Files/ETAS/ISOLAR-EVE3.5.0/plugins/com.etas.evetools.toolsfolder_3.5.5/Tools/MinGW/bin/../lib/gcc/i686-w64-mingw32/8.1.0/../../../../i686-w64-mingw32/lib/../lib/libkernel32.a(dgzcs00140.o)
 .text          0x00000000        0x8 C:/Program Files/ETAS/ISOLAR-EVE3.5.0/plugins/com.etas.evetools.toolsfolder_3.5.5/Tools/MinGW/bin/../lib/gcc/i686-w64-mingw32/8.1.0/../../../../i686-w64-mingw32/lib/../lib/libkernel32.a(dgzcs00083.o)

Memory Configuration

Name             Origin             Length             Attributes
*default*        0x00000000         0xffffffff

Linker script and memory map

                0x00400000                __image_base__ = 0x400000
                0x00000000                __dll__ = 0x0
                0x00400000                ___ImageBase = 0x400000
                0x00001000                __section_alignment__ = 0x1000
                0x00000200                __file_alignment__ = 0x200
                0x00000004                __major_os_version__ = 0x4
                0x00000000                __minor_os_version__ = 0x0
                0x00000001                __major_image_version__ = 0x1
                0x00000000                __minor_image_version__ = 0x0
                0x00000004                __major_subsystem_version__ = 0x4
                0x00000000                __minor_subsystem_version__ = 0x0
                0x00000003                __subsystem__ = 0x3
                0x00200000                __size_of_stack_reserve__ = 0x200000
                0x00001000                __size_of_stack_commit__ = 0x1000
                0x00100000                __size_of_heap_reserve__ = 0x100000
                0x00001000                __size_of_heap_commit__ = 0x1000
                0x00000000                __loader_flags__ = 0x0
                0x00000000                __dll_characteristics__ = 0x0
LOAD C:/Program Files/ETAS/ISOLAR-EVE3.5.0/plugins/com.etas.evetools.toolsfolder_3.5.5/Tools/MinGW/bin/../lib/gcc/i686-w64-mingw32/8.1.0/../../../../i686-w64-mingw32/lib/../lib/crt2.o
LOAD C:/Program Files/ETAS/ISOLAR-EVE3.5.0/plugins/com.etas.evetools.toolsfolder_3.5.5/Tools/MinGW/bin/../lib/gcc/i686-w64-mingw32/8.1.0/crtbegin.o
LOAD BswTasks.o
LOAD EVE_SystemClock.o
LOAD main.o
LOAD Os_ErrorHook.o
LOAD Os_Hooks.o
LOAD OsTask_0.o
LOAD OsTask_04.o
LOAD OsTask_1.o
LOAD OsTask_10.o
LOAD OsTask_11.o
LOAD OsTask_12.o
LOAD OsTask_13.o
LOAD OsTask_14.o
LOAD OsTask_15.o
LOAD OsTask_16.o
LOAD OsTask_18.o
LOAD OsTask_19.o
LOAD OsTask_2.o
LOAD OsTask_20.o
LOAD OsTask_21.o
LOAD OsTask_22.o
LOAD OsTask_23.o
LOAD OsTask_24.o
LOAD OsTask_25.o
LOAD OsTask_26.o
LOAD OsTask_3.o
LOAD OsTask_5.o
LOAD OsTask_6.o
LOAD OsTask_7.o
LOAD OsTask_8.o
LOAD Rte.o
LOAD Rte_AccelControlAPP.o
LOAD Rte_AccelPedalSen.o
LOAD Rte_ACT_HYDRAULIC_MODULATOR_FRONTL_COMP.o
LOAD Rte_ACT_HYDRAULIC_MODULATOR_FRONTR_COMP.o
LOAD Rte_ACT_HYDRAULIC_MODULATOR_REARL_COMP.o
LOAD Rte_ACT_HYDRAULIC_MODULATOR_REARR_COMP.o
LOAD Rte_ACT_MOTOR_COMP.o
LOAD Rte_APP_BRAKE_CONTROLL_COMP.o
LOAD Rte_APP_MOTOR_COMP.o
LOAD Rte_AvgSpeed.o
LOAD Rte_BrakePedalSen.o
LOAD Rte_Cylinder_Sen.o
LOAD Rte_ECU_ABS.o
LOAD Rte_Engine_Cycle_ACT.o
LOAD Rte_Engine_Gear_ACT.o
LOAD Rte_EngineApp.o
LOAD Rte_GearModeSen.o
LOAD Rte_Lib.o
LOAD Rte_SEN_BATT_COMP.o
LOAD Rte_SpeedSen.o
LOAD startVecu.o
LOAD target.o
LOAD VECU_SystemClock_ISR.o
LOAD virtualdevices.o
LOAD Vrta_Cfg.o
LOAD RTAOS.lib
LOAD C:/Program Files/ETAS/ISOLAR-EVE3.5.0/plugins/com.etas.evetools.toolsfolder_3.5.5/Tools/MinGW/bin/../lib/gcc/i686-w64-mingw32/8.1.0/../../../../i686-w64-mingw32/lib/../lib/libwinmm.a
LOAD C:/Program Files/ETAS/ISOLAR-EVE3.5.0/plugins/com.etas.evetools.toolsfolder_3.5.5/Tools/MinGW/bin/../lib/gcc/i686-w64-mingw32/8.1.0/../../../../i686-w64-mingw32/lib/../lib/libws2_32.a
LOAD C:/Program Files/ETAS/ISOLAR-EVE3.5.0/plugins/com.etas.evetools.toolsfolder_3.5.5/Tools/MinGW/bin/../lib/gcc/i686-w64-mingw32/8.1.0\libstdc++.a
LOAD C:/Program Files/ETAS/ISOLAR-EVE3.5.0/plugins/com.etas.evetools.toolsfolder_3.5.5/Tools/MinGW/bin/../lib/gcc/i686-w64-mingw32/8.1.0/../../../../i686-w64-mingw32/lib/../lib/libmingw32.a
LOAD C:/Program Files/ETAS/ISOLAR-EVE3.5.0/plugins/com.etas.evetools.toolsfolder_3.5.5/Tools/MinGW/bin/../lib/gcc/i686-w64-mingw32/8.1.0/libgcc.a
LOAD C:/Program Files/ETAS/ISOLAR-EVE3.5.0/plugins/com.etas.evetools.toolsfolder_3.5.5/Tools/MinGW/bin/../lib/gcc/i686-w64-mingw32/8.1.0/libgcc_eh.a
LOAD C:/Program Files/ETAS/ISOLAR-EVE3.5.0/plugins/com.etas.evetools.toolsfolder_3.5.5/Tools/MinGW/bin/../lib/gcc/i686-w64-mingw32/8.1.0/../../../../i686-w64-mingw32/lib/../lib/libmoldname.a
LOAD C:/Program Files/ETAS/ISOLAR-EVE3.5.0/plugins/com.etas.evetools.toolsfolder_3.5.5/Tools/MinGW/bin/../lib/gcc/i686-w64-mingw32/8.1.0/../../../../i686-w64-mingw32/lib/../lib/libmingwex.a
LOAD C:/Program Files/ETAS/ISOLAR-EVE3.5.0/plugins/com.etas.evetools.toolsfolder_3.5.5/Tools/MinGW/bin/../lib/gcc/i686-w64-mingw32/8.1.0/../../../../i686-w64-mingw32/lib/../lib/libmsvcrt.a
LOAD C:/Program Files/ETAS/ISOLAR-EVE3.5.0/plugins/com.etas.evetools.toolsfolder_3.5.5/Tools/MinGW/bin/../lib/gcc/i686-w64-mingw32/8.1.0/../../../../i686-w64-mingw32/lib/../lib/libadvapi32.a
LOAD C:/Program Files/ETAS/ISOLAR-EVE3.5.0/plugins/com.etas.evetools.toolsfolder_3.5.5/Tools/MinGW/bin/../lib/gcc/i686-w64-mingw32/8.1.0/../../../../i686-w64-mingw32/lib/../lib/libshell32.a
LOAD C:/Program Files/ETAS/ISOLAR-EVE3.5.0/plugins/com.etas.evetools.toolsfolder_3.5.5/Tools/MinGW/bin/../lib/gcc/i686-w64-mingw32/8.1.0/../../../../i686-w64-mingw32/lib/../lib/libuser32.a
LOAD C:/Program Files/ETAS/ISOLAR-EVE3.5.0/plugins/com.etas.evetools.toolsfolder_3.5.5/Tools/MinGW/bin/../lib/gcc/i686-w64-mingw32/8.1.0/../../../../i686-w64-mingw32/lib/../lib/libkernel32.a
LOAD C:/Program Files/ETAS/ISOLAR-EVE3.5.0/plugins/com.etas.evetools.toolsfolder_3.5.5/Tools/MinGW/bin/../lib/gcc/i686-w64-mingw32/8.1.0/../../../../i686-w64-mingw32/lib/../lib/libiconv.a
LOAD C:/Program Files/ETAS/ISOLAR-EVE3.5.0/plugins/com.etas.evetools.toolsfolder_3.5.5/Tools/MinGW/bin/../lib/gcc/i686-w64-mingw32/8.1.0/../../../../i686-w64-mingw32/lib/../lib/libmingw32.a
LOAD C:/Program Files/ETAS/ISOLAR-EVE3.5.0/plugins/com.etas.evetools.toolsfolder_3.5.5/Tools/MinGW/bin/../lib/gcc/i686-w64-mingw32/8.1.0/libgcc.a
LOAD C:/Program Files/ETAS/ISOLAR-EVE3.5.0/plugins/com.etas.evetools.toolsfolder_3.5.5/Tools/MinGW/bin/../lib/gcc/i686-w64-mingw32/8.1.0/libgcc_eh.a
LOAD C:/Program Files/ETAS/ISOLAR-EVE3.5.0/plugins/com.etas.evetools.toolsfolder_3.5.5/Tools/MinGW/bin/../lib/gcc/i686-w64-mingw32/8.1.0/../../../../i686-w64-mingw32/lib/../lib/libmoldname.a
LOAD C:/Program Files/ETAS/ISOLAR-EVE3.5.0/plugins/com.etas.evetools.toolsfolder_3.5.5/Tools/MinGW/bin/../lib/gcc/i686-w64-mingw32/8.1.0/../../../../i686-w64-mingw32/lib/../lib/libmingwex.a
LOAD C:/Program Files/ETAS/ISOLAR-EVE3.5.0/plugins/com.etas.evetools.toolsfolder_3.5.5/Tools/MinGW/bin/../lib/gcc/i686-w64-mingw32/8.1.0/../../../../i686-w64-mingw32/lib/../lib/libmsvcrt.a
LOAD C:/Program Files/ETAS/ISOLAR-EVE3.5.0/plugins/com.etas.evetools.toolsfolder_3.5.5/Tools/MinGW/bin/../lib/gcc/i686-w64-mingw32/8.1.0/crtend.o
                0x000003f8                . = SIZEOF_HEADERS
                0x00001000                . = ALIGN (__section_alignment__)

.text           0x00401000    0x23000
 *(.init)
 *(.text)
 .text          0x00401000      0x4e0 C:/Program Files/ETAS/ISOLAR-EVE3.5.0/plugins/com.etas.evetools.toolsfolder_3.5.5/Tools/MinGW/bin/../lib/gcc/i686-w64-mingw32/8.1.0/../../../../i686-w64-mingw32/lib/../lib/crt2.o
                0x00401480                WinMainCRTStartup
                0x004014a0                mainCRTStartup
                0x004014c0                atexit
 .text          0x004014e0       0xe0 C:/Program Files/ETAS/ISOLAR-EVE3.5.0/plugins/com.etas.evetools.toolsfolder_3.5.5/Tools/MinGW/bin/../lib/gcc/i686-w64-mingw32/8.1.0/crtbegin.o
                0x004014e0                __gcc_register_frame
                0x00401590                __gcc_deregister_frame
 .text          0x004015c0        0x0 BswTasks.o
 .text          0x004015c0      0x1a8 EVE_SystemClock.o
                0x004015c0                VECU_SystemClock_Init
                0x0040162d                VECU_SystemClock_Start
                0x00401672                VECU_SystemClock_GetValue
 .text          0x00401768       0x50 main.o
                0x00401768                StartAUTOSAR
                0x004017a3                vrta_app_main
 .text          0x004017b8       0x3c Os_ErrorHook.o
                0x004017b8                ErrorHook
 .text          0x004017f4       0x7c Os_Hooks.o
                0x004017f4                StartupHook
                0x00401802                ShutdownHook
                0x00401811                Os_Cbk_Idle
                0x0040184a                Os_Cbk_GetStopwatch
                0x0040185d                Os_Cbk_CheckMemoryAccess
 .text          0x00401870      0x3d4 OsTask_0.o
                0x00401870                Os_Entry_OsTask_0
 .text          0x00401c44       0x28 OsTask_04.o
                0x00401c44                Os_Entry_OsTask_04
 .text          0x00401c6c       0x28 OsTask_1.o
                0x00401c6c                Os_Entry_OsTask_1
 .text          0x00401c94       0x28 OsTask_10.o
                0x00401c94                Os_Entry_OsTask_10
 .text          0x00401cbc       0x28 OsTask_11.o
                0x00401cbc                Os_Entry_OsTask_11
 .text          0x00401ce4       0x28 OsTask_12.o
                0x00401ce4                Os_Entry_OsTask_12
 .text          0x00401d0c       0x14 OsTask_13.o
                0x00401d0c                Os_Entry_OsTask_13
 .text          0x00401d20       0x28 OsTask_14.o
                0x00401d20                Os_Entry_OsTask_14
 .text          0x00401d48       0x30 OsTask_15.o
                0x00401d48                Os_Entry_OsTask_15
 .text          0x00401d78       0x28 OsTask_16.o
                0x00401d78                Os_Entry_OsTask_16
 .text          0x00401da0       0x14 OsTask_18.o
                0x00401da0                Os_Entry_OsTask_18
 .text          0x00401db4       0x28 OsTask_19.o
                0x00401db4                Os_Entry_OsTask_19
 .text          0x00401ddc       0x14 OsTask_2.o
                0x00401ddc                Os_Entry_OsTask_2
 .text          0x00401df0       0x28 OsTask_20.o
                0x00401df0                Os_Entry_OsTask_20
 .text          0x00401e18       0x28 OsTask_21.o
                0x00401e18                Os_Entry_OsTask_21
 .text          0x00401e40       0x28 OsTask_22.o
                0x00401e40                Os_Entry_OsTask_22
 .text          0x00401e68       0x28 OsTask_23.o
                0x00401e68                Os_Entry_OsTask_23
 .text          0x00401e90       0x28 OsTask_24.o
                0x00401e90                Os_Entry_OsTask_24
 .text          0x00401eb8       0x28 OsTask_25.o
                0x00401eb8                Os_Entry_OsTask_25
 .text          0x00401ee0       0x14 OsTask_26.o
                0x00401ee0                Os_Entry_OsTask_26
 .text          0x00401ef4       0x28 OsTask_3.o
                0x00401ef4                Os_Entry_OsTask_3
 .text          0x00401f1c       0x28 OsTask_5.o
                0x00401f1c                Os_Entry_OsTask_5
 .text          0x00401f44       0x28 OsTask_6.o
                0x00401f44                Os_Entry_OsTask_6
 .text          0x00401f6c       0x28 OsTask_7.o
                0x00401f6c                Os_Entry_OsTask_7
 .text          0x00401f94       0x28 OsTask_8.o
                0x00401f94                Os_Entry_OsTask_8
 .text          0x00401fbc      0xac8 Rte.o
                0x00401fbc                Rte_Call_ACT_HYDRAULIC_MODULATOR_FRONTL_COMP_ACT_HM_FL_Client_set_E_op
                0x00402010                Rte_DRead_ACT_HYDRAULIC_MODULATOR_FRONTL_COMP_ACT_HM_FL_Recv_modedata
                0x00402026                Rte_Call_ACT_HYDRAULIC_MODULATOR_FRONTR_COMP_ACT_HM_FR_Client_set_E_op
                0x0040207a                Rte_DRead_ACT_HYDRAULIC_MODULATOR_FRONTR_COMP_ACT_HM_FR_Recv_modedata
                0x00402090                Rte_Call_ACT_HYDRAULIC_MODULATOR_REARL_COMP_ACT_HM_RL_Client_set_E_op
                0x004020e4                Rte_DRead_ACT_HYDRAULIC_MODULATOR_REARL_COMP_ACT_HM_RL_Recv_modedata
                0x004020fa                Rte_Call_ACT_HYDRAULIC_MODULATOR_REARR_COMP_ACT_HM_RR_Client_set_E_op
                0x0040214e                Rte_DRead_ACT_HYDRAULIC_MODULATOR_REARR_COMP_ACT_HM_RR_Recv_modedata
                0x00402164                Rte_Call_ACT_MOTOR_COMP_CS_MOTOR_Client_motor_act_op
                0x004021b8                Rte_DRead_ACT_MOTOR_COMP_SR_MOTOR_SPEED_Recv_motor_speed_data
                0x004021cf                Rte_DRead_APP_BRAKE_CONTROLL_COMP_APP_Speed_Receive_backleft
                0x004021ed                Rte_DRead_APP_BRAKE_CONTROLL_COMP_APP_Speed_Receive_backright
                0x0040220b                Rte_DRead_APP_BRAKE_CONTROLL_COMP_APP_Speed_Receive_frontleft
                0x00402229                Rte_DRead_APP_BRAKE_CONTROLL_COMP_APP_Speed_Receive_frontright
                0x00402247                Rte_Write_APP_BRAKE_CONTROLL_COMP_APP_FL_Mode_Send_modedata
                0x00402286                Rte_Write_APP_BRAKE_CONTROLL_COMP_APP_FR_Mode_Send_modedata
                0x004022c5                Rte_Write_APP_BRAKE_CONTROLL_COMP_APP_RL_Mode_Send_modedata
                0x00402304                Rte_Write_APP_BRAKE_CONTROLL_COMP_APP_RR_Mode_Send_modedata
                0x00402343                Rte_DRead_APP_MOTOR_COMP_SR_BATT_Recv_batt_data
                0x00402359                Rte_DRead_APP_MOTOR_COMP_SR_PWM_Recv_pwm_data
                0x0040236f                Rte_Trigger_APP_MOTOR_COMP_TR_BATT_LOW_set_low
                0x0040238b                Rte_Trigger_APP_MOTOR_COMP_TR_BATT_LOW_set_normal
                0x004023a7                Rte_Write_APP_MOTOR_COMP_SR_MOTOR_SPEED_Send_motor_speed_data
                0x004023c8                Rte_DRead_AccelControlAPP_R_Accel_accel_value
                0x004023de                Rte_DRead_AccelControlAPP_R_AvgSpeed_avg_speed_data
                0x004023f2                Rte_DRead_AccelControlAPP_R_Brake_brake_value
                0x00402408                Rte_DRead_AccelControlAPP_R_Gear_gear_value
                0x0040241e                Rte_Write_AccelControlAPP_P_EnginePower_powerValue
                0x0040243f                Rte_Write_AccelControlAPP_P_PWM_pwm_data
                0x0040245e                Rte_Call_AccelPedalSen_RPort_get_AccelPedal_Status
                0x004024b2                Rte_Write_AccelPedalSen_toApp_PPort_accel_value
                0x004024d1                Rte_DRead_AvgSpeed_R_4speeds_backleft
                0x004024ef                Rte_DRead_AvgSpeed_R_4speeds_backright
                0x0040250d                Rte_DRead_AvgSpeed_R_4speeds_frontleft
                0x0040252b                Rte_DRead_AvgSpeed_R_4speeds_frontright
                0x00402549                Rte_Write_AvgSpeed_P_avg_speed_avg_speed_data
                0x0040256e                Rte_Call_BrakePedalSen_RPort_get_BrakePedal_Status
                0x004025c2                Rte_Write_BrakePedalSen_toApp_PPort_brake_value
                0x004025e1                Rte_Call_Cylinder_Sen_Rport_get_cylinder_Status
                0x00402640                Rte_Write_Cylinder_Sen_Pport_pressure
                0x00402659                Rte_Write_Cylinder_Sen_Pport_temperature
                0x00402672                Rte_DRead_EngineApp_Cylinder_Rport_pressure
                0x00402686                Rte_DRead_EngineApp_Cylinder_Rport_temperature
                0x0040269a                Rte_DRead_EngineApp_Power_Rport_powerValue
                0x004026b1                Rte_Trigger_EngineApp_PhyGear_Pport_level1
                0x004026ce                Rte_Trigger_EngineApp_PhyGear_Pport_level2
                0x004026eb                Rte_Trigger_EngineApp_PhyGear_Pport_level3
                0x00402708                Rte_Write_EngineApp_CycleData_Pport_infoArray
                0x0040272c                Rte_Call_Engine_Cycle_ACT_Engine_Cleintport_set_engine
                0x00402798                Rte_Read_Engine_Cycle_ACT_CycleData_Rport_infoArray
                0x004027bd                Rte_Call_Engine_Gear_ACT_phyGear_relayPport_set_phygear
                0x0040280f                Rte_Call_GearModeSen_RPort_get_Gear_Mode
                0x00402863                Rte_Write_GearModeSen_toApp_PPort_gear_value
                0x00402882                Rte_Call_SEN_BATT_COMP_CS_BATT_Receive_batt_sen_op
                0x004028d6                Rte_Write_SEN_BATT_COMP_SR_BATT_Send_batt_data
                0x004028f5                Rte_Call_SpeedSen_RPort_get_Tire_RPM
                0x00402968                Rte_Write_SpeedSen_toApp_PPort_backleft
                0x004029ab                Rte_Write_SpeedSen_toApp_PPort_backright
                0x004029ee                Rte_Write_SpeedSen_toApp_PPort_frontleft
                0x00402a31                Rte_Write_SpeedSen_toApp_PPort_frontright
                0x00402a74                Rte_Tick_Timeouts
 .text          0x00402a84      0x29c Rte_AccelControlAPP.o
                0x00402a84                RE_battary_is_normal_func
                0x00402a90                RE_battary_is_low_func
                0x00402a9c                RE_Control_func
 .text          0x00402d20       0x20 Rte_AccelPedalSen.o
                0x00402d20                RE_AccelPedalSen_func
 .text          0x00402d40       0x50 Rte_ACT_HYDRAULIC_MODULATOR_FRONTL_COMP.o
                0x00402d40                RE_ACT_FL_Data_Recev_func
 .text          0x00402d90       0x50 Rte_ACT_HYDRAULIC_MODULATOR_FRONTR_COMP.o
                0x00402d90                RE_ACT_FR_Data_Recev_func
 .text          0x00402de0       0x50 Rte_ACT_HYDRAULIC_MODULATOR_REARL_COMP.o
                0x00402de0                RE_ACT_RL_Data_Recev_func
 .text          0x00402e30       0x50 Rte_ACT_HYDRAULIC_MODULATOR_REARR_COMP.o
                0x00402e30                RE_ACT_RR_Data_Recev_func
 .text          0x00402e80       0x20 Rte_ACT_MOTOR_COMP.o
                0x00402e80                RE_ACT_MOTOR_func
 .text          0x00402ea0     0x134c Rte_APP_BRAKE_CONTROLL_COMP.o
                0x00402ea0                RE_APP_FL_DATA_RECEV_func
                0x004036b3                RE_APP_FR_DATA_RECEV_func
                0x00403a6f                RE_APP_RL_DATA_RECEV_func
                0x00403e2d                RE_APP_RR_DATA_RECEV_func
 .text          0x004041ec      0x118 Rte_APP_MOTOR_COMP.o
                0x004041ec                RE_APP_MOTOR_ACT_func
                0x00404299                RE_APP_MOTOR_batt_pwm_func
 .text          0x00404304      0x1e4 Rte_AvgSpeed.o
                0x00404304                RE_Avg_func
 .text          0x004044e8       0x1c Rte_BrakePedalSen.o
                0x004044e8                RE_BrakePedalSen_func
 .text          0x00404504       0x48 Rte_Cylinder_Sen.o
                0x00404504                RunnableEntity_0_func
 .text          0x0040454c      0x1bc Rte_ECU_ABS.o
                0x0040454c                RE_PTireRPM_func
                0x00404589                RE_PBrakePedal_func
                0x0040459e                RE_PHMFrontL_func
                0x004045c0                RE_ECU_ABS_MOTOR_func
                0x004045e5                RE_ECU_ABS_BATT_func
                0x004045fa                RE_PGearMode_func
                0x0040460f                RE_PAccelPedal_func
                0x00404624                RE_SeverGear_func
                0x0040463f                RE_PCylinder_func
                0x00404662                RE_SeverEngine_func
                0x004046a1                RE_PHMRearR_func
                0x004046c3                RE_PHMRearL_func
                0x004046e5                RE_PHMFrontR_func
 .text          0x00404708       0xb0 Rte_Engine_Cycle_ACT.o
                0x00404708                RE_Engine_Cycle_ACT_func
 .text          0x004047b8       0x40 Rte_Engine_Gear_ACT.o
                0x004047b8                RE_EG_level1_ACT_func
                0x004047cd                RE_EG_level2_ACT_func
                0x004047e2                RE_EG_level3_ACT_func
 .text          0x004047f8       0xe0 Rte_EngineApp.o
                0x004047f8                RE_EngineApp_func
 .text          0x004048d8       0x1c Rte_GearModeSen.o
                0x004048d8                RE_GearModeSen_func
 .text          0x004048f4      0x6f8 Rte_Lib.o
                0x004048f4                Rte_ActivateRE
                0x00404940                Rte_DecrementWaitingCount
                0x004049d3                Rte_GetCurrentTaskIndex
                0x00404a28                Rte_MainFunction
                0x00404a2a                Rte_ReadQueue
                0x00404b3b                Rte_SetEvent
                0x00404bd4                Rte_Start
                0x00404c07                Rte_Stop
                0x00404c32                SchM_Init
                0x00404c46                SchM_Deinit
                0x00404c5a                Rte_WaitWithTimeout
                0x00404ded                Rte_WriteQueue
 .text          0x00404fec      0x10c Rte_SEN_BATT_COMP.o
                0x00404fec                RE_SEN_BATT_func
 .text          0x004050f8       0xb0 Rte_SpeedSen.o
                0x004050f8                RE_SpeedSen_func
 .text          0x004051a8       0x1c startVecu.o
                0x004051a8                startVecu
 .text          0x004051c4       0x78 target.o
                0x004051c4                InitializeDevices()
                0x004051d2                TargetInit
                0x004051e0                TargetEnableInterrupts
                0x0040522e                TargetReadClock
 .text          0x0040523c       0x58 VECU_SystemClock_ISR.o
                0x0040523c                Os_Entry_VECU_SystemClock_ISR
 .text          0x00405294      0x420 virtualdevices.o
                0x00405294                AccelSensorValue
                0x004052a6                BrakeSensorValue
                0x004052b8                GearSwitchValue
                0x004052ca                SpinSensor1Value
                0x004052dc                SpinSensor2Value
                0x004052ee                SpinSensor3Value
                0x00405300                SpinSensor4Value
                0x00405312                cylinderTempSensorValue
                0x00405324                cylinderPressSensorValue
                0x00405336                FL_Speed_SensorValue
                0x00405348                BatterySensorValue
                0x0040535a                setFL_HydraulicModulatorVolt
                0x00405376                setFR_HydraulicModulatorVolt
                0x00405392                setRL_HydraulicModulatorVolt
                0x004053ae                setRR_HydraulicModulatorVolt
                0x004053ca                setPhysicGearActuator
                0x004053e6                setEngineflag
                0x00405402                setEngineIgniteActuator
                0x0040541e                setEngineFuelActuator
                0x0040543a                setMotorActuatorLevel
                0x00405456                status_printf
                0x00405486                DebugSensorValue
                0x00405498                gettempInput
 .text          0x004056b4       0xdc Vrta_Cfg.o
                0x004056b4                vrtaActionHandler
                0x0040572d                EnableVrtaFlash
                0x0040573b                EnableVrtaPort
                0x00405749                EnableVrtaAdc
                0x00405757                EnableVrtaPwm
                0x00405765                EnableVrtaIcu
                0x00405773                EnableVrtaCan
                0x00405781                EnableVrtaCanTrcv
 .text          0x00405790       0xc0 RTAOS.lib(ActivateTask.o)
                0x00405790                Os_ActivateTask
 .text          0x00405850       0x50 RTAOS.lib(CancelAlarm.o)
                0x00405850                Os_CancelAlarm
 .text          0x004058a0       0x40 RTAOS.lib(ClearEvent.o)
                0x004058a0                Os_ClearEvent
 .text          0x004058e0      0x310 RTAOS.lib(DispatchTask.o)
                0x004058e0                Os_Dispatch
 .text          0x00405bf0       0x40 RTAOS.lib(GetEvent.o)
                0x00405bf0                Os_GetEvent
 .text          0x00405c30       0x20 RTAOS.lib(GetISRID.o)
                0x00405c30                Os_GetISRID
 .text          0x00405c50       0x80 RTAOS.lib(GetResource.o)
                0x00405c50                Os_GetResource
 .text          0x00405cd0       0x20 RTAOS.lib(GetTaskID.o)
                0x00405cd0                Os_GetTaskID
 .text          0x00405cf0      0x200 RTAOS.lib(Os_Cfg.o)
                0x00405cf0                Os_StartOS_DataInit
                0x00405e40                Os_StartOS_StartAuto
 .text          0x00405ef0      0x330 RTAOS.lib(Os_Cfg_Counters.o)
                0x00405ef0                Os_IncrementCounter_Rte_TOutCounter
                0x00406000                Os_CounterRelativeStart
                0x00406030                Os_PerformEP
                0x00406180                Os_IncrementCounter_Rte_TickCounter
 .text          0x00406220       0x70 RTAOS.lib(Os_Cfg_KL.o)
                0x00406220                Os_ActivateTaskKL
 .text          0x00406290       0x10 RTAOS.lib(Os_fsb.o)
                0x00406290                @Os_fsb@4
 .text          0x004062a0       0x40 RTAOS.lib(Os_SetJmp.o)
                0x004062a0                Os_SetJmp
                0x004062c0                Os_LongJmp
 .text          0x004062e0       0x40 RTAOS.lib(Os_Stack.o)
                0x004062e0                Os_GetSP
                0x004062f0                Os_ExtendStack
 .text          0x00406320       0x70 RTAOS.lib(ReleaseResource.o)
                0x00406320                Os_ReleaseResource
 .text          0x00406390       0x40 RTAOS.lib(ResumeOSInterrupts.o)
                0x00406390                Os_ResumeOSInterrupts
 .text          0x004063d0      0x150 RTAOS.lib(SetEvent.o)
                0x004063d0                Os_SetEvent
                0x004064a0                Os_SetEventKL
 .text          0x00406520       0xb0 RTAOS.lib(SetRelAlarm.o)
                0x00406520                Os_SetRelAlarm
 .text          0x004065d0       0x90 RTAOS.lib(StartOS.o)
                0x004065d0                Os_StartOS
 .text          0x00406660       0x80 RTAOS.lib(StartScheduleTableRel.o)
                0x00406660                Os_StartScheduleTableRel
 .text          0x004066e0       0x50 RTAOS.lib(StopScheduleTable.o)
                0x004066e0                Os_StopScheduleTable
 .text          0x00406730       0x60 RTAOS.lib(SuspendOSInterrupts.o)
                0x00406730                Os_SuspendOSInterrupts
 .text          0x00406790       0x50 RTAOS.lib(TerminateTask.o)
                0x00406790                Os_TerminateTask
 .text          0x004067e0      0x160 RTAOS.lib(vrtaAppMain.o)
                0x004067e0                vrtaFireISR
                0x00406830                Os_VRTA_IsDisabledInterrupt
                0x00406880                Os_VRTA_ClearPendingInterrupt
                0x004068c0                Os_VRTA_EnableInterrupt
                0x00406900                Os_VRTA_DisableInterrupt
 .text          0x00406940     0x1090 RTAOS.lib(vrtaCore.o)
                0x00407250                vrtaDevice::WriteToPersistentStorage(unsigned short*, unsigned char**)
                0x00407290                vrtaDevice::ReadFromPersistentStorage(unsigned short*, unsigned char**)
                0x004072f0                vrtaReadHPTime
                0x00407360                vrtaReadHPCycles
                0x00407390                vrtaLoadVM
                0x004073b0                vrtaUnloadVM()
                0x004073c0                vrtaSendAction
                0x004073d0                vrtaRaiseEvent
                0x004073e0                vrtaGetState
                0x004073f0                vrtaEventRegister
                0x00407400                vrtaEventUnregister
                0x00407410                vrtaHookEvent
                0x00407430                vrtaHookEventNotifications
                0x00407440                vrtaStart
                0x00407450                vrtaStartCore
                0x00407490                vrtaGetCoreICUID
                0x004074c0                vrtaTerminate
                0x00407520                vrtaReset
                0x00407530                vrtaEnterUninterruptibleSection
                0x00407540                vrtaLeaveUninterruptibleSection
                0x00407550                vrtaEnterGlobalUninterruptibleSection
                0x00407570                vrtaLeaveGlobalUninterruptibleSection
                0x00407590                vrtaIsIdle
                0x00407600                vrtaLowPowerIdleEnable
                0x00407610                vrtaLowPowerIdleEnabled
                0x00407620                vrtaLowPowerIdle
                0x00407650                vrtaYield
                0x00407690                vrtaSpawnThread
                0x004076a0                vrtaInitialize
                0x004076d0                vrtaAddCore
                0x00407700                vrtaGetCoreID
                0x00407720                vrtaRegisterVirtualDevice
                0x00407730                vrtaIsAppThread
                0x00407740                vrtaIsAppFinished
                0x00407750                vrtaIsAppRunning
                0x00407760                vrtaNoneUserThread
                0x00407770                vrtaCoreCount
                0x00407790                vrtaOSGetUserStackBase
                0x004077a0                vrtaOSSetInterruptDeferVar
                0x004077b0                vrtaOSSetIPL
                0x004077c0                vrtaOSGetIPL
                0x004077d0                vrtaOSSetIrqMask
                0x004077e0                vrtaOSClearIrqMask
                0x004077f0                vrtaOSSetIrqPending
                0x00407800                vrtaOSClearIrqPending
                0x00407810                vrtaOSIsIrqPending
                0x00407820                vrtaDevice::vrtaDevice(char*, char*, char*, char*)
                0x00407820                vrtaDevice::vrtaDevice(char*, char*, char*, char*)
                0x004078b0                vrtaDevice::AssignCore(unsigned short)
                0x004078d0                vrtaDevice::RaiseEvent(vrtaEvent&)
                0x004078f0                vrtaDevice::GetState(unsigned short, vrtaEvent&)
                0x00407910                vrtaDevice::SendAction(unsigned short, vrtaAction&)
                0x00407930                vrtaDevice::RaiseInterrupt(unsigned int)
                0x004079a0                vrtaDevice::SpawnThread(void (*)())
                0x004079c0                vrtaDevice::PersistThroughReset(unsigned int)
 .text          0x004079d0       0xb0 RTAOS.lib(vrtaIdleHandling.o)
                0x004079d0                vrtaIdleSubscriber::vrtaIdleSubscriber()
                0x004079d0                vrtaIdleSubscriber::vrtaIdleSubscriber()
                0x004079e0                vrtaIdleSubscriber::Subscribe(vrtaIdleSubscriber*)
                0x00407a00                vrtaRunIdleHandlers
 .text          0x00407a80      0xab0 RTAOS.lib(vrtaLoggerDevice.o)
                0x00407a80                Logger::GetPersistentDataSize()
                0x00407a90                Logger::GetPersistentData()
                0x00407aa0                Logger::Starting()
                0x00407c20                Logger::SetPersistentData(unsigned char*, unsigned short)
                0x00407c50                Logger::AsyncGetState(vrtaEvent*)
                0x00407d20                Logger::Logger(char*)
                0x00407d20                Logger::Logger(char*)
                0x00407da0                Logger::Logger(char*, Logger&)
                0x00407da0                Logger::Logger(char*, Logger&)
                0x00407e10                Logger::setfile(char*)
                0x00407f60                Logger::Logger(char*, char*)
                0x00407f60                Logger::Logger(char*, char*)
                0x00407fe0                Logger::setduplicate(char*)
                0x00408130                Logger::Logger(char*, char*, char*)
                0x00408130                Logger::Logger(char*, char*, char*)
                0x004081c0                Logger::Stopping()
                0x004081f0                Logger::UpdateText()
                0x00408340                Logger::print(char*)
                0x004083b0                Logger::OnAction(vrtaAction const*)
                0x00408420                Logger::print(char*, unsigned int)
                0x004084a0                Logger::printf(char*, char*)
                0x00408500                Logger::printf(char*, ...)
 .text          0x00408530       0x50 RTAOS.lib(vrtaOSMonitorDevice.o)
                0x00408530                OSIdleHandler::Idle(unsigned int)
                0x00408570                EnableOsMonitor
 .text          0x00408580     0x1b20 RTAOS.lib(vrtaSampleDevices.o)
                0x00408580                vrtaBaseClock::SetPersistentData(unsigned char*, unsigned short)
                0x004085a0                vrtaBaseClock::Starting()
                0x004085b0                vrtaBaseClock::AsyncGetState(vrtaEvent*)
                0x00408640                vrtaClock::initialize_clock()
                0x00408660                vrtaComparable::SetPersistentData(unsigned char*, unsigned short)
                0x00408670                vrtaCounter::SetPersistentData(unsigned char*, unsigned short)
                0x004086a0                vrtaCounter::Starting()
                0x004086a0                vrtaCounter::Stopping()
                0x004086b0                vrtaCounter::AsyncGetState(vrtaEvent*)
                0x00408710                vrtaCompare::SetPersistentData(unsigned char*, unsigned short)
                0x00408730                vrtaCompare::OnAction(vrtaAction const*)
                0x00408770                vrtaCompare::AsyncGetState(vrtaEvent*)
                0x004087f0                vrtaSensor::SetPersistentData(unsigned char*, unsigned short)
                0x00408810                vrtaSensor::AsyncGetState(vrtaEvent*)
                0x00408870                vrtaActuator::SetPersistentData(unsigned char*, unsigned short)
                0x00408890                vrtaActuator::AsyncGetState(vrtaEvent*)
                0x004088f0                vrtaIO::GetPersistentDataSize()
                0x00408900                vrtaIO::GetPersistentData()
                0x00408910                vrtaIO::OnAction(vrtaAction const*)
                0x00408a30                vrtaClock::ResetClock()
                0x00408aa0                vrtaIO::Stopping()
                0x00408ad0                vrtaIO::SetPersistentData(unsigned char*, unsigned short)
                0x00408b10                vrtaIO::AsyncGetState(vrtaEvent*)
                0x00408bf0                vrtaBaseClock::Tick()
                0x00408c10                non-virtual thunk to vrtaBaseClock::Tick()
                0x00408c20                vrtaAdaptiveClock::Tick()
                0x00408c50                non-virtual thunk to vrtaAdaptiveClock::Tick()
                0x00408c60                vrtaClock::Stopping()
                0x00408ca0                vrtaIO::Starting()
                0x00408d00                vrtaClock::Stop()
                0x00408da0                vrtaBaseClock::Start()
                0x00408e20                vrtaBaseClock::vrtaBaseClock(char*, unsigned int, char*, char*, char*, bool)
                0x00408e20                vrtaBaseClock::vrtaBaseClock(char*, unsigned int, char*, char*, char*, bool)
                0x00408e90                vrtaBaseClock::vrtaBaseClock(char*, unsigned int, bool)
                0x00408e90                vrtaBaseClock::vrtaBaseClock(char*, unsigned int, bool)
                0x00408f00                vrtaBaseClock::~vrtaBaseClock()
                0x00408f00                vrtaBaseClock::~vrtaBaseClock()
                0x00408f30                non-virtual thunk to vrtaBaseClock::~vrtaBaseClock()
                0x00408f40                vrtaBaseClock::~vrtaBaseClock()
                0x00408f90                non-virtual thunk to vrtaBaseClock::~vrtaBaseClock()
                0x00408fa0                vrtaBaseClock::SetInterval(unsigned int)
                0x00409040                vrtaBaseClock::SetScale(unsigned int, unsigned int)
                0x004090d0                vrtaBaseClock::OnAction(vrtaAction const*)
                0x00409160                vrtaAdaptiveClock::OnAction(vrtaAction const*)
                0x004091a0                vrtaClock::vrtaClock(char*, unsigned int, bool)
                0x004091a0                vrtaClock::vrtaClock(char*, unsigned int, bool)
                0x00409200                vrtaClock::vrtaClock(char*, unsigned int, char*, char*, char*, bool)
                0x00409200                vrtaClock::vrtaClock(char*, unsigned int, char*, char*, char*, bool)
                0x00409270                vrtaAdaptiveClock::vrtaAdaptiveClock(char*, unsigned int, bool)
                0x00409270                vrtaAdaptiveClock::vrtaAdaptiveClock(char*, unsigned int, bool)
                0x004092e0                vrtaAdaptiveClock::InjectTick()
                0x00409330                vrtaCounter::vrtaCounter(char*, char*, vrtaBaseClock&)
                0x00409330                vrtaCounter::vrtaCounter(char*, char*, vrtaBaseClock&)
                0x004093a0                vrtaCounter::Start()
                0x004093b0                vrtaCounter::Stop()
                0x004093c0                vrtaCompare::vrtaCompare(char*, vrtaComparable&, unsigned int, unsigned int)
                0x004093c0                vrtaCompare::vrtaCompare(char*, vrtaComparable&, unsigned int, unsigned int)
                0x00409430                vrtaCompare::SetMatch(unsigned int)
                0x00409440                vrtaCompare::SetVector(unsigned int)
                0x00409450                vrtaCompare::NewValue(unsigned int)
                0x00409520                vrtaComparable::CheckComparators()
                0x00409550                vrtaCounter::SetMin(unsigned int)
                0x004095b0                vrtaCounter::SetMax(unsigned int)
                0x00409610                vrtaCounter::OnAction(vrtaAction const*)
                0x00409700                vrtaCounter::SetVal(unsigned int)
                0x00409760                vrtaUpCounter::Tick()
                0x004097c0                vrtaDownCounter::Tick()
                0x00409820                vrtaSensor::SetVal(unsigned int)
                0x004098d0                vrtaActuator::SetVal(unsigned int)
                0x00409980                vrtaSensor::vrtaSensor(char*)
                0x00409980                vrtaSensor::vrtaSensor(char*)
                0x004099d0                vrtaSensor::vrtaSensor(char*, char*, char*, char*)
                0x004099d0                vrtaSensor::vrtaSensor(char*, char*, char*, char*)
                0x00409a20                vrtaSensor::SetMax(unsigned int)
                0x00409b30                vrtaSensor::OnAction(vrtaAction const*)
                0x00409b90                vrtaSensorToggleSwitch::vrtaSensorToggleSwitch(char*)
                0x00409b90                vrtaSensorToggleSwitch::vrtaSensorToggleSwitch(char*)
                0x00409be0                vrtaSensorMultiwaySwitch::vrtaSensorMultiwaySwitch(char*, unsigned int)
                0x00409be0                vrtaSensorMultiwaySwitch::vrtaSensorMultiwaySwitch(char*, unsigned int)
                0x00409c30                vrtaActuator::vrtaActuator(char*)
                0x00409c30                vrtaActuator::vrtaActuator(char*)
                0x00409c80                vrtaActuator::vrtaActuator(char*, char*)
                0x00409c80                vrtaActuator::vrtaActuator(char*, char*)
                0x00409cd0                vrtaActuator::SetMax(unsigned int)
                0x00409de0                vrtaActuator::OnAction(vrtaAction const*)
                0x00409e40                vrtaActuatorLight::vrtaActuatorLight(char*)
                0x00409e40                vrtaActuatorLight::vrtaActuatorLight(char*)
                0x00409e90                vrtaActuatorDimmableLight::vrtaActuatorDimmableLight(char*, unsigned int)
                0x00409e90                vrtaActuatorDimmableLight::vrtaActuatorDimmableLight(char*, unsigned int)
                0x00409ee0                vrtaActuatorMultiColorLight::vrtaActuatorMultiColorLight(char*, unsigned int)
                0x00409ee0                vrtaActuatorMultiColorLight::vrtaActuatorMultiColorLight(char*, unsigned int)
                0x00409f30                vrtaIO::vrtaIO(char*, unsigned int)
                0x00409f30                vrtaIO::vrtaIO(char*, unsigned int)
                0x00409f80                vrtaIO::vrtaIO(char*, unsigned int, char*, char*, char*)
                0x00409f80                vrtaIO::vrtaIO(char*, unsigned int, char*, char*, char*)
                0x00409fd0                vrtaIO::Init(unsigned int)
                0x00409ff0                vrtaIO::SetValue(unsigned int, unsigned int)
                0x0040a010                vrtaIO::SetValues(unsigned int, unsigned int const*, unsigned int)
                0x0040a060                vrtaIO::GetValue(unsigned int) const
                0x0040a090                vrtaIO::GetValues() const
 .text          0x0040a0a0      0xd30 RTAOS.lib(vrtaSystemClock.o)
                0x0040a280                vrtaSystemClockSubscriber::vrtaSystemClockSubscriber()
                0x0040a280                vrtaSystemClockSubscriber::vrtaSystemClockSubscriber()
                0x0040a2a0                vrtaSystemClockType::vrtaSystemClockType()
                0x0040a2a0                vrtaSystemClockType::vrtaSystemClockType()
                0x0040a350                vrtaSystemClockType::Scale()
                0x0040a360                vrtaSystemClockType::Scale(unsigned int)
                0x0040a3b0                vrtaSystemClockType::Auto()
                0x0040a410                vrtaSystemClockType::IsAuto()
                0x0040a430                vrtaSystemClockType::ManualCanDoLowPower(bool)
                0x0040a450                vrtaSystemClockType::ManualCanDoLowPower()
                0x0040a470                vrtaSystemClockType::ManualFreezesOS(bool)
                0x0040a480                vrtaSystemClockType::Manual(unsigned int)
                0x0040a4c0                vrtaSystemClockType::ManualTicksRemaining()
                0x0040a4d0                vrtaSystemClockType::ManualTicksCompleted()
                0x0040a550                vrtaSystemClockType::IsManual()
                0x0040a560                vrtaSystemClockType::IdleTick()
                0x0040a5c0                vrtaSystemClockType::IsIdleTicked()
                0x0040a5d0                vrtaSystemClockType::Tick()
                0x0040a5f0                vrtaSystemClockType::Pause()
                0x0040a600                vrtaSystemClockType::IsPaused()
                0x0040a610                vrtaSystemClockType::Resume()
                0x0040a620                vrtaSystemClockType::MillisecondsCount()
                0x0040a630                vrtaSystemClockType::TickCount()
                0x0040a640                vrtaSystemClockType::Unsubscribe(vrtaSystemClockSubscriber*)
                0x0040a6d0                vrtaSystemClockSubscriber::~vrtaSystemClockSubscriber()
                0x0040a6d0                vrtaSystemClockSubscriber::~vrtaSystemClockSubscriber()
                0x0040a700                vrtaSystemClockSubscriber::~vrtaSystemClockSubscriber()
                0x0040a740                vrtaSystemClockType::Subscribe(vrtaSystemClockSubscriber*)
                0x0040a840                vrtaSystemClockType::FavourFixedInterval(unsigned int)
                0x0040a8a0                vrtaSystemClockType::IsFavourFixedInterval()
                0x0040a8b0                vrtaCustomTickSource::vrtaCustomTickSource(unsigned int)
                0x0040a8b0                vrtaCustomTickSource::vrtaCustomTickSource(unsigned int)
                0x0040a940                vrtaCustomTickSource::TickCount()
                0x0040aa00                vrtaThreadWait::vrtaThreadWait(unsigned int)
                0x0040aa00                vrtaThreadWait::vrtaThreadWait(unsigned int)
                0x0040ab00                vrtaThreadWait::WaitForTicks(unsigned int)
                0x0040acd0                vrtaSystemClock_Auto
                0x0040ace0                vrtaSystemClock_Manual
                0x0040ad20                vrtaSystemClock_Pause
                0x0040ad30                vrtaSystemClock_Resume
                0x0040ad40                vrtaSystemClock_Tick
                0x0040ad60                vrtaSystemClock_Scale
                0x0040ad80                vrtaSystemClock_FavourFixedInterval
                0x0040ada0                vrtaSystemClock_IsFavourFixedInterval
                0x0040adb0                vrtaSystemClock_HasFrozenOS
                0x0040adc0                vrtaSystemClock_IsIdleTicked
 .text          0x0040add0      0x2a0 RTAOS.lib(vrtaSystemClockDevice.o)
                0x0040add0                CSLThread
                0x0040af10                SystemClockIdleHandler::Idle(unsigned int)
                0x0040b040                SystemClockTickUpdateNotification(unsigned int)
 .text          0x0040b070      0x194 RTAOS.lib(WaitEvent.o)
                0x0040b070                Os_WaitEvent
 *fill*         0x0040b204        0xc 
 .text          0x0040b210      0x160 RTAOS.lib(DispatchECC.o)
                0x0040b210                Os_DispatchECC
 .text          0x0040b370       0x20 RTAOS.lib(GetStackValue.o)
                0x0040b370                Os_GetStackValue
 .text          0x0040b390        0x0 RTAOS.lib(Os_vectors.o)
 .text          0x0040b390       0x60 RTAOS.lib(Os_wrapper.o)
                0x0040b390                Os_ISRWrapper
 .text          0x0040b3f0       0x10 RTAOS.lib(StackOverrunHook.o)
                0x0040b3f0                Os_Cbk_StackOverrunHook
 .text          0x0040b400     0x17f0 RTAOS.lib(virtualDevice.o)
                0x0040b400                VirtualDevice::StringBuilder::Content()
                0x0040b430                VirtualDevice::EventZero(vrtaEvent const&)
                0x0040b440                VirtualDevice::EventHandler(vrtaEvent&)
                0x0040b480                VirtualDevice::GetPersistentDataSize()
                0x0040b490                VirtualDevice::GetPersistentData()
                0x0040b4a0                VirtualDevice::SetPersistentData(unsigned char*, unsigned short)
                0x0040b4b0                VirtualDevice::StringBuilder::~StringBuilder()
                0x0040b4b0                VirtualDevice::StringBuilder::~StringBuilder()
                0x0040b4e0                VirtualDevice::StringBuilder::~StringBuilder()
                0x0040b580                VirtualDevice::ActionZero(vrtaAction const&)
                0x0040b650                VirtualDevice::SetValue(vrtaEvent&, void*, unsigned int)
                0x0040b6b0                VECUAutoLock::VECUAutoLock()
                0x0040b6b0                VECUAutoLock::VECUAutoLock()
                0x0040b6c0                VECUAutoLock::~VECUAutoLock()
                0x0040b6c0                VECUAutoLock::~VECUAutoLock()
                0x0040b6d0                VirtualDevice::StringBuilder::StringBuilder(int)
                0x0040b6d0                VirtualDevice::StringBuilder::StringBuilder(int)
                0x0040b700                VirtualDevice::StringBuilder::Append(char const*)
                0x0040b780                VirtualDevice::StringBuilder::Length()
                0x0040b790                VirtualDevice::OptList::OptList(int)
                0x0040b790                VirtualDevice::OptList::OptList(int)
                0x0040b7d0                VirtualDevice::OptList::Add(char const*, char const*)
                0x0040b840                VirtualDevice::OptList::Clear()
                0x0040b860                VirtualDevice::OptList::Replace(int, char const*, char const*)
                0x0040b970                VirtualDevice::Linkable::Linkable()
                0x0040b970                VirtualDevice::Linkable::Linkable()
                0x0040b980                VirtualDevice::ParameterInfo::ParameterInfo(char const*, char const*, char const*)
                0x0040b980                VirtualDevice::ParameterInfo::ParameterInfo(char const*, char const*, char const*)
                0x0040b9a0                VirtualDevice::List::List()
                0x0040b9a0                VirtualDevice::List::List()
                0x0040b9b0                VirtualDevice::List::First()
                0x0040b9c0                VirtualDevice::List::Append(VirtualDevice::Linkable*)
                0x0040b9e0                VirtualDevice::List::Replace(int, VirtualDevice::Linkable*)
                0x0040ba40                VirtualDevice::ActionInfo::ActionInfo(char const*, char const*, char const*)
                0x0040ba40                VirtualDevice::ActionInfo::ActionInfo(char const*, char const*, char const*)
                0x0040ba70                VirtualDevice::ActionInfo::AddContent(VirtualDevice::OptList*)
                0x0040bba0                VirtualDevice::ActionList::Content()
                0x0040bbf0                VirtualDevice::ActionInfo::In(char const*, char const*, char const*)
                0x0040bc50                VirtualDevice::EventInfo::EventInfo(char const*, char const*, char const*)
                0x0040bc50                VirtualDevice::EventInfo::EventInfo(char const*, char const*, char const*)
                0x0040bc90                VirtualDevice::EventInfo::AddContent(VirtualDevice::OptList*)
                0x0040be70                VirtualDevice::EventList::Content()
                0x0040bec0                VirtualDevice::EventInfo::Out(char const*, char const*, char const*)
                0x0040bf20                VirtualDevice::EventInfo::In(char const*, char const*, char const*)
                0x0040bf80                VirtualDevice::EventList::EventList()
                0x0040bf80                VirtualDevice::EventList::EventList()
                0x0040bfd0                VirtualDevice::EventList::Add(char const*, char const*, char const*)
                0x0040c040                VirtualDevice::EventList::Replace(int, char const*, char const*, char const*)
                0x0040c0b0                VirtualDevice::EventList::UpdateInfo(VirtualDevice::OptList&)
                0x0040c210                VirtualDevice::ActionList::ActionList()
                0x0040c210                VirtualDevice::ActionList::ActionList()
                0x0040c260                VirtualDevice::ActionList::Add(char const*, char const*, char const*)
                0x0040c2c0                VirtualDevice::ActionList::Replace(int, char const*, char const*, char const*)
                0x0040c330                VirtualDevice::ActionList::UpdateInfo(VirtualDevice::OptList&)
                0x0040c470                VirtualDevice::VirtualDevice()
                0x0040c470                VirtualDevice::VirtualDevice()
                0x0040c510                VirtualDevice::ActionHandler(vrtaAction const&)
                0x0040c570                VirtualDevice::AddActionHandler(unsigned short (VirtualDevice::*)(vrtaAction const&))
                0x0040c5f0                VirtualDevice::AddEventHandler(unsigned short (VirtualDevice::*)(vrtaEvent const&))
                0x0040c670                VirtualDevice::NullAction(vrtaAction const&)
                0x0040c680                VirtualDevice::NullEvent(vrtaEvent const&)
                0x0040c690                VirtualDevice::RegisterAs(char const*)
                0x0040c860                VirtualDevice::~VirtualDevice()
                0x0040c860                VirtualDevice::~VirtualDevice()
                0x0040c880                VirtualDevice::~VirtualDevice()
                0x0040c8c0                VirtualDevice::AssignCore(unsigned short)
                0x0040c8e0                VirtualDevice::Raise(unsigned short (VirtualDevice::*)(vrtaEvent const&), vrtaEvent&)
                0x0040c980                VirtualDevice::Raise(unsigned short (VirtualDevice::*)(vrtaEvent const&))
                0x0040c9c0                VirtualDevice::Raise(vrtaEvent&)
                0x0040c9f0                VirtualDevice::SendAction(unsigned short, unsigned short, vrtaAction&)
                0x0040ca20                VirtualDevice::RaiseInterrupt(unsigned int)
                0x0040ca80                VirtualDevice::SpawnThread(void (*)())
                0x0040caa0                VirtualDevice::PersistThroughReset(unsigned int)
                0x0040cab0                VirtualDevice::ReadFromPersistentStorage(unsigned short*, unsigned char**)
                0x0040cad0                VirtualDevice::WriteToPersistentStorage(unsigned short*, unsigned char**)
                0x0040cb10                VirtualDevice::LockDevice()
                0x0040cb20                VirtualDevice::ReleaseDevice()
                0x0040cb30                VirtualDevice::DataHasPersisted()
                0x0040cb40                VirtualDevice::DataHasPersisted(unsigned int)
                0x0040cb50                VirtualDevice::SetID(unsigned short)
                0x0040cb60                VirtualDevice::GetID()
                0x0040cb70                VirtualDevice::UnpackData(vrtaAction const&, void*, unsigned int)
                0x0040cbb0                VirtualDevice::UnpackData(vrtaEvent const&, void*, unsigned int)
 .text          0x0040cbf0       0x80 RTAOS.lib(ShutdownOS.o)
                0x0040cbf0                Os_ShutdownOS
 .text          0x0040cc70       0x10 RTAOS.lib(InShutdown.o)
                0x0040cc70                Os_Cbk_InShutdown
 .text          0x0040cc80        0x0 C:/Program Files/ETAS/ISOLAR-EVE3.5.0/plugins/com.etas.evetools.toolsfolder_3.5.5/Tools/MinGW/bin/../lib/gcc/i686-w64-mingw32/8.1.0/../../../../i686-w64-mingw32/lib/../lib/libwinmm.a(dcnfh.o)
 .text          0x0040cc80        0x0 C:/Program Files/ETAS/ISOLAR-EVE3.5.0/plugins/com.etas.evetools.toolsfolder_3.5.5/Tools/MinGW/bin/../lib/gcc/i686-w64-mingw32/8.1.0/../../../../i686-w64-mingw32/lib/../lib/libwinmm.a(dcnft.o)
 .text          0x0040cc80        0x0 C:/Program Files/ETAS/ISOLAR-EVE3.5.0/plugins/com.etas.evetools.toolsfolder_3.5.5/Tools/MinGW/bin/../lib/gcc/i686-w64-mingw32/8.1.0\libstdc++.a(class_type_info.o)
 .text          0x0040cc80        0x0 C:/Program Files/ETAS/ISOLAR-EVE3.5.0/plugins/com.etas.evetools.toolsfolder_3.5.5/Tools/MinGW/bin/../lib/gcc/i686-w64-mingw32/8.1.0\libstdc++.a(del_ops.o)
 .text          0x0040cc80        0x0 C:/Program Files/ETAS/ISOLAR-EVE3.5.0/plugins/com.etas.evetools.toolsfolder_3.5.5/Tools/MinGW/bin/../lib/gcc/i686-w64-mingw32/8.1.0\libstdc++.a(del_opv.o)
 .text          0x0040cc80        0x0 C:/Program Files/ETAS/ISOLAR-EVE3.5.0/plugins/com.etas.evetools.toolsfolder_3.5.5/Tools/MinGW/bin/../lib/gcc/i686-w64-mingw32/8.1.0\libstdc++.a(eh_aux_runtime.o)
 .text          0x0040cc80        0x0 C:/Program Files/ETAS/ISOLAR-EVE3.5.0/plugins/com.etas.evetools.toolsfolder_3.5.5/Tools/MinGW/bin/../lib/gcc/i686-w64-mingw32/8.1.0\libstdc++.a(eh_catch.o)
 .text          0x0040cc80        0x0 C:/Program Files/ETAS/ISOLAR-EVE3.5.0/plugins/com.etas.evetools.toolsfolder_3.5.5/Tools/MinGW/bin/../lib/gcc/i686-w64-mingw32/8.1.0\libstdc++.a(eh_globals.o)
 .text          0x0040cc80        0x0 C:/Program Files/ETAS/ISOLAR-EVE3.5.0/plugins/com.etas.evetools.toolsfolder_3.5.5/Tools/MinGW/bin/../lib/gcc/i686-w64-mingw32/8.1.0\libstdc++.a(eh_personality.o)
 .text          0x0040cc80        0x0 C:/Program Files/ETAS/ISOLAR-EVE3.5.0/plugins/com.etas.evetools.toolsfolder_3.5.5/Tools/MinGW/bin/../lib/gcc/i686-w64-mingw32/8.1.0\libstdc++.a(eh_terminate.o)
 .text          0x0040cc80        0x0 C:/Program Files/ETAS/ISOLAR-EVE3.5.0/plugins/com.etas.evetools.toolsfolder_3.5.5/Tools/MinGW/bin/../lib/gcc/i686-w64-mingw32/8.1.0\libstdc++.a(eh_term_handler.o)
 .text          0x0040cc80        0x0 C:/Program Files/ETAS/ISOLAR-EVE3.5.0/plugins/com.etas.evetools.toolsfolder_3.5.5/Tools/MinGW/bin/../lib/gcc/i686-w64-mingw32/8.1.0\libstdc++.a(eh_throw.o)
 .text          0x0040cc80        0x0 C:/Program Files/ETAS/ISOLAR-EVE3.5.0/plugins/com.etas.evetools.toolsfolder_3.5.5/Tools/MinGW/bin/../lib/gcc/i686-w64-mingw32/8.1.0\libstdc++.a(eh_unex_handler.o)
 .text          0x0040cc80        0x0 C:/Program Files/ETAS/ISOLAR-EVE3.5.0/plugins/com.etas.evetools.toolsfolder_3.5.5/Tools/MinGW/bin/../lib/gcc/i686-w64-mingw32/8.1.0\libstdc++.a(new_op.o)
 .text          0x0040cc80        0x0 C:/Program Files/ETAS/ISOLAR-EVE3.5.0/plugins/com.etas.evetools.toolsfolder_3.5.5/Tools/MinGW/bin/../lib/gcc/i686-w64-mingw32/8.1.0\libstdc++.a(new_opv.o)
 .text          0x0040cc80        0x0 C:/Program Files/ETAS/ISOLAR-EVE3.5.0/plugins/com.etas.evetools.toolsfolder_3.5.5/Tools/MinGW/bin/../lib/gcc/i686-w64-mingw32/8.1.0\libstdc++.a(pure.o)
 .text          0x0040cc80        0x0 C:/Program Files/ETAS/ISOLAR-EVE3.5.0/plugins/com.etas.evetools.toolsfolder_3.5.5/Tools/MinGW/bin/../lib/gcc/i686-w64-mingw32/8.1.0\libstdc++.a(si_class_type_info.o)
 .text          0x0040cc80        0x0 C:/Program Files/ETAS/ISOLAR-EVE3.5.0/plugins/com.etas.evetools.toolsfolder_3.5.5/Tools/MinGW/bin/../lib/gcc/i686-w64-mingw32/8.1.0\libstdc++.a(tinfo.o)
 .text          0x0040cc80        0x0 C:/Program Files/ETAS/ISOLAR-EVE3.5.0/plugins/com.etas.evetools.toolsfolder_3.5.5/Tools/MinGW/bin/../lib/gcc/i686-w64-mingw32/8.1.0\libstdc++.a(vmi_class_type_info.o)
 .text          0x0040cc80        0x0 C:/Program Files/ETAS/ISOLAR-EVE3.5.0/plugins/com.etas.evetools.toolsfolder_3.5.5/Tools/MinGW/bin/../lib/gcc/i686-w64-mingw32/8.1.0\libstdc++.a(vterminate.o)
 .text          0x0040cc80        0x0 C:/Program Files/ETAS/ISOLAR-EVE3.5.0/plugins/com.etas.evetools.toolsfolder_3.5.5/Tools/MinGW/bin/../lib/gcc/i686-w64-mingw32/8.1.0\libstdc++.a(bad_alloc.o)
 .text          0x0040cc80        0x0 C:/Program Files/ETAS/ISOLAR-EVE3.5.0/plugins/com.etas.evetools.toolsfolder_3.5.5/Tools/MinGW/bin/../lib/gcc/i686-w64-mingw32/8.1.0\libstdc++.a(bad_array_new.o)
 .text          0x0040cc80        0x0 C:/Program Files/ETAS/ISOLAR-EVE3.5.0/plugins/com.etas.evetools.toolsfolder_3.5.5/Tools/MinGW/bin/../lib/gcc/i686-w64-mingw32/8.1.0\libstdc++.a(bad_cast.o)
 .text          0x0040cc80        0x0 C:/Program Files/ETAS/ISOLAR-EVE3.5.0/plugins/com.etas.evetools.toolsfolder_3.5.5/Tools/MinGW/bin/../lib/gcc/i686-w64-mingw32/8.1.0\libstdc++.a(bad_typeid.o)
 .text          0x0040cc80     0x9af0 C:/Program Files/ETAS/ISOLAR-EVE3.5.0/plugins/com.etas.evetools.toolsfolder_3.5.5/Tools/MinGW/bin/../lib/gcc/i686-w64-mingw32/8.1.0\libstdc++.a(cp-demangle.o)
                0x004165e0                __cxa_demangle
                0x00416730                __gcclibcxx_demangle_callback
 .text          0x00416770        0x0 C:/Program Files/ETAS/ISOLAR-EVE3.5.0/plugins/com.etas.evetools.toolsfolder_3.5.5/Tools/MinGW/bin/../lib/gcc/i686-w64-mingw32/8.1.0\libstdc++.a(del_op.o)
 .text          0x00416770        0x0 C:/Program Files/ETAS/ISOLAR-EVE3.5.0/plugins/com.etas.evetools.toolsfolder_3.5.5/Tools/MinGW/bin/../lib/gcc/i686-w64-mingw32/8.1.0\libstdc++.a(eh_alloc.o)
 .text          0x00416770        0x0 C:/Program Files/ETAS/ISOLAR-EVE3.5.0/plugins/com.etas.evetools.toolsfolder_3.5.5/Tools/MinGW/bin/../lib/gcc/i686-w64-mingw32/8.1.0\libstdc++.a(eh_call.o)
 .text          0x00416770        0x0 C:/Program Files/ETAS/ISOLAR-EVE3.5.0/plugins/com.etas.evetools.toolsfolder_3.5.5/Tools/MinGW/bin/../lib/gcc/i686-w64-mingw32/8.1.0\libstdc++.a(eh_exception.o)
 .text          0x00416770        0x0 C:/Program Files/ETAS/ISOLAR-EVE3.5.0/plugins/com.etas.evetools.toolsfolder_3.5.5/Tools/MinGW/bin/../lib/gcc/i686-w64-mingw32/8.1.0\libstdc++.a(eh_type.o)
 .text          0x00416770        0x0 C:/Program Files/ETAS/ISOLAR-EVE3.5.0/plugins/com.etas.evetools.toolsfolder_3.5.5/Tools/MinGW/bin/../lib/gcc/i686-w64-mingw32/8.1.0\libstdc++.a(new_handler.o)
 .text          0x00416770       0xb0 C:/Program Files/ETAS/ISOLAR-EVE3.5.0/plugins/com.etas.evetools.toolsfolder_3.5.5/Tools/MinGW/bin/../lib/gcc/i686-w64-mingw32/8.1.0/../../../../i686-w64-mingw32/lib/../lib/libmingw32.a(lib32_libmingw32_a-gccmain.o)
                0x00416770                __do_global_dtors
                0x004167b0                __do_global_ctors
                0x00416800                __main
 .text          0x00416820        0x0 C:/Program Files/ETAS/ISOLAR-EVE3.5.0/plugins/com.etas.evetools.toolsfolder_3.5.5/Tools/MinGW/bin/../lib/gcc/i686-w64-mingw32/8.1.0/../../../../i686-w64-mingw32/lib/../lib/libmingw32.a(lib32_libmingw32_a-natstart.o)
 .text          0x00416820        0x0 C:/Program Files/ETAS/ISOLAR-EVE3.5.0/plugins/com.etas.evetools.toolsfolder_3.5.5/Tools/MinGW/bin/../lib/gcc/i686-w64-mingw32/8.1.0/../../../../i686-w64-mingw32/lib/../lib/libmingw32.a(lib32_libmingw32_a-wildcard.o)
 .text          0x00416820       0x10 C:/Program Files/ETAS/ISOLAR-EVE3.5.0/plugins/com.etas.evetools.toolsfolder_3.5.5/Tools/MinGW/bin/../lib/gcc/i686-w64-mingw32/8.1.0/../../../../i686-w64-mingw32/lib/../lib/libmingw32.a(lib32_libmingw32_a-charmax.o)
 .text          0x00416830       0x10 C:/Program Files/ETAS/ISOLAR-EVE3.5.0/plugins/com.etas.evetools.toolsfolder_3.5.5/Tools/MinGW/bin/../lib/gcc/i686-w64-mingw32/8.1.0/../../../../i686-w64-mingw32/lib/../lib/libmingw32.a(lib32_libmingw32_a-dllargv.o)
                0x00416830                _setargv
 .text          0x00416840      0x140 C:/Program Files/ETAS/ISOLAR-EVE3.5.0/plugins/com.etas.evetools.toolsfolder_3.5.5/Tools/MinGW/bin/../lib/gcc/i686-w64-mingw32/8.1.0/../../../../i686-w64-mingw32/lib/../lib/libmingw32.a(lib32_libmingw32_a-gs_support.o)
                0x00416840                __security_init_cookie
                0x004168f0                __report_gsfailure
 .text          0x00416980        0x0 C:/Program Files/ETAS/ISOLAR-EVE3.5.0/plugins/com.etas.evetools.toolsfolder_3.5.5/Tools/MinGW/bin/../lib/gcc/i686-w64-mingw32/8.1.0/../../../../i686-w64-mingw32/lib/../lib/libmingw32.a(lib32_libmingw32_a-_newmode.o)
 .text          0x00416980       0xf0 C:/Program Files/ETAS/ISOLAR-EVE3.5.0/plugins/com.etas.evetools.toolsfolder_3.5.5/Tools/MinGW/bin/../lib/gcc/i686-w64-mingw32/8.1.0/../../../../i686-w64-mingw32/lib/../lib/libmingw32.a(lib32_libmingw32_a-tlssup.o)
                0x004169d0                __dyn_tls_init@12
                0x00416a60                __tlregdtor
 .text          0x00416a70        0x0 C:/Program Files/ETAS/ISOLAR-EVE3.5.0/plugins/com.etas.evetools.toolsfolder_3.5.5/Tools/MinGW/bin/../lib/gcc/i686-w64-mingw32/8.1.0/../../../../i686-w64-mingw32/lib/../lib/libmingw32.a(lib32_libmingw32_a-cinitexe.o)
 .text          0x00416a70       0xe0 C:/Program Files/ETAS/ISOLAR-EVE3.5.0/plugins/com.etas.evetools.toolsfolder_3.5.5/Tools/MinGW/bin/../lib/gcc/i686-w64-mingw32/8.1.0/../../../../i686-w64-mingw32/lib/../lib/libmingw32.a(lib32_libmingw32_a-merr.o)
                0x00416a70                __mingw_raise_matherr
                0x00416ac0                __mingw_setusermatherr
                0x00416ad0                _matherr
 .text          0x00416b50       0x10 C:/Program Files/ETAS/ISOLAR-EVE3.5.0/plugins/com.etas.evetools.toolsfolder_3.5.5/Tools/MinGW/bin/../lib/gcc/i686-w64-mingw32/8.1.0/../../../../i686-w64-mingw32/lib/../lib/libmingw32.a(lib32_libmingw32_a-CRT_fp10.o)
                0x00416b50                fpreset
                0x00416b50                _fpreset
 .text          0x00416b60       0x20 C:/Program Files/ETAS/ISOLAR-EVE3.5.0/plugins/com.etas.evetools.toolsfolder_3.5.5/Tools/MinGW/bin/../lib/gcc/i686-w64-mingw32/8.1.0/../../../../i686-w64-mingw32/lib/../lib/libmingw32.a(lib32_libmingw32_a-mingw_helpers.o)
                0x00416b60                _decode_pointer
                0x00416b70                _encode_pointer
 .text          0x00416b80      0x3d0 C:/Program Files/ETAS/ISOLAR-EVE3.5.0/plugins/com.etas.evetools.toolsfolder_3.5.5/Tools/MinGW/bin/../lib/gcc/i686-w64-mingw32/8.1.0/../../../../i686-w64-mingw32/lib/../lib/libmingw32.a(lib32_libmingw32_a-pseudo-reloc.o)
                0x00416cd0                _pei386_runtime_relocator
 .text          0x00416f50        0x0 C:/Program Files/ETAS/ISOLAR-EVE3.5.0/plugins/com.etas.evetools.toolsfolder_3.5.5/Tools/MinGW/bin/../lib/gcc/i686-w64-mingw32/8.1.0/../../../../i686-w64-mingw32/lib/../lib/libmingw32.a(lib32_libmingw32_a-xtxtmode.o)
 .text          0x00416f50      0x1a0 C:/Program Files/ETAS/ISOLAR-EVE3.5.0/plugins/com.etas.evetools.toolsfolder_3.5.5/Tools/MinGW/bin/../lib/gcc/i686-w64-mingw32/8.1.0/../../../../i686-w64-mingw32/lib/../lib/libmingw32.a(lib32_libmingw32_a-crt_handler.o)
                0x00416f50                _gnu_exception_handler@4
 .text          0x004170f0      0x270 C:/Program Files/ETAS/ISOLAR-EVE3.5.0/plugins/com.etas.evetools.toolsfolder_3.5.5/Tools/MinGW/bin/../lib/gcc/i686-w64-mingw32/8.1.0/../../../../i686-w64-mingw32/lib/../lib/libmingw32.a(lib32_libmingw32_a-tlsthrd.o)
                0x00417160                ___w64_mingwthr_add_key_dtor
                0x004171f0                ___w64_mingwthr_remove_key_dtor
                0x00417280                __mingw_TLScallback
 .text          0x00417360        0x0 C:/Program Files/ETAS/ISOLAR-EVE3.5.0/plugins/com.etas.evetools.toolsfolder_3.5.5/Tools/MinGW/bin/../lib/gcc/i686-w64-mingw32/8.1.0/../../../../i686-w64-mingw32/lib/../lib/libmingw32.a(lib32_libmingw32_a-tlsmcrt.o)
 .text          0x00417360        0x0 C:/Program Files/ETAS/ISOLAR-EVE3.5.0/plugins/com.etas.evetools.toolsfolder_3.5.5/Tools/MinGW/bin/../lib/gcc/i686-w64-mingw32/8.1.0/../../../../i686-w64-mingw32/lib/../lib/libmingw32.a(lib32_libmingw32_a-pseudo-reloc-list.o)
 .text          0x00417360      0x370 C:/Program Files/ETAS/ISOLAR-EVE3.5.0/plugins/com.etas.evetools.toolsfolder_3.5.5/Tools/MinGW/bin/../lib/gcc/i686-w64-mingw32/8.1.0/../../../../i686-w64-mingw32/lib/../lib/libmingw32.a(lib32_libmingw32_a-pesect.o)
                0x00417380                _ValidateImageBase
                0x004173a0                _FindPESection
                0x004173e0                _FindPESectionByName
                0x00417470                __mingw_GetSectionForAddress
                0x004174e0                __mingw_GetSectionCount
                0x00417510                _FindPESectionExec
                0x00417570                _GetPEImageBase
                0x004175a0                _IsNonwritableInCurrentImage
                0x00417620                __mingw_enum_import_library_names
 .text          0x004176d0       0x2c C:/Program Files/ETAS/ISOLAR-EVE3.5.0/plugins/com.etas.evetools.toolsfolder_3.5.5/Tools/MinGW/bin/../lib/gcc/i686-w64-mingw32/8.1.0/libgcc.a(_chkstk_ms.o)
                0x004176d0                __chkstk_ms
 .text          0x004176fc        0x0 C:/Program Files/ETAS/ISOLAR-EVE3.5.0/plugins/com.etas.evetools.toolsfolder_3.5.5/Tools/MinGW/bin/../lib/gcc/i686-w64-mingw32/8.1.0/libgcc.a(_ctors.o)
 *fill*         0x004176fc        0x4 
 .text          0x00417700      0x150 C:/Program Files/ETAS/ISOLAR-EVE3.5.0/plugins/com.etas.evetools.toolsfolder_3.5.5/Tools/MinGW/bin/../lib/gcc/i686-w64-mingw32/8.1.0/libgcc.a(_divdi3.o)
                0x00417700                __divdi3
 .text          0x00417850      0x410 C:/Program Files/ETAS/ISOLAR-EVE3.5.0/plugins/com.etas.evetools.toolsfolder_3.5.5/Tools/MinGW/bin/../lib/gcc/i686-w64-mingw32/8.1.0/libgcc.a(gthr-win32.o)
                0x00417850                __gthr_win32_once
                0x004178d0                __gthr_win32_key_create
                0x00417910                __gthr_win32_key_delete
                0x00417940                __gthr_win32_getspecific
                0x00417980                __gthr_win32_setspecific
                0x004179b0                __gthr_win32_mutex_init_function
                0x004179f0                __gthr_win32_mutex_destroy
                0x00417a10                __gthr_win32_mutex_lock
                0x00417a50                __gthr_win32_mutex_trylock
                0x00417a70                __gthr_win32_mutex_unlock
                0x00417ac0                __gthr_win32_recursive_mutex_init_function
                0x00417b10                __gthr_win32_recursive_mutex_lock
                0x00417b90                __gthr_win32_recursive_mutex_trylock
                0x00417be0                __gthr_win32_recursive_mutex_unlock
                0x00417c40                __gthr_win32_recursive_mutex_destroy
 .text          0x00417c60     0x25a0 C:/Program Files/ETAS/ISOLAR-EVE3.5.0/plugins/com.etas.evetools.toolsfolder_3.5.5/Tools/MinGW/bin/../lib/gcc/i686-w64-mingw32/8.1.0/libgcc_eh.a(unwind-dw2.o)
                0x00419ba0                _Unwind_GetGR
                0x00419bf0                _Unwind_GetCFA
                0x00419c00                _Unwind_SetGR
                0x00419c60                _Unwind_GetIP
                0x00419c70                _Unwind_GetIPInfo
                0x00419c90                _Unwind_SetIP
                0x00419ca0                _Unwind_GetLanguageSpecificData
                0x00419cb0                _Unwind_GetRegionStart
                0x00419cc0                _Unwind_FindEnclosingFunction
                0x00419cf0                _Unwind_GetDataRelBase
                0x00419d00                _Unwind_GetTextRelBase
                0x00419d10                __frame_state_for
                0x00419e10                _Unwind_RaiseException
                0x00419f60                _Unwind_ForcedUnwind
                0x0041a010                _Unwind_Resume
                0x0041a0b0                _Unwind_Resume_or_Rethrow
                0x0041a170                _Unwind_DeleteException
                0x0041a190                _Unwind_Backtrace
 .text          0x0041a200     0x17f0 C:/Program Files/ETAS/ISOLAR-EVE3.5.0/plugins/com.etas.evetools.toolsfolder_3.5.5/Tools/MinGW/bin/../lib/gcc/i686-w64-mingw32/8.1.0/libgcc_eh.a(unwind-dw2-fde.o)
                0x0041b4b0                __register_frame_info_bases
                0x0041b4e0                __register_frame_info
                0x0041b510                __register_frame
                0x0041b550                __register_frame_info_table_bases
                0x0041b6a0                __register_frame_info_table
                0x0041b6d0                __register_frame_table
                0x0041b710                __deregister_frame_info_bases
                0x0041b730                __deregister_frame_info
                0x0041b750                __deregister_frame
                0x0041b780                _Unwind_Find_FDE
 .text          0x0041b9f0      0x410 C:/Program Files/ETAS/ISOLAR-EVE3.5.0/plugins/com.etas.evetools.toolsfolder_3.5.5/Tools/MinGW/bin/../lib/gcc/i686-w64-mingw32/8.1.0/libgcc_eh.a(emutls.o)
                0x0041bb50                __emutls_get_address
                0x0041bdc0                __emutls_register_common
 .text          0x0041be00        0x0 C:/Program Files/ETAS/ISOLAR-EVE3.5.0/plugins/com.etas.evetools.toolsfolder_3.5.5/Tools/MinGW/bin/../lib/gcc/i686-w64-mingw32/8.1.0/../../../../i686-w64-mingw32/lib/../lib/libmingwex.a(lib32_libmingwex_a-mingw_matherr.o)
 .text          0x0041be00        0x8 C:/Program Files/ETAS/ISOLAR-EVE3.5.0/plugins/com.etas.evetools.toolsfolder_3.5.5/Tools/MinGW/bin/../lib/gcc/i686-w64-mingw32/8.1.0/../../../../i686-w64-mingw32/lib/../lib/libmsvcrt.a(dwbes01258.o)
                0x0041be00                vsprintf
 .text          0x0041be08        0x8 C:/Program Files/ETAS/ISOLAR-EVE3.5.0/plugins/com.etas.evetools.toolsfolder_3.5.5/Tools/MinGW/bin/../lib/gcc/i686-w64-mingw32/8.1.0/../../../../i686-w64-mingw32/lib/../lib/libmsvcrt.a(dwbes01253.o)
                0x0041be08                vfprintf
 .text          0x0041be10        0x8 C:/Program Files/ETAS/ISOLAR-EVE3.5.0/plugins/com.etas.evetools.toolsfolder_3.5.5/Tools/MinGW/bin/../lib/gcc/i686-w64-mingw32/8.1.0/../../../../i686-w64-mingw32/lib/../lib/libmsvcrt.a(dwbes01221.o)
                0x0041be10                strncpy
 .text          0x0041be18        0x8 C:/Program Files/ETAS/ISOLAR-EVE3.5.0/plugins/com.etas.evetools.toolsfolder_3.5.5/Tools/MinGW/bin/../lib/gcc/i686-w64-mingw32/8.1.0/../../../../i686-w64-mingw32/lib/../lib/libmsvcrt.a(dwbes01220.o)
                0x0041be18                strncmp
 .text          0x0041be20        0x8 C:/Program Files/ETAS/ISOLAR-EVE3.5.0/plugins/com.etas.evetools.toolsfolder_3.5.5/Tools/MinGW/bin/../lib/gcc/i686-w64-mingw32/8.1.0/../../../../i686-w64-mingw32/lib/../lib/libmsvcrt.a(dwbes01217.o)
                0x0041be20                strlen
 .text          0x0041be28        0x8 C:/Program Files/ETAS/ISOLAR-EVE3.5.0/plugins/com.etas.evetools.toolsfolder_3.5.5/Tools/MinGW/bin/../lib/gcc/i686-w64-mingw32/8.1.0/../../../../i686-w64-mingw32/lib/../lib/libmsvcrt.a(dwbes01212.o)
                0x0041be28                strcpy
 .text          0x0041be30        0x8 C:/Program Files/ETAS/ISOLAR-EVE3.5.0/plugins/com.etas.evetools.toolsfolder_3.5.5/Tools/MinGW/bin/../lib/gcc/i686-w64-mingw32/8.1.0/../../../../i686-w64-mingw32/lib/../lib/libmsvcrt.a(dwbes01210.o)
                0x0041be30                strcmp
 .text          0x0041be38        0x8 C:/Program Files/ETAS/ISOLAR-EVE3.5.0/plugins/com.etas.evetools.toolsfolder_3.5.5/Tools/MinGW/bin/../lib/gcc/i686-w64-mingw32/8.1.0/../../../../i686-w64-mingw32/lib/../lib/libmsvcrt.a(dwbes01207.o)
                0x0041be38                strcat
 .text          0x0041be40        0x8 C:/Program Files/ETAS/ISOLAR-EVE3.5.0/plugins/com.etas.evetools.toolsfolder_3.5.5/Tools/MinGW/bin/../lib/gcc/i686-w64-mingw32/8.1.0/../../../../i686-w64-mingw32/lib/../lib/libmsvcrt.a(dwbes01202.o)
                0x0041be40                sprintf
 .text          0x0041be48        0x8 C:/Program Files/ETAS/ISOLAR-EVE3.5.0/plugins/com.etas.evetools.toolsfolder_3.5.5/Tools/MinGW/bin/../lib/gcc/i686-w64-mingw32/8.1.0/../../../../i686-w64-mingw32/lib/../lib/libmsvcrt.a(dwbes01199.o)
                0x0041be48                signal
 .text          0x0041be50        0x8 C:/Program Files/ETAS/ISOLAR-EVE3.5.0/plugins/com.etas.evetools.toolsfolder_3.5.5/Tools/MinGW/bin/../lib/gcc/i686-w64-mingw32/8.1.0/../../../../i686-w64-mingw32/lib/../lib/libmsvcrt.a(dwbes01190.o)
                0x0041be50                realloc
 .text          0x0041be58        0x8 C:/Program Files/ETAS/ISOLAR-EVE3.5.0/plugins/com.etas.evetools.toolsfolder_3.5.5/Tools/MinGW/bin/../lib/gcc/i686-w64-mingw32/8.1.0/../../../../i686-w64-mingw32/lib/../lib/libmsvcrt.a(dwbes01174.o)
                0x0041be58                memset
 .text          0x0041be60        0x8 C:/Program Files/ETAS/ISOLAR-EVE3.5.0/plugins/com.etas.evetools.toolsfolder_3.5.5/Tools/MinGW/bin/../lib/gcc/i686-w64-mingw32/8.1.0/../../../../i686-w64-mingw32/lib/../lib/libmsvcrt.a(dwbes01172.o)
                0x0041be60                memcpy
 .text          0x0041be68        0x8 C:/Program Files/ETAS/ISOLAR-EVE3.5.0/plugins/com.etas.evetools.toolsfolder_3.5.5/Tools/MinGW/bin/../lib/gcc/i686-w64-mingw32/8.1.0/../../../../i686-w64-mingw32/lib/../lib/libmsvcrt.a(dwbes01163.o)
                0x0041be68                malloc
 .text          0x0041be70        0x8 C:/Program Files/ETAS/ISOLAR-EVE3.5.0/plugins/com.etas.evetools.toolsfolder_3.5.5/Tools/MinGW/bin/../lib/gcc/i686-w64-mingw32/8.1.0/../../../../i686-w64-mingw32/lib/../lib/libmsvcrt.a(dwbes01118.o)
                0x0041be70                fwrite
 .text          0x0041be78        0x8 C:/Program Files/ETAS/ISOLAR-EVE3.5.0/plugins/com.etas.evetools.toolsfolder_3.5.5/Tools/MinGW/bin/../lib/gcc/i686-w64-mingw32/8.1.0/../../../../i686-w64-mingw32/lib/../lib/libmsvcrt.a(dwbes01104.o)
                0x0041be78                free
 .text          0x0041be80        0x8 C:/Program Files/ETAS/ISOLAR-EVE3.5.0/plugins/com.etas.evetools.toolsfolder_3.5.5/Tools/MinGW/bin/../lib/gcc/i686-w64-mingw32/8.1.0/../../../../i686-w64-mingw32/lib/../lib/libmsvcrt.a(dwbes01100.o)
                0x0041be80                fputs
 .text          0x0041be88        0x8 C:/Program Files/ETAS/ISOLAR-EVE3.5.0/plugins/com.etas.evetools.toolsfolder_3.5.5/Tools/MinGW/bin/../lib/gcc/i686-w64-mingw32/8.1.0/../../../../i686-w64-mingw32/lib/../lib/libmsvcrt.a(dwbes01099.o)
                0x0041be88                fputc
 .text          0x0041be90        0x8 C:/Program Files/ETAS/ISOLAR-EVE3.5.0/plugins/com.etas.evetools.toolsfolder_3.5.5/Tools/MinGW/bin/../lib/gcc/i686-w64-mingw32/8.1.0/../../../../i686-w64-mingw32/lib/../lib/libmsvcrt.a(dwbes01097.o)
                0x0041be90                fprintf
 .text          0x0041be98        0x8 C:/Program Files/ETAS/ISOLAR-EVE3.5.0/plugins/com.etas.evetools.toolsfolder_3.5.5/Tools/MinGW/bin/../lib/gcc/i686-w64-mingw32/8.1.0/../../../../i686-w64-mingw32/lib/../lib/libmsvcrt.a(dwbes01095.o)
                0x0041be98                fopen
 .text          0x0041bea0        0x8 C:/Program Files/ETAS/ISOLAR-EVE3.5.0/plugins/com.etas.evetools.toolsfolder_3.5.5/Tools/MinGW/bin/../lib/gcc/i686-w64-mingw32/8.1.0/../../../../i686-w64-mingw32/lib/../lib/libmsvcrt.a(dwbes01087.o)
                0x0041bea0                fflush
 .text          0x0041bea8        0x8 C:/Program Files/ETAS/ISOLAR-EVE3.5.0/plugins/com.etas.evetools.toolsfolder_3.5.5/Tools/MinGW/bin/../lib/gcc/i686-w64-mingw32/8.1.0/../../../../i686-w64-mingw32/lib/../lib/libmsvcrt.a(dwbes01084.o)
                0x0041bea8                fclose
 .text          0x0041beb0        0x8 C:/Program Files/ETAS/ISOLAR-EVE3.5.0/plugins/com.etas.evetools.toolsfolder_3.5.5/Tools/MinGW/bin/../lib/gcc/i686-w64-mingw32/8.1.0/../../../../i686-w64-mingw32/lib/../lib/libmsvcrt.a(dwbes01081.o)
                0x0041beb0                exit
 .text          0x0041beb8        0x8 C:/Program Files/ETAS/ISOLAR-EVE3.5.0/plugins/com.etas.evetools.toolsfolder_3.5.5/Tools/MinGW/bin/../lib/gcc/i686-w64-mingw32/8.1.0/../../../../i686-w64-mingw32/lib/../lib/libmsvcrt.a(dwbes01076.o)
                0x0041beb8                calloc
 .text          0x0041bec0        0x8 C:/Program Files/ETAS/ISOLAR-EVE3.5.0/plugins/com.etas.evetools.toolsfolder_3.5.5/Tools/MinGW/bin/../lib/gcc/i686-w64-mingw32/8.1.0/../../../../i686-w64-mingw32/lib/../lib/libmsvcrt.a(dwbes01066.o)
                0x0041bec0                atoi
 .text          0x0041bec8        0x8 C:/Program Files/ETAS/ISOLAR-EVE3.5.0/plugins/com.etas.evetools.toolsfolder_3.5.5/Tools/MinGW/bin/../lib/gcc/i686-w64-mingw32/8.1.0/../../../../i686-w64-mingw32/lib/../lib/libmsvcrt.a(dwbes01057.o)
                0x0041bec8                abort
 .text          0x0041bed0        0x8 C:/Program Files/ETAS/ISOLAR-EVE3.5.0/plugins/com.etas.evetools.toolsfolder_3.5.5/Tools/MinGW/bin/../lib/gcc/i686-w64-mingw32/8.1.0/../../../../i686-w64-mingw32/lib/../lib/libmsvcrt.a(dwbes01010.o)
                0x0041bed0                write
 .text          0x0041bed8        0x8 C:/Program Files/ETAS/ISOLAR-EVE3.5.0/plugins/com.etas.evetools.toolsfolder_3.5.5/Tools/MinGW/bin/../lib/gcc/i686-w64-mingw32/8.1.0/../../../../i686-w64-mingw32/lib/../lib/libmsvcrt.a(dwbes00629.o)
                0x0041bed8                _onexit
 .text          0x0041bee0        0x8 C:/Program Files/ETAS/ISOLAR-EVE3.5.0/plugins/com.etas.evetools.toolsfolder_3.5.5/Tools/MinGW/bin/../lib/gcc/i686-w64-mingw32/8.1.0/../../../../i686-w64-mingw32/lib/../lib/libmsvcrt.a(dwbes00351.o)
                0x0041bee0                _initterm
 .text          0x0041bee8        0x8 C:/Program Files/ETAS/ISOLAR-EVE3.5.0/plugins/com.etas.evetools.toolsfolder_3.5.5/Tools/MinGW/bin/../lib/gcc/i686-w64-mingw32/8.1.0/../../../../i686-w64-mingw32/lib/../lib/libmsvcrt.a(dwbes00161.o)
                0x0041bee8                _cexit
 .text          0x0041bef0        0x8 C:/Program Files/ETAS/ISOLAR-EVE3.5.0/plugins/com.etas.evetools.toolsfolder_3.5.5/Tools/MinGW/bin/../lib/gcc/i686-w64-mingw32/8.1.0/../../../../i686-w64-mingw32/lib/../lib/libmsvcrt.a(dwbes00144.o)
                0x0041bef0                _amsg_exit
 .text          0x0041bef8        0x8 C:/Program Files/ETAS/ISOLAR-EVE3.5.0/plugins/com.etas.evetools.toolsfolder_3.5.5/Tools/MinGW/bin/../lib/gcc/i686-w64-mingw32/8.1.0/../../../../i686-w64-mingw32/lib/../lib/libmsvcrt.a(dwbes00107.o)
                0x0041bef8                __setusermatherr
 .text          0x0041bf00        0x8 C:/Program Files/ETAS/ISOLAR-EVE3.5.0/plugins/com.etas.evetools.toolsfolder_3.5.5/Tools/MinGW/bin/../lib/gcc/i686-w64-mingw32/8.1.0/../../../../i686-w64-mingw32/lib/../lib/libmsvcrt.a(dwbes00104.o)
                0x0041bf00                __set_app_type
 .text          0x0041bf08        0x8 C:/Program Files/ETAS/ISOLAR-EVE3.5.0/plugins/com.etas.evetools.toolsfolder_3.5.5/Tools/MinGW/bin/../lib/gcc/i686-w64-mingw32/8.1.0/../../../../i686-w64-mingw32/lib/../lib/libmsvcrt.a(dwbes00083.o)
                0x0041bf08                __p__fmode
 .text          0x0041bf10        0x8 C:/Program Files/ETAS/ISOLAR-EVE3.5.0/plugins/com.etas.evetools.toolsfolder_3.5.5/Tools/MinGW/bin/../lib/gcc/i686-w64-mingw32/8.1.0/../../../../i686-w64-mingw32/lib/../lib/libmsvcrt.a(dwbes00076.o)
                0x0041bf10                __p__acmdln
 .text          0x0041bf18        0x0 C:/Program Files/ETAS/ISOLAR-EVE3.5.0/plugins/com.etas.evetools.toolsfolder_3.5.5/Tools/MinGW/bin/../lib/gcc/i686-w64-mingw32/8.1.0/../../../../i686-w64-mingw32/lib/../lib/libmsvcrt.a(dwbes00059.o)
 .text          0x0041bf18        0x8 C:/Program Files/ETAS/ISOLAR-EVE3.5.0/plugins/com.etas.evetools.toolsfolder_3.5.5/Tools/MinGW/bin/../lib/gcc/i686-w64-mingw32/8.1.0/../../../../i686-w64-mingw32/lib/../lib/libmsvcrt.a(dwbes00058.o)
                0x0041bf18                __getmainargs
 .text          0x0041bf20       0x10 C:/Program Files/ETAS/ISOLAR-EVE3.5.0/plugins/com.etas.evetools.toolsfolder_3.5.5/Tools/MinGW/bin/../lib/gcc/i686-w64-mingw32/8.1.0/../../../../i686-w64-mingw32/lib/../lib/libmsvcrt.a(lib32_libmsvcrt_os_a-acrt_iob_func.o)
                0x0041bf20                __acrt_iob_func
 .text          0x0041bf30       0x20 C:/Program Files/ETAS/ISOLAR-EVE3.5.0/plugins/com.etas.evetools.toolsfolder_3.5.5/Tools/MinGW/bin/../lib/gcc/i686-w64-mingw32/8.1.0/../../../../i686-w64-mingw32/lib/../lib/libmsvcrt.a(lib32_libmsvcrt_os_a-invalid_parameter_handler.o)
                0x0041bf30                _get_invalid_parameter_handler
                0x0041bf40                _set_invalid_parameter_handler
 .text          0x0041bf50        0x0 C:/Program Files/ETAS/ISOLAR-EVE3.5.0/plugins/com.etas.evetools.toolsfolder_3.5.5/Tools/MinGW/bin/../lib/gcc/i686-w64-mingw32/8.1.0/../../../../i686-w64-mingw32/lib/../lib/libmsvcrt.a(dwbeh.o)
 .text          0x0041bf50        0x0 C:/Program Files/ETAS/ISOLAR-EVE3.5.0/plugins/com.etas.evetools.toolsfolder_3.5.5/Tools/MinGW/bin/../lib/gcc/i686-w64-mingw32/8.1.0/../../../../i686-w64-mingw32/lib/../lib/libmsvcrt.a(dwbes00355.o)
 .text          0x0041bf50        0x0 C:/Program Files/ETAS/ISOLAR-EVE3.5.0/plugins/com.etas.evetools.toolsfolder_3.5.5/Tools/MinGW/bin/../lib/gcc/i686-w64-mingw32/8.1.0/../../../../i686-w64-mingw32/lib/../lib/libmsvcrt.a(dwbet.o)
 .text          0x0041bf50        0x0 C:/Program Files/ETAS/ISOLAR-EVE3.5.0/plugins/com.etas.evetools.toolsfolder_3.5.5/Tools/MinGW/bin/../lib/gcc/i686-w64-mingw32/8.1.0/../../../../i686-w64-mingw32/lib/../lib/libuser32.a(dmceh.o)
 .text          0x0041bf50        0x0 C:/Program Files/ETAS/ISOLAR-EVE3.5.0/plugins/com.etas.evetools.toolsfolder_3.5.5/Tools/MinGW/bin/../lib/gcc/i686-w64-mingw32/8.1.0/../../../../i686-w64-mingw32/lib/../lib/libuser32.a(dmcet.o)
 .text          0x0041bf50        0x0 C:/Program Files/ETAS/ISOLAR-EVE3.5.0/plugins/com.etas.evetools.toolsfolder_3.5.5/Tools/MinGW/bin/../lib/gcc/i686-w64-mingw32/8.1.0/../../../../i686-w64-mingw32/lib/../lib/libkernel32.a(dgzch.o)
 .text          0x0041bf50        0x0 C:/Program Files/ETAS/ISOLAR-EVE3.5.0/plugins/com.etas.evetools.toolsfolder_3.5.5/Tools/MinGW/bin/../lib/gcc/i686-w64-mingw32/8.1.0/../../../../i686-w64-mingw32/lib/../lib/libkernel32.a(dgzct.o)
 .text          0x0041bf50       0x30 C:/Program Files/ETAS/ISOLAR-EVE3.5.0/plugins/com.etas.evetools.toolsfolder_3.5.5/Tools/MinGW/bin/../lib/gcc/i686-w64-mingw32/8.1.0/../../../../i686-w64-mingw32/lib/../lib/libmingw32.a(lib32_libmingw32_a-tlsmthread.o)
                0x0041bf50                __mingwthr_remove_key_dtor
                0x0041bf60                __mingwthr_key_dtor
 .text          0x0041bf80        0x0 C:/Program Files/ETAS/ISOLAR-EVE3.5.0/plugins/com.etas.evetools.toolsfolder_3.5.5/Tools/MinGW/bin/../lib/gcc/i686-w64-mingw32/8.1.0/crtend.o
 *(SORT_BY_NAME(.text$*))
 .text$_ZGTtNKSt13bad_exceptionD1Ev
                0x0041bf80       0x10 C:/Program Files/ETAS/ISOLAR-EVE3.5.0/plugins/com.etas.evetools.toolsfolder_3.5.5/Tools/MinGW/bin/../lib/gcc/i686-w64-mingw32/8.1.0\libstdc++.a(eh_exception.o)
                0x0041bf80                transaction clone for std::bad_exception::~bad_exception() const
 .text$_ZGTtNKSt9exceptionD1Ev
                0x0041bf90       0x10 C:/Program Files/ETAS/ISOLAR-EVE3.5.0/plugins/com.etas.evetools.toolsfolder_3.5.5/Tools/MinGW/bin/../lib/gcc/i686-w64-mingw32/8.1.0\libstdc++.a(eh_exception.o)
                0x0041bf90                transaction clone for std::exception::~exception() const
 .text$_ZL15get_ttype_entryP16lsda_header_infom
                0x0041bfa0       0x80 C:/Program Files/ETAS/ISOLAR-EVE3.5.0/plugins/com.etas.evetools.toolsfolder_3.5.5/Tools/MinGW/bin/../lib/gcc/i686-w64-mingw32/8.1.0\libstdc++.a(eh_personality.o)
 .text$_ZL16get_adjusted_ptrPKSt9type_infoS1_PPv
                0x0041c020       0x60 C:/Program Files/ETAS/ISOLAR-EVE3.5.0/plugins/com.etas.evetools.toolsfolder_3.5.5/Tools/MinGW/bin/../lib/gcc/i686-w64-mingw32/8.1.0\libstdc++.a(eh_personality.o)
 .text$_ZL17parse_lsda_headerP15_Unwind_ContextPKhP16lsda_header_info
                0x0041c080       0xe0 C:/Program Files/ETAS/ISOLAR-EVE3.5.0/plugins/com.etas.evetools.toolsfolder_3.5.5/Tools/MinGW/bin/../lib/gcc/i686-w64-mingw32/8.1.0\libstdc++.a(eh_personality.o)
 .text$_ZL20check_exception_specP16lsda_header_infoPKSt9type_infoPvl
                0x0041c160       0x70 C:/Program Files/ETAS/ISOLAR-EVE3.5.0/plugins/com.etas.evetools.toolsfolder_3.5.5/Tools/MinGW/bin/../lib/gcc/i686-w64-mingw32/8.1.0\libstdc++.a(eh_personality.o)
 .text$_ZL21base_of_encoded_valuehP15_Unwind_Context
                0x0041c1d0       0x60 C:/Program Files/ETAS/ISOLAR-EVE3.5.0/plugins/com.etas.evetools.toolsfolder_3.5.5/Tools/MinGW/bin/../lib/gcc/i686-w64-mingw32/8.1.0\libstdc++.a(eh_personality.o)
 .text$_ZL23__gxx_exception_cleanup19_Unwind_Reason_CodeP17_Unwind_Exception
                0x0041c230       0x50 C:/Program Files/ETAS/ISOLAR-EVE3.5.0/plugins/com.etas.evetools.toolsfolder_3.5.5/Tools/MinGW/bin/../lib/gcc/i686-w64-mingw32/8.1.0\libstdc++.a(eh_throw.o)
 .text$_ZL28read_encoded_value_with_basehjPKhPj
                0x0041c280      0x140 C:/Program Files/ETAS/ISOLAR-EVE3.5.0/plugins/com.etas.evetools.toolsfolder_3.5.5/Tools/MinGW/bin/../lib/gcc/i686-w64-mingw32/8.1.0\libstdc++.a(eh_personality.o)
 .text$_ZN10__cxxabiv111__terminateEPFvvE
                0x0041c3c0       0x20 C:/Program Files/ETAS/ISOLAR-EVE3.5.0/plugins/com.etas.evetools.toolsfolder_3.5.5/Tools/MinGW/bin/../lib/gcc/i686-w64-mingw32/8.1.0\libstdc++.a(eh_terminate.o)
                0x0041c3c0                __cxxabiv1::__terminate(void (*)())
 .text$_ZN10__cxxabiv112__unexpectedEPFvvE
                0x0041c3e0       0x10 C:/Program Files/ETAS/ISOLAR-EVE3.5.0/plugins/com.etas.evetools.toolsfolder_3.5.5/Tools/MinGW/bin/../lib/gcc/i686-w64-mingw32/8.1.0\libstdc++.a(eh_terminate.o)
                0x0041c3e0                __cxxabiv1::__unexpected(void (*)())
 .text$_ZN10__cxxabiv115__forced_unwindD0Ev
                0x0041c3f0       0x20 C:/Program Files/ETAS/ISOLAR-EVE3.5.0/plugins/com.etas.evetools.toolsfolder_3.5.5/Tools/MinGW/bin/../lib/gcc/i686-w64-mingw32/8.1.0\libstdc++.a(eh_exception.o)
                0x0041c3f0                __cxxabiv1::__forced_unwind::~__forced_unwind()
 .text$_ZN10__cxxabiv115__forced_unwindD2Ev
                0x0041c410       0x10 C:/Program Files/ETAS/ISOLAR-EVE3.5.0/plugins/com.etas.evetools.toolsfolder_3.5.5/Tools/MinGW/bin/../lib/gcc/i686-w64-mingw32/8.1.0\libstdc++.a(eh_exception.o)
                0x0041c410                __cxxabiv1::__forced_unwind::~__forced_unwind()
                0x0041c410                __cxxabiv1::__forced_unwind::~__forced_unwind()
 .text$_ZN10__cxxabiv117__class_type_infoD0Ev
                0x0041c420       0x30 C:/Program Files/ETAS/ISOLAR-EVE3.5.0/plugins/com.etas.evetools.toolsfolder_3.5.5/Tools/MinGW/bin/../lib/gcc/i686-w64-mingw32/8.1.0\libstdc++.a(class_type_info.o)
                0x0041c420                __cxxabiv1::__class_type_info::~__class_type_info()
 .text$_ZN10__cxxabiv117__class_type_infoD2Ev
                0x0041c450       0x10 C:/Program Files/ETAS/ISOLAR-EVE3.5.0/plugins/com.etas.evetools.toolsfolder_3.5.5/Tools/MinGW/bin/../lib/gcc/i686-w64-mingw32/8.1.0\libstdc++.a(class_type_info.o)
                0x0041c450                __cxxabiv1::__class_type_info::~__class_type_info()
                0x0041c450                __cxxabiv1::__class_type_info::~__class_type_info()
 .text$_ZN10__cxxabiv119__foreign_exceptionD0Ev
                0x0041c460       0x20 C:/Program Files/ETAS/ISOLAR-EVE3.5.0/plugins/com.etas.evetools.toolsfolder_3.5.5/Tools/MinGW/bin/../lib/gcc/i686-w64-mingw32/8.1.0\libstdc++.a(eh_exception.o)
                0x0041c460                __cxxabiv1::__foreign_exception::~__foreign_exception()
 .text$_ZN10__cxxabiv119__foreign_exceptionD2Ev
                0x0041c480       0x10 C:/Program Files/ETAS/ISOLAR-EVE3.5.0/plugins/com.etas.evetools.toolsfolder_3.5.5/Tools/MinGW/bin/../lib/gcc/i686-w64-mingw32/8.1.0\libstdc++.a(eh_exception.o)
                0x0041c480                __cxxabiv1::__foreign_exception::~__foreign_exception()
                0x0041c480                __cxxabiv1::__foreign_exception::~__foreign_exception()
 .text$_ZN10__cxxabiv120__si_class_type_infoD0Ev
                0x0041c490       0x30 C:/Program Files/ETAS/ISOLAR-EVE3.5.0/plugins/com.etas.evetools.toolsfolder_3.5.5/Tools/MinGW/bin/../lib/gcc/i686-w64-mingw32/8.1.0\libstdc++.a(si_class_type_info.o)
                0x0041c490                __cxxabiv1::__si_class_type_info::~__si_class_type_info()
 .text$_ZN10__cxxabiv120__si_class_type_infoD2Ev
                0x0041c4c0       0x10 C:/Program Files/ETAS/ISOLAR-EVE3.5.0/plugins/com.etas.evetools.toolsfolder_3.5.5/Tools/MinGW/bin/../lib/gcc/i686-w64-mingw32/8.1.0\libstdc++.a(si_class_type_info.o)
                0x0041c4c0                __cxxabiv1::__si_class_type_info::~__si_class_type_info()
                0x0041c4c0                __cxxabiv1::__si_class_type_info::~__si_class_type_info()
 .text$_ZN10__cxxabiv121__vmi_class_type_infoD0Ev
                0x0041c4d0       0x30 C:/Program Files/ETAS/ISOLAR-EVE3.5.0/plugins/com.etas.evetools.toolsfolder_3.5.5/Tools/MinGW/bin/../lib/gcc/i686-w64-mingw32/8.1.0\libstdc++.a(vmi_class_type_info.o)
                0x0041c4d0                __cxxabiv1::__vmi_class_type_info::~__vmi_class_type_info()
 .text$_ZN10__cxxabiv121__vmi_class_type_infoD2Ev
                0x0041c500       0x10 C:/Program Files/ETAS/ISOLAR-EVE3.5.0/plugins/com.etas.evetools.toolsfolder_3.5.5/Tools/MinGW/bin/../lib/gcc/i686-w64-mingw32/8.1.0\libstdc++.a(vmi_class_type_info.o)
                0x0041c500                __cxxabiv1::__vmi_class_type_info::~__vmi_class_type_info()
                0x0041c500                __cxxabiv1::__vmi_class_type_info::~__vmi_class_type_info()
 .text$_ZN10vrtaDevice17GetPersistentDataEv
                0x0041c510       0x10 RTAOS.lib(vrtaCore.o)
                0x0041c510                vrtaDevice::GetPersistentData()
 .text$_ZN10vrtaDevice17SetPersistentDataEPht
                0x0041c520       0x10 RTAOS.lib(vrtaCore.o)
                0x0041c520                vrtaDevice::SetPersistentData(unsigned char*, unsigned short)
 .text$_ZN10vrtaDevice21GetPersistentDataSizeEv
                0x0041c530       0x10 RTAOS.lib(vrtaCore.o)
                0x0041c530                vrtaDevice::GetPersistentDataSize()
 .text$_ZN10vrtaSensor17GetPersistentDataEv
                0x0041c540       0x40 RTAOS.lib(vrtaSampleDevices.o)
                0x0041c540                vrtaSensor::GetPersistentData()
 .text$_ZN10vrtaSensor21GetPersistentDataSizeEv
                0x0041c580       0x10 RTAOS.lib(vrtaSampleDevices.o)
                0x0041c580                vrtaSensor::GetPersistentDataSize()
 .text$_ZN10vrtaSensor8StartingEv
                0x0041c590       0x10 RTAOS.lib(vrtaSampleDevices.o)
                0x0041c590                vrtaSensor::Starting()
 .text$_ZN10vrtaSensor8StoppingEv
                0x0041c5a0       0x10 RTAOS.lib(vrtaSampleDevices.o)
                0x0041c5a0                vrtaSensor::Stopping()
 .text$_ZN11vrtaCompare17GetPersistentDataEv
                0x0041c5b0       0x10 RTAOS.lib(vrtaSampleDevices.o)
                0x0041c5b0                vrtaCompare::GetPersistentData()
 .text$_ZN11vrtaCompare21GetPersistentDataSizeEv
                0x0041c5c0       0x10 RTAOS.lib(vrtaSampleDevices.o)
                0x0041c5c0                vrtaCompare::GetPersistentDataSize()
 .text$_ZN11vrtaCompare8StartingEv
                0x0041c5d0       0x10 RTAOS.lib(vrtaSampleDevices.o)
                0x0041c5d0                vrtaCompare::Starting()
 .text$_ZN11vrtaCompare8StoppingEv
                0x0041c5e0       0x10 RTAOS.lib(vrtaSampleDevices.o)
                0x0041c5e0                vrtaCompare::Stopping()
 .text$_ZN11vrtaCounter17GetPersistentDataEv
                0x0041c5f0       0x40 RTAOS.lib(vrtaSampleDevices.o)
                0x0041c5f0                vrtaCounter::GetPersistentData()
 .text$_ZN11vrtaCounter21GetPersistentDataSizeEv
                0x0041c630       0x10 RTAOS.lib(vrtaSampleDevices.o)
                0x0041c630                vrtaCounter::GetPersistentDataSize()
 .text$_ZN12_GLOBAL__N_14pool4freeEPv.constprop.2
                0x0041c640      0x150 C:/Program Files/ETAS/ISOLAR-EVE3.5.0/plugins/com.etas.evetools.toolsfolder_3.5.5/Tools/MinGW/bin/../lib/gcc/i686-w64-mingw32/8.1.0\libstdc++.a(eh_alloc.o)
 .text$_ZN12_GLOBAL__N_14pool8allocateEj.constprop.3
                0x0041c790      0x120 C:/Program Files/ETAS/ISOLAR-EVE3.5.0/plugins/com.etas.evetools.toolsfolder_3.5.5/Tools/MinGW/bin/../lib/gcc/i686-w64-mingw32/8.1.0\libstdc++.a(eh_alloc.o)
 .text$_ZN12vrtaActuator17GetPersistentDataEv
                0x0041c8b0       0x40 RTAOS.lib(vrtaSampleDevices.o)
                0x0041c8b0                vrtaActuator::GetPersistentData()
 .text$_ZN12vrtaActuator21GetPersistentDataSizeEv
                0x0041c8f0       0x10 RTAOS.lib(vrtaSampleDevices.o)
                0x0041c8f0                vrtaActuator::GetPersistentDataSize()
 .text$_ZN12vrtaActuator8StartingEv
                0x0041c900       0x10 RTAOS.lib(vrtaSampleDevices.o)
                0x0041c900                vrtaActuator::Starting()
 .text$_ZN12vrtaActuator8StoppingEv
                0x0041c910       0x10 RTAOS.lib(vrtaSampleDevices.o)
                0x0041c910                vrtaActuator::Stopping()
 .text$_ZN13VirtualDevice10ActionListD0Ev
                0x0041c920       0x30 RTAOS.lib(virtualDevice.o)
                0x0041c920                VirtualDevice::ActionList::~ActionList()
 .text$_ZN13VirtualDevice10ActionListD1Ev
                0x0041c950       0x30 RTAOS.lib(virtualDevice.o)
                0x0041c950                VirtualDevice::ActionList::~ActionList()
 .text$_ZN13VirtualDevice7OptListD0Ev
                0x0041c980       0x30 RTAOS.lib(virtualDevice.o)
                0x0041c980                VirtualDevice::OptList::~OptList()
 .text$_ZN13VirtualDevice7OptListD1Ev
                0x0041c9b0       0x30 RTAOS.lib(virtualDevice.o)
                0x0041c9b0                VirtualDevice::OptList::~OptList()
 .text$_ZN13VirtualDevice8StartingEv
                0x0041c9e0       0x10 RTAOS.lib(vrtaOSMonitorDevice.o)
                0x0041c9e0                VirtualDevice::Starting()
 .text$_ZN13VirtualDevice8StoppingEv
                0x0041c9f0       0x10 RTAOS.lib(vrtaOSMonitorDevice.o)
                0x0041c9f0                VirtualDevice::Stopping()
 .text$_ZN13VirtualDevice9EventListD0Ev
                0x0041ca00       0x30 RTAOS.lib(virtualDevice.o)
                0x0041ca00                VirtualDevice::EventList::~EventList()
 .text$_ZN13VirtualDevice9EventListD1Ev
                0x0041ca30       0x30 RTAOS.lib(virtualDevice.o)
                0x0041ca30                VirtualDevice::EventList::~EventList()
 .text$_ZN13vrtaBaseClock17GetPersistentDataEv
                0x0041ca60       0x20 RTAOS.lib(vrtaSampleDevices.o)
                0x0041ca60                vrtaBaseClock::GetPersistentData()
 .text$_ZN13vrtaBaseClock21GetPersistentDataSizeEv
                0x0041ca80       0x10 RTAOS.lib(vrtaSampleDevices.o)
                0x0041ca80                vrtaBaseClock::GetPersistentDataSize()
 .text$_ZN13vrtaBaseClock4StopEv
                0x0041ca90       0x10 RTAOS.lib(vrtaSampleDevices.o)
                0x0041ca90                vrtaBaseClock::Stop()
 .text$_ZN13vrtaBaseClock8StoppingEv
                0x0041caa0       0x10 RTAOS.lib(vrtaSampleDevices.o)
                0x0041caa0                vrtaBaseClock::Stopping()
 .text$_ZN13vrtaUpCounterC1EPcR13vrtaBaseClock
                0x0041cab0       0x3c EVE_SystemClock.o
                0x0041cab0                vrtaUpCounter::vrtaUpCounter(char*, vrtaBaseClock&)
 *fill*         0x0041caec        0x4 
 .text$_ZN14vrtaComparable17GetPersistentDataEv
                0x0041caf0       0x10 RTAOS.lib(vrtaSampleDevices.o)
                0x0041caf0                vrtaComparable::GetPersistentData()
 .text$_ZN14vrtaComparable21GetPersistentDataSizeEv
                0x0041cb00       0x10 RTAOS.lib(vrtaSampleDevices.o)
                0x0041cb00                vrtaComparable::GetPersistentDataSize()
 .text$_ZN14vrtaComparable5ValueEv
                0x0041cb10       0x14 EVE_SystemClock.o
                0x0041cb10                vrtaComparable::Value()
 *fill*         0x0041cb24        0xc 
 .text$_ZN14vrtaComparable6SetValEj
                0x0041cb30       0x10 RTAOS.lib(vrtaSampleDevices.o)
                0x0041cb30                vrtaComparable::SetVal(unsigned int)
 .text$_ZN14vrtaComparable8SetValueEj
                0x0041cb40       0x28 virtualdevices.o
                0x0041cb40                vrtaComparable::SetValue(unsigned int)
 *fill*         0x0041cb68        0x8 
 .text$_ZN17SystemClockDevice10AutoActionERK10vrtaAction
                0x0041cb70       0x40 RTAOS.lib(vrtaSystemClockDevice.o)
                0x0041cb70                SystemClockDevice::AutoAction(vrtaAction const&)
 .text$_ZN17SystemClockDevice10CSLIFEventER9vrtaEvent
                0x0041cbb0       0x50 RTAOS.lib(vrtaSystemClockDevice.o)
                0x0041cbb0                SystemClockDevice::CSLIFEvent(vrtaEvent&)
 .text$_ZN17SystemClockDevice10ScaleEventER9vrtaEvent
                0x0041cc00       0x30 RTAOS.lib(vrtaSystemClockDevice.o)
                0x0041cc00                SystemClockDevice::ScaleEvent(vrtaEvent&)
 .text$_ZN17SystemClockDevice10TicksEventER9vrtaEvent
                0x0041cc30       0x20 RTAOS.lib(vrtaSystemClockDevice.o)
                0x0041cc30                SystemClockDevice::TicksEvent(vrtaEvent&)
 .text$_ZN17SystemClockDevice11DirectEventER9vrtaEvent
                0x0041cc50       0x90 RTAOS.lib(vrtaSystemClockDevice.o)
                0x0041cc50                SystemClockDevice::DirectEvent(vrtaEvent&)
 .text$_ZN17SystemClockDevice11PauseActionERK10vrtaAction
                0x0041cce0       0x40 RTAOS.lib(vrtaSystemClockDevice.o)
                0x0041cce0                SystemClockDevice::PauseAction(vrtaAction const&)
 .text$_ZN17SystemClockDevice11ScaleActionERK10vrtaAction
                0x0041cd20       0x40 RTAOS.lib(vrtaSystemClockDevice.o)
                0x0041cd20                SystemClockDevice::ScaleAction(vrtaAction const&)
 .text$_ZN17SystemClockDevice11TickEndDataER9vrtaEvent
                0x0041cd60       0x90 RTAOS.lib(vrtaSystemClockDevice.o)
                0x0041cd60                SystemClockDevice::TickEndData(vrtaEvent&)
 .text$_ZN17SystemClockDevice12DirectActionERK10vrtaAction
                0x0041cdf0       0x40 RTAOS.lib(vrtaSystemClockDevice.o)
                0x0041cdf0                SystemClockDevice::DirectAction(vrtaAction const&)
 .text$_ZN17SystemClockDevice12DirectFreezeERK10vrtaAction
                0x0041ce30       0x30 RTAOS.lib(vrtaSystemClockDevice.o)
                0x0041ce30                SystemClockDevice::DirectFreeze(vrtaAction const&)
 .text$_ZN17SystemClockDevice12ResumeActionERK10vrtaAction
                0x0041ce60       0x40 RTAOS.lib(vrtaSystemClockDevice.o)
                0x0041ce60                SystemClockDevice::ResumeAction(vrtaAction const&)
 .text$_ZN17SystemClockDevice13GetDeviceInfoERN13VirtualDevice7OptListE
                0x0041cea0       0x60 RTAOS.lib(vrtaSystemClockDevice.o)
                0x0041cea0                SystemClockDevice::GetDeviceInfo(VirtualDevice::OptList&)
 .text$_ZN17SystemClockDevice13MonitorEventsERK10vrtaAction
                0x0041cf00       0xa0 RTAOS.lib(vrtaSystemClockDevice.o)
                0x0041cf00                SystemClockDevice::MonitorEvents(vrtaAction const&)
 .text$_ZN17SystemClockDevice13StrategyEventER9vrtaEvent
                0x0041cfa0       0x40 RTAOS.lib(vrtaSystemClockDevice.o)
                0x0041cfa0                SystemClockDevice::StrategyEvent(vrtaEvent&)
 .text$_ZN17SystemClockDevice13UpdateAndTickERK10vrtaAction
                0x0041cfe0       0xe0 RTAOS.lib(vrtaSystemClockDevice.o)
                0x0041cfe0                SystemClockDevice::UpdateAndTick(vrtaAction const&)
 .text$_ZN17SystemClockDevice14IdleTickActionERK10vrtaAction
                0x0041d0c0       0x40 RTAOS.lib(vrtaSystemClockDevice.o)
                0x0041d0c0                SystemClockDevice::IdleTickAction(vrtaAction const&)
 .text$_ZN17SystemClockDevice14StrategyActionERK10vrtaAction
                0x0041d100       0x50 RTAOS.lib(vrtaSystemClockDevice.o)
                0x0041d100                SystemClockDevice::StrategyAction(vrtaAction const&)
 .text$_ZN17SystemClockDevice15DirectTickYieldERK10vrtaAction
                0x0041d150       0x30 RTAOS.lib(vrtaSystemClockDevice.o)
                0x0041d150                SystemClockDevice::DirectTickYield(vrtaAction const&)
 .text$_ZN17SystemClockDevice15GetDeviceEventsERN13VirtualDevice9EventListE
                0x0041d180      0x3c0 RTAOS.lib(vrtaSystemClockDevice.o)
                0x0041d180                SystemClockDevice::GetDeviceEvents(VirtualDevice::EventList&)
 .text$_ZN17SystemClockDevice16GetDeviceActionsERN13VirtualDevice10ActionListE
                0x0041d540      0x3e0 RTAOS.lib(vrtaSystemClockDevice.o)
                0x0041d540                SystemClockDevice::GetDeviceActions(VirtualDevice::ActionList&)
 .text$_ZN17SystemClockDevice17GetPersistentDataEv
                0x0041d920       0x10 RTAOS.lib(vrtaSystemClockDevice.o)
                0x0041d920                SystemClockDevice::GetPersistentData()
 .text$_ZN17SystemClockDevice17SetPersistentDataEPht
                0x0041d930       0xa0 RTAOS.lib(vrtaSystemClockDevice.o)
                0x0041d930                SystemClockDevice::SetPersistentData(unsigned char*, unsigned short)
 .text$_ZN17SystemClockDevice19TicksRemainingEventER9vrtaEvent
                0x0041d9d0       0x30 RTAOS.lib(vrtaSystemClockDevice.o)
                0x0041d9d0                SystemClockDevice::TicksRemainingEvent(vrtaEvent&)
 .text$_ZN17SystemClockDevice20DirectTickYieldEventER9vrtaEvent
                0x0041da00       0x40 RTAOS.lib(vrtaSystemClockDevice.o)
                0x0041da00                SystemClockDevice::DirectTickYieldEvent(vrtaEvent&)
 .text$_ZN17SystemClockDevice21GetPersistentDataSizeEv
                0x0041da40       0x10 RTAOS.lib(vrtaSystemClockDevice.o)
                0x0041da40                SystemClockDevice::GetPersistentDataSize()
 .text$_ZN17SystemClockDevice5CSLIFERK10vrtaAction
                0x0041da50      0x1e0 RTAOS.lib(vrtaSystemClockDevice.o)
                0x0041da50                SystemClockDevice::CSLIF(vrtaAction const&)
 .text$_ZN17SystemClockDevice7MSEventER9vrtaEvent
                0x0041dc30       0x30 RTAOS.lib(vrtaSystemClockDevice.o)
                0x0041dc30                SystemClockDevice::MSEvent(vrtaEvent&)
 .text$_ZN17SystemClockDevice9ModeEventER9vrtaEvent
                0x0041dc60       0x60 RTAOS.lib(vrtaSystemClockDevice.o)
                0x0041dc60                SystemClockDevice::ModeEvent(vrtaEvent&)
 .text$_ZN17SystemClockDeviceD0Ev
                0x0041dcc0       0x30 RTAOS.lib(vrtaSystemClockDevice.o)
                0x0041dcc0                SystemClockDevice::~SystemClockDevice()
 .text$_ZN17SystemClockDeviceD1Ev
                0x0041dcf0       0x10 RTAOS.lib(vrtaSystemClockDevice.o)
                0x0041dcf0                SystemClockDevice::~SystemClockDevice()
 .text$_ZN17vrtaAdaptiveClockD0Ev
                0x0041dd00       0x50 RTAOS.lib(vrtaSampleDevices.o)
                0x0041dd00                vrtaAdaptiveClock::~vrtaAdaptiveClock()
 .text$_ZN17vrtaAdaptiveClockD1Ev
                0x0041dd50       0x30 RTAOS.lib(vrtaSampleDevices.o)
                0x0041dd50                vrtaAdaptiveClock::~vrtaAdaptiveClock()
 .text$_ZN26vrtaSystemClockIdleHandler4IdleEj
                0x0041dd80      0x100 RTAOS.lib(vrtaSystemClock.o)
                0x0041dd80                vrtaSystemClockIdleHandler::Idle(unsigned int)
 .text$_ZN34vrtaCustomTickSourceImplementation4TickEv
                0x0041de80       0x30 RTAOS.lib(vrtaSystemClock.o)
                0x0041de80                vrtaCustomTickSourceImplementation::Tick()
 .text$_ZN34vrtaCustomTickSourceImplementationD0Ev
                0x0041deb0       0x40 RTAOS.lib(vrtaSystemClock.o)
                0x0041deb0                vrtaCustomTickSourceImplementation::~vrtaCustomTickSourceImplementation()
 .text$_ZN34vrtaCustomTickSourceImplementationD1Ev
                0x0041def0       0x30 RTAOS.lib(vrtaSystemClock.o)
                0x0041def0                vrtaCustomTickSourceImplementation::~vrtaCustomTickSourceImplementation()
 .text$_ZN6OsCore10RunningISRER9vrtaEvent
                0x0041df20       0x30 RTAOS.lib(vrtaOSMonitorDevice.o)
                0x0041df20                OsCore::RunningISR(vrtaEvent&)
 .text$_ZN6OsCore11RunningTaskER9vrtaEvent
                0x0041df50       0x50 RTAOS.lib(vrtaOSMonitorDevice.o)
                0x0041df50                OsCore::RunningTask(vrtaEvent&)
 .text$_ZN6OsCore13GetDeviceInfoERN13VirtualDevice7OptListE
                0x0041dfa0       0x80 RTAOS.lib(vrtaOSMonitorDevice.o)
                0x0041dfa0                OsCore::GetDeviceInfo(VirtualDevice::OptList&)
 .text$_ZN6OsCore15GetDeviceEventsERN13VirtualDevice9EventListE
                0x0041e020      0x240 RTAOS.lib(vrtaOSMonitorDevice.o)
                0x0041e020                OsCore::GetDeviceEvents(VirtualDevice::EventList&)
 .text$_ZN6OsCore16GetDeviceActionsERN13VirtualDevice10ActionListE
                0x0041e260       0x70 RTAOS.lib(vrtaOSMonitorDevice.o)
                0x0041e260                OsCore::GetDeviceActions(VirtualDevice::ActionList&)
 .text$_ZN6OsCore5AppIDER9vrtaEvent
                0x0041e2d0       0x20 RTAOS.lib(vrtaOSMonitorDevice.o)
                0x0041e2d0                OsCore::AppID(vrtaEvent&)
 .text$_ZN6OsCore5IdlesER9vrtaEvent
                0x0041e2f0       0x20 RTAOS.lib(vrtaOSMonitorDevice.o)
                0x0041e2f0                OsCore::Idles(vrtaEvent&)
 .text$_ZN6OsCore6ParentER9vrtaEvent
                0x0041e310       0x30 RTAOS.lib(vrtaOSMonitorDevice.o)
                0x0041e310                OsCore::Parent(vrtaEvent&)
 .text$_ZN6OsCore7IdleSetERK10vrtaAction
                0x0041e340       0x10 RTAOS.lib(vrtaOSMonitorDevice.o)
                0x0041e340                OsCore::IdleSet(vrtaAction const&)
 .text$_ZN6OsCore9LastErrorER9vrtaEvent
                0x0041e350       0x30 RTAOS.lib(vrtaOSMonitorDevice.o)
                0x0041e350                OsCore::LastError(vrtaEvent&)
 .text$_ZN6OsCoreD0Ev
                0x0041e380       0x30 RTAOS.lib(vrtaOSMonitorDevice.o)
                0x0041e380                OsCore::~OsCore()
 .text$_ZN6OsCoreD1Ev
                0x0041e3b0       0x10 RTAOS.lib(vrtaOSMonitorDevice.o)
                0x0041e3b0                OsCore::~OsCore()
 .text$_ZN9OsMonitor12AppModeEventER9vrtaEvent
                0x0041e3c0       0x30 RTAOS.lib(vrtaOSMonitorDevice.o)
                0x0041e3c0                OsMonitor::AppModeEvent(vrtaEvent&)
 .text$_ZN9OsMonitor12TASKOsTask_0ER9vrtaEvent
                0x0041e3f0       0x50 RTAOS.lib(vrtaOSMonitorDevice.o)
                0x0041e3f0                OsMonitor::TASKOsTask_0(vrtaEvent&)
 .text$_ZN9OsMonitor12TASKOsTask_1ER9vrtaEvent
                0x0041e440       0x70 RTAOS.lib(vrtaOSMonitorDevice.o)
                0x0041e440                OsMonitor::TASKOsTask_1(vrtaEvent&)
 .text$_ZN9OsMonitor12TASKOsTask_2ER9vrtaEvent
                0x0041e4b0       0x50 RTAOS.lib(vrtaOSMonitorDevice.o)
                0x0041e4b0                OsMonitor::TASKOsTask_2(vrtaEvent&)
 .text$_ZN9OsMonitor12TASKOsTask_3ER9vrtaEvent
                0x0041e500       0x70 RTAOS.lib(vrtaOSMonitorDevice.o)
                0x0041e500                OsMonitor::TASKOsTask_3(vrtaEvent&)
 .text$_ZN9OsMonitor12TASKOsTask_5ER9vrtaEvent
                0x0041e570       0x50 RTAOS.lib(vrtaOSMonitorDevice.o)
                0x0041e570                OsMonitor::TASKOsTask_5(vrtaEvent&)
 .text$_ZN9OsMonitor12TASKOsTask_6ER9vrtaEvent
                0x0041e5c0       0x70 RTAOS.lib(vrtaOSMonitorDevice.o)
                0x0041e5c0                OsMonitor::TASKOsTask_6(vrtaEvent&)
 .text$_ZN9OsMonitor12TASKOsTask_7ER9vrtaEvent
                0x0041e630       0x70 RTAOS.lib(vrtaOSMonitorDevice.o)
                0x0041e630                OsMonitor::TASKOsTask_7(vrtaEvent&)
 .text$_ZN9OsMonitor12TASKOsTask_8ER9vrtaEvent
                0x0041e6a0       0x50 RTAOS.lib(vrtaOSMonitorDevice.o)
                0x0041e6a0                OsMonitor::TASKOsTask_8(vrtaEvent&)
 .text$_ZN9OsMonitor13GetDeviceInfoERN13VirtualDevice7OptListE
                0x0041e6f0      0x170 RTAOS.lib(vrtaOSMonitorDevice.o)
                0x0041e6f0                OsMonitor::GetDeviceInfo(VirtualDevice::OptList&)
 .text$_ZN9OsMonitor13TASKOsTask_04ER9vrtaEvent
                0x0041e860       0x70 RTAOS.lib(vrtaOSMonitorDevice.o)
                0x0041e860                OsMonitor::TASKOsTask_04(vrtaEvent&)
 .text$_ZN9OsMonitor13TASKOsTask_10ER9vrtaEvent
                0x0041e8d0       0x70 RTAOS.lib(vrtaOSMonitorDevice.o)
                0x0041e8d0                OsMonitor::TASKOsTask_10(vrtaEvent&)
 .text$_ZN9OsMonitor13TASKOsTask_11ER9vrtaEvent
                0x0041e940       0x70 RTAOS.lib(vrtaOSMonitorDevice.o)
                0x0041e940                OsMonitor::TASKOsTask_11(vrtaEvent&)
 .text$_ZN9OsMonitor13TASKOsTask_12ER9vrtaEvent
                0x0041e9b0       0x70 RTAOS.lib(vrtaOSMonitorDevice.o)
                0x0041e9b0                OsMonitor::TASKOsTask_12(vrtaEvent&)
 .text$_ZN9OsMonitor13TASKOsTask_13ER9vrtaEvent
                0x0041ea20       0x50 RTAOS.lib(vrtaOSMonitorDevice.o)
                0x0041ea20                OsMonitor::TASKOsTask_13(vrtaEvent&)
 .text$_ZN9OsMonitor13TASKOsTask_14ER9vrtaEvent
                0x0041ea70       0x70 RTAOS.lib(vrtaOSMonitorDevice.o)
                0x0041ea70                OsMonitor::TASKOsTask_14(vrtaEvent&)
 .text$_ZN9OsMonitor13TASKOsTask_15ER9vrtaEvent
                0x0041eae0       0x70 RTAOS.lib(vrtaOSMonitorDevice.o)
                0x0041eae0                OsMonitor::TASKOsTask_15(vrtaEvent&)
 .text$_ZN9OsMonitor13TASKOsTask_16ER9vrtaEvent
                0x0041eb50       0x50 RTAOS.lib(vrtaOSMonitorDevice.o)
                0x0041eb50                OsMonitor::TASKOsTask_16(vrtaEvent&)
 .text$_ZN9OsMonitor13TASKOsTask_18ER9vrtaEvent
                0x0041eba0       0x50 RTAOS.lib(vrtaOSMonitorDevice.o)
                0x0041eba0                OsMonitor::TASKOsTask_18(vrtaEvent&)
 .text$_ZN9OsMonitor13TASKOsTask_19ER9vrtaEvent
                0x0041ebf0       0x70 RTAOS.lib(vrtaOSMonitorDevice.o)
                0x0041ebf0                OsMonitor::TASKOsTask_19(vrtaEvent&)
 .text$_ZN9OsMonitor13TASKOsTask_20ER9vrtaEvent
                0x0041ec60       0x70 RTAOS.lib(vrtaOSMonitorDevice.o)
                0x0041ec60                OsMonitor::TASKOsTask_20(vrtaEvent&)
 .text$_ZN9OsMonitor13TASKOsTask_21ER9vrtaEvent
                0x0041ecd0       0x70 RTAOS.lib(vrtaOSMonitorDevice.o)
                0x0041ecd0                OsMonitor::TASKOsTask_21(vrtaEvent&)
 .text$_ZN9OsMonitor13TASKOsTask_22ER9vrtaEvent
                0x0041ed40       0x50 RTAOS.lib(vrtaOSMonitorDevice.o)
                0x0041ed40                OsMonitor::TASKOsTask_22(vrtaEvent&)
 .text$_ZN9OsMonitor13TASKOsTask_23ER9vrtaEvent
                0x0041ed90       0x70 RTAOS.lib(vrtaOSMonitorDevice.o)
                0x0041ed90                OsMonitor::TASKOsTask_23(vrtaEvent&)
 .text$_ZN9OsMonitor13TASKOsTask_24ER9vrtaEvent
                0x0041ee00       0x50 RTAOS.lib(vrtaOSMonitorDevice.o)
                0x0041ee00                OsMonitor::TASKOsTask_24(vrtaEvent&)
 .text$_ZN9OsMonitor13TASKOsTask_25ER9vrtaEvent
                0x0041ee50       0x50 RTAOS.lib(vrtaOSMonitorDevice.o)
                0x0041ee50                OsMonitor::TASKOsTask_25(vrtaEvent&)
 .text$_ZN9OsMonitor13TASKOsTask_26ER9vrtaEvent
                0x0041eea0       0x50 RTAOS.lib(vrtaOSMonitorDevice.o)
                0x0041eea0                OsMonitor::TASKOsTask_26(vrtaEvent&)
 .text$_ZN9OsMonitor15GetDeviceEventsERN13VirtualDevice9EventListE
                0x0041eef0     0x1920 RTAOS.lib(vrtaOSMonitorDevice.o)
                0x0041eef0                OsMonitor::GetDeviceEvents(VirtualDevice::EventList&)
 .text$_ZN9OsMonitor16GetDeviceActionsERN13VirtualDevice10ActionListE
                0x00420810       0x10 RTAOS.lib(vrtaOSMonitorDevice.o)
                0x00420810                OsMonitor::GetDeviceActions(VirtualDevice::ActionList&)
 .text$_ZN9OsMonitor22AlarmRte_TimeoutAlarm1ER9vrtaEvent
                0x00420820       0x70 RTAOS.lib(vrtaOSMonitorDevice.o)
                0x00420820                OsMonitor::AlarmRte_TimeoutAlarm1(vrtaEvent&)
 .text$_ZN9OsMonitor22AlarmRte_TimeoutAlarm2ER9vrtaEvent
                0x00420890       0x70 RTAOS.lib(vrtaOSMonitorDevice.o)
                0x00420890                OsMonitor::AlarmRte_TimeoutAlarm2(vrtaEvent&)
 .text$_ZN9OsMonitor22AlarmRte_TimeoutAlarm3ER9vrtaEvent
                0x00420900       0x70 RTAOS.lib(vrtaOSMonitorDevice.o)
                0x00420900                OsMonitor::AlarmRte_TimeoutAlarm3(vrtaEvent&)
 .text$_ZN9OsMonitor22AlarmRte_TimeoutAlarm4ER9vrtaEvent
                0x00420970       0x70 RTAOS.lib(vrtaOSMonitorDevice.o)
                0x00420970                OsMonitor::AlarmRte_TimeoutAlarm4(vrtaEvent&)
 .text$_ZN9OsMonitor22AlarmRte_TimeoutAlarm5ER9vrtaEvent
                0x004209e0       0x70 RTAOS.lib(vrtaOSMonitorDevice.o)
                0x004209e0                OsMonitor::AlarmRte_TimeoutAlarm5(vrtaEvent&)
 .text$_ZN9OsMonitor22AlarmRte_TimeoutAlarm6ER9vrtaEvent
                0x00420a50       0x70 RTAOS.lib(vrtaOSMonitorDevice.o)
                0x00420a50                OsMonitor::AlarmRte_TimeoutAlarm6(vrtaEvent&)
 .text$_ZN9OsMonitor22AlarmRte_TimeoutAlarm7ER9vrtaEvent
                0x00420ac0       0x70 RTAOS.lib(vrtaOSMonitorDevice.o)
                0x00420ac0                OsMonitor::AlarmRte_TimeoutAlarm7(vrtaEvent&)
 .text$_ZN9OsMonitor22AlarmRte_TimeoutAlarm8ER9vrtaEvent
                0x00420b30       0x70 RTAOS.lib(vrtaOSMonitorDevice.o)
                0x00420b30                OsMonitor::AlarmRte_TimeoutAlarm8(vrtaEvent&)
 .text$_ZN9OsMonitor22AlarmRte_TimeoutAlarm9ER9vrtaEvent
                0x00420ba0       0x70 RTAOS.lib(vrtaOSMonitorDevice.o)
                0x00420ba0                OsMonitor::AlarmRte_TimeoutAlarm9(vrtaEvent&)
 .text$_ZN9OsMonitor22CounterRte_TOutCounterER9vrtaEvent
                0x00420c10      0x3d0 RTAOS.lib(vrtaOSMonitorDevice.o)
                0x00420c10                OsMonitor::CounterRte_TOutCounter(vrtaEvent&)
 .text$_ZN9OsMonitor22CounterRte_TickCounterER9vrtaEvent
                0x00420fe0       0x60 RTAOS.lib(vrtaOSMonitorDevice.o)
                0x00420fe0                OsMonitor::CounterRte_TickCounter(vrtaEvent&)
 .text$_ZN9OsMonitor22TableRte_ScheduleTableER9vrtaEvent
                0x00421040       0x60 RTAOS.lib(vrtaOSMonitorDevice.o)
                0x00421040                OsMonitor::TableRte_ScheduleTable(vrtaEvent&)
 .text$_ZN9OsMonitor23AlarmRte_TimeoutAlarm10ER9vrtaEvent
                0x004210a0       0x70 RTAOS.lib(vrtaOSMonitorDevice.o)
                0x004210a0                OsMonitor::AlarmRte_TimeoutAlarm10(vrtaEvent&)
 .text$_ZN9OsMonitor23AlarmRte_TimeoutAlarm11ER9vrtaEvent
                0x00421110       0x70 RTAOS.lib(vrtaOSMonitorDevice.o)
                0x00421110                OsMonitor::AlarmRte_TimeoutAlarm11(vrtaEvent&)
 .text$_ZN9OsMonitor23AlarmRte_TimeoutAlarm12ER9vrtaEvent
                0x00421180       0x70 RTAOS.lib(vrtaOSMonitorDevice.o)
                0x00421180                OsMonitor::AlarmRte_TimeoutAlarm12(vrtaEvent&)
 .text$_ZN9OsMonitor23AlarmRte_TimeoutAlarm13ER9vrtaEvent
                0x004211f0       0x70 RTAOS.lib(vrtaOSMonitorDevice.o)
                0x004211f0                OsMonitor::AlarmRte_TimeoutAlarm13(vrtaEvent&)
 .text$_ZN9OsMonitor23AlarmRte_TimeoutAlarm14ER9vrtaEvent
                0x00421260       0x70 RTAOS.lib(vrtaOSMonitorDevice.o)
                0x00421260                OsMonitor::AlarmRte_TimeoutAlarm14(vrtaEvent&)
 .text$_ZN9OsMonitor23ISRVECU_SystemClock_ISRER9vrtaEvent
                0x004212d0       0x30 RTAOS.lib(vrtaOSMonitorDevice.o)
                0x004212d0                OsMonitor::ISRVECU_SystemClock_ISR(vrtaEvent&)
 .text$_ZN9OsMonitorC1EPKc
                0x00421300      0x120 RTAOS.lib(vrtaOSMonitorDevice.o)
                0x00421300                OsMonitor::OsMonitor(char const*)
 .text$_ZN9OsMonitorD0Ev
                0x00421420       0x30 RTAOS.lib(vrtaOSMonitorDevice.o)
                0x00421420                OsMonitor::~OsMonitor()
 .text$_ZN9OsMonitorD1Ev
                0x00421450       0x10 RTAOS.lib(vrtaOSMonitorDevice.o)
                0x00421450                OsMonitor::~OsMonitor()
 .text$_ZN9__gnu_cxx24__concurrence_lock_errorD0Ev
                0x00421460       0x30 C:/Program Files/ETAS/ISOLAR-EVE3.5.0/plugins/com.etas.evetools.toolsfolder_3.5.5/Tools/MinGW/bin/../lib/gcc/i686-w64-mingw32/8.1.0\libstdc++.a(eh_alloc.o)
                0x00421460                __gnu_cxx::__concurrence_lock_error::~__concurrence_lock_error()
 .text$_ZN9__gnu_cxx24__concurrence_lock_errorD1Ev
                0x00421490       0x10 C:/Program Files/ETAS/ISOLAR-EVE3.5.0/plugins/com.etas.evetools.toolsfolder_3.5.5/Tools/MinGW/bin/../lib/gcc/i686-w64-mingw32/8.1.0\libstdc++.a(eh_alloc.o)
                0x00421490                __gnu_cxx::__concurrence_lock_error::~__concurrence_lock_error()
 .text$_ZN9__gnu_cxx26__concurrence_unlock_errorD0Ev
                0x004214a0       0x30 C:/Program Files/ETAS/ISOLAR-EVE3.5.0/plugins/com.etas.evetools.toolsfolder_3.5.5/Tools/MinGW/bin/../lib/gcc/i686-w64-mingw32/8.1.0\libstdc++.a(eh_alloc.o)
                0x004214a0                __gnu_cxx::__concurrence_unlock_error::~__concurrence_unlock_error()
 .text$_ZN9__gnu_cxx26__concurrence_unlock_errorD1Ev
                0x004214d0       0x10 C:/Program Files/ETAS/ISOLAR-EVE3.5.0/plugins/com.etas.evetools.toolsfolder_3.5.5/Tools/MinGW/bin/../lib/gcc/i686-w64-mingw32/8.1.0\libstdc++.a(eh_alloc.o)
                0x004214d0                __gnu_cxx::__concurrence_unlock_error::~__concurrence_unlock_error()
 .text$_ZN9__gnu_cxx27__verbose_terminate_handlerEv
                0x004214e0      0x160 C:/Program Files/ETAS/ISOLAR-EVE3.5.0/plugins/com.etas.evetools.toolsfolder_3.5.5/Tools/MinGW/bin/../lib/gcc/i686-w64-mingw32/8.1.0\libstdc++.a(vterminate.o)
                0x004214e0                __gnu_cxx::__verbose_terminate_handler()
 .text$_ZN9__gnu_cxx30__throw_concurrence_lock_errorEv
                0x00421640       0x30 C:/Program Files/ETAS/ISOLAR-EVE3.5.0/plugins/com.etas.evetools.toolsfolder_3.5.5/Tools/MinGW/bin/../lib/gcc/i686-w64-mingw32/8.1.0\libstdc++.a(eh_alloc.o)
                0x00421640                __gnu_cxx::__throw_concurrence_lock_error()
 .text$_ZN9__gnu_cxx32__throw_concurrence_unlock_errorEv
                0x00421670       0x30 C:/Program Files/ETAS/ISOLAR-EVE3.5.0/plugins/com.etas.evetools.toolsfolder_3.5.5/Tools/MinGW/bin/../lib/gcc/i686-w64-mingw32/8.1.0\libstdc++.a(eh_alloc.o)
                0x00421670                __gnu_cxx::__throw_concurrence_unlock_error()
 .text$_ZN9__gnu_cxx9__freeresEv
                0x004216a0       0x30 C:/Program Files/ETAS/ISOLAR-EVE3.5.0/plugins/com.etas.evetools.toolsfolder_3.5.5/Tools/MinGW/bin/../lib/gcc/i686-w64-mingw32/8.1.0\libstdc++.a(eh_alloc.o)
                0x004216a0                __gnu_cxx::__freeres()
 .text$_ZN9vrtaClockD0Ev
                0x004216d0       0x50 RTAOS.lib(vrtaSampleDevices.o)
                0x004216d0                vrtaClock::~vrtaClock()
 .text$_ZN9vrtaClockD1Ev
                0x00421720       0x2c EVE_SystemClock.o
                0x00421720                vrtaClock::~vrtaClock()
 *fill*         0x0042174c        0x4 
 .text$_ZNK10__cxxabiv117__class_type_info10__do_catchEPKSt9type_infoPPvj
                0x00421750       0x40 C:/Program Files/ETAS/ISOLAR-EVE3.5.0/plugins/com.etas.evetools.toolsfolder_3.5.5/Tools/MinGW/bin/../lib/gcc/i686-w64-mingw32/8.1.0\libstdc++.a(class_type_info.o)
                0x00421750                __cxxabiv1::__class_type_info::__do_catch(std::type_info const*, void**, unsigned int) const
 .text$_ZNK10__cxxabiv117__class_type_info11__do_upcastEPKS0_PKvRNS0_15__upcast_resultE
                0x00421790       0x40 C:/Program Files/ETAS/ISOLAR-EVE3.5.0/plugins/com.etas.evetools.toolsfolder_3.5.5/Tools/MinGW/bin/../lib/gcc/i686-w64-mingw32/8.1.0\libstdc++.a(class_type_info.o)
                0x00421790                __cxxabiv1::__class_type_info::__do_upcast(__cxxabiv1::__class_type_info const*, void const*, __cxxabiv1::__class_type_info::__upcast_result&) const
 .text$_ZNK10__cxxabiv117__class_type_info11__do_upcastEPKS0_PPv
                0x004217d0       0x70 C:/Program Files/ETAS/ISOLAR-EVE3.5.0/plugins/com.etas.evetools.toolsfolder_3.5.5/Tools/MinGW/bin/../lib/gcc/i686-w64-mingw32/8.1.0\libstdc++.a(class_type_info.o)
                0x004217d0                __cxxabiv1::__class_type_info::__do_upcast(__cxxabiv1::__class_type_info const*, void**) const
 .text$_ZNK10__cxxabiv117__class_type_info12__do_dyncastEiNS0_10__sub_kindEPKS0_PKvS3_S5_RNS0_16__dyncast_resultE
                0x00421840       0x80 C:/Program Files/ETAS/ISOLAR-EVE3.5.0/plugins/com.etas.evetools.toolsfolder_3.5.5/Tools/MinGW/bin/../lib/gcc/i686-w64-mingw32/8.1.0\libstdc++.a(class_type_info.o)
                0x00421840                __cxxabiv1::__class_type_info::__do_dyncast(int, __cxxabiv1::__class_type_info::__sub_kind, __cxxabiv1::__class_type_info const*, void const*, __cxxabiv1::__class_type_info const*, void const*, __cxxabiv1::__class_type_info::__dyncast_result&) const
 .text$_ZNK10__cxxabiv117__class_type_info20__do_find_public_srcEiPKvPKS0_S2_
                0x004218c0       0x20 C:/Program Files/ETAS/ISOLAR-EVE3.5.0/plugins/com.etas.evetools.toolsfolder_3.5.5/Tools/MinGW/bin/../lib/gcc/i686-w64-mingw32/8.1.0\libstdc++.a(class_type_info.o)
                0x004218c0                __cxxabiv1::__class_type_info::__do_find_public_src(int, void const*, __cxxabiv1::__class_type_info const*, void const*) const
 .text$_ZNK10__cxxabiv120__si_class_type_info11__do_upcastEPKNS_17__class_type_infoEPKvRNS1_15__upcast_resultE
                0x004218e0       0x60 C:/Program Files/ETAS/ISOLAR-EVE3.5.0/plugins/com.etas.evetools.toolsfolder_3.5.5/Tools/MinGW/bin/../lib/gcc/i686-w64-mingw32/8.1.0\libstdc++.a(si_class_type_info.o)
                0x004218e0                __cxxabiv1::__si_class_type_info::__do_upcast(__cxxabiv1::__class_type_info const*, void const*, __cxxabiv1::__class_type_info::__upcast_result&) const
 .text$_ZNK10__cxxabiv120__si_class_type_info12__do_dyncastEiNS_17__class_type_info10__sub_kindEPKS1_PKvS4_S6_RNS1_16__dyncast_resultE
                0x00421940       0xf0 C:/Program Files/ETAS/ISOLAR-EVE3.5.0/plugins/com.etas.evetools.toolsfolder_3.5.5/Tools/MinGW/bin/../lib/gcc/i686-w64-mingw32/8.1.0\libstdc++.a(si_class_type_info.o)
                0x00421940                __cxxabiv1::__si_class_type_info::__do_dyncast(int, __cxxabiv1::__class_type_info::__sub_kind, __cxxabiv1::__class_type_info const*, void const*, __cxxabiv1::__class_type_info const*, void const*, __cxxabiv1::__class_type_info::__dyncast_result&) const
 .text$_ZNK10__cxxabiv120__si_class_type_info20__do_find_public_srcEiPKvPKNS_17__class_type_infoES2_
                0x00421a30       0x70 C:/Program Files/ETAS/ISOLAR-EVE3.5.0/plugins/com.etas.evetools.toolsfolder_3.5.5/Tools/MinGW/bin/../lib/gcc/i686-w64-mingw32/8.1.0\libstdc++.a(si_class_type_info.o)
                0x00421a30                __cxxabiv1::__si_class_type_info::__do_find_public_src(int, void const*, __cxxabiv1::__class_type_info const*, void const*) const
 .text$_ZNK10__cxxabiv121__vmi_class_type_info11__do_upcastEPKNS_17__class_type_infoEPKvRNS1_15__upcast_resultE
                0x00421aa0      0x240 C:/Program Files/ETAS/ISOLAR-EVE3.5.0/plugins/com.etas.evetools.toolsfolder_3.5.5/Tools/MinGW/bin/../lib/gcc/i686-w64-mingw32/8.1.0\libstdc++.a(vmi_class_type_info.o)
                0x00421aa0                __cxxabiv1::__vmi_class_type_info::__do_upcast(__cxxabiv1::__class_type_info const*, void const*, __cxxabiv1::__class_type_info::__upcast_result&) const
 .text$_ZNK10__cxxabiv121__vmi_class_type_info12__do_dyncastEiNS_17__class_type_info10__sub_kindEPKS1_PKvS4_S6_RNS1_16__dyncast_resultE
                0x00421ce0      0x690 C:/Program Files/ETAS/ISOLAR-EVE3.5.0/plugins/com.etas.evetools.toolsfolder_3.5.5/Tools/MinGW/bin/../lib/gcc/i686-w64-mingw32/8.1.0\libstdc++.a(vmi_class_type_info.o)
                0x00421ce0                __cxxabiv1::__vmi_class_type_info::__do_dyncast(int, __cxxabiv1::__class_type_info::__sub_kind, __cxxabiv1::__class_type_info const*, void const*, __cxxabiv1::__class_type_info const*, void const*, __cxxabiv1::__class_type_info::__dyncast_result&) const
 .text$_ZNK10__cxxabiv121__vmi_class_type_info20__do_find_public_srcEiPKvPKNS_17__class_type_infoES2_
                0x00422370       0xc0 C:/Program Files/ETAS/ISOLAR-EVE3.5.0/plugins/com.etas.evetools.toolsfolder_3.5.5/Tools/MinGW/bin/../lib/gcc/i686-w64-mingw32/8.1.0\libstdc++.a(vmi_class_type_info.o)
                0x00422370                __cxxabiv1::__vmi_class_type_info::__do_find_public_src(int, void const*, __cxxabiv1::__class_type_info const*, void const*) const
 .text$_ZNK9__gnu_cxx24__concurrence_lock_error4whatEv
                0x00422430       0x10 C:/Program Files/ETAS/ISOLAR-EVE3.5.0/plugins/com.etas.evetools.toolsfolder_3.5.5/Tools/MinGW/bin/../lib/gcc/i686-w64-mingw32/8.1.0\libstdc++.a(eh_alloc.o)
                0x00422430                __gnu_cxx::__concurrence_lock_error::what() const
 .text$_ZNK9__gnu_cxx26__concurrence_unlock_error4whatEv
                0x00422440       0x10 C:/Program Files/ETAS/ISOLAR-EVE3.5.0/plugins/com.etas.evetools.toolsfolder_3.5.5/Tools/MinGW/bin/../lib/gcc/i686-w64-mingw32/8.1.0\libstdc++.a(eh_alloc.o)
                0x00422440                __gnu_cxx::__concurrence_unlock_error::what() const
 .text$_ZNKSt10bad_typeid4whatEv
                0x00422450       0x10 C:/Program Files/ETAS/ISOLAR-EVE3.5.0/plugins/com.etas.evetools.toolsfolder_3.5.5/Tools/MinGW/bin/../lib/gcc/i686-w64-mingw32/8.1.0\libstdc++.a(bad_typeid.o)
                0x00422450                std::bad_typeid::what() const
 .text$_ZNKSt13bad_exception4whatEv
                0x00422460       0x10 C:/Program Files/ETAS/ISOLAR-EVE3.5.0/plugins/com.etas.evetools.toolsfolder_3.5.5/Tools/MinGW/bin/../lib/gcc/i686-w64-mingw32/8.1.0\libstdc++.a(eh_exception.o)
                0x00422460                transaction clone for std::bad_exception::what() const
                0x00422460                std::bad_exception::what() const
 .text$_ZNKSt20bad_array_new_length4whatEv
                0x00422470       0x10 C:/Program Files/ETAS/ISOLAR-EVE3.5.0/plugins/com.etas.evetools.toolsfolder_3.5.5/Tools/MinGW/bin/../lib/gcc/i686-w64-mingw32/8.1.0\libstdc++.a(bad_array_new.o)
                0x00422470                std::bad_array_new_length::what() const
 .text$_ZNKSt8bad_cast4whatEv
                0x00422480       0x10 C:/Program Files/ETAS/ISOLAR-EVE3.5.0/plugins/com.etas.evetools.toolsfolder_3.5.5/Tools/MinGW/bin/../lib/gcc/i686-w64-mingw32/8.1.0\libstdc++.a(bad_cast.o)
                0x00422480                std::bad_cast::what() const
 .text$_ZNKSt9bad_alloc4whatEv
                0x00422490       0x10 C:/Program Files/ETAS/ISOLAR-EVE3.5.0/plugins/com.etas.evetools.toolsfolder_3.5.5/Tools/MinGW/bin/../lib/gcc/i686-w64-mingw32/8.1.0\libstdc++.a(bad_alloc.o)
                0x00422490                std::bad_alloc::what() const
 .text$_ZNKSt9exception4whatEv
                0x004224a0       0x10 C:/Program Files/ETAS/ISOLAR-EVE3.5.0/plugins/com.etas.evetools.toolsfolder_3.5.5/Tools/MinGW/bin/../lib/gcc/i686-w64-mingw32/8.1.0\libstdc++.a(eh_exception.o)
                0x004224a0                transaction clone for std::exception::what() const
                0x004224a0                std::exception::what() const
 .text$_ZNKSt9type_info10__do_catchEPKS_PPvj
                0x004224b0       0x20 C:/Program Files/ETAS/ISOLAR-EVE3.5.0/plugins/com.etas.evetools.toolsfolder_3.5.5/Tools/MinGW/bin/../lib/gcc/i686-w64-mingw32/8.1.0\libstdc++.a(tinfo.o)
                0x004224b0                std::type_info::__do_catch(std::type_info const*, void**, unsigned int) const
 .text$_ZNKSt9type_info11__do_upcastEPKN10__cxxabiv117__class_type_infoEPPv
                0x004224d0       0x10 C:/Program Files/ETAS/ISOLAR-EVE3.5.0/plugins/com.etas.evetools.toolsfolder_3.5.5/Tools/MinGW/bin/../lib/gcc/i686-w64-mingw32/8.1.0\libstdc++.a(tinfo.o)
                0x004224d0                std::type_info::__do_upcast(__cxxabiv1::__class_type_info const*, void**) const
 .text$_ZNKSt9type_info14__is_pointer_pEv
                0x004224e0       0x10 C:/Program Files/ETAS/ISOLAR-EVE3.5.0/plugins/com.etas.evetools.toolsfolder_3.5.5/Tools/MinGW/bin/../lib/gcc/i686-w64-mingw32/8.1.0\libstdc++.a(tinfo.o)
                0x004224e0                std::type_info::__is_function_p() const
                0x004224e0                std::type_info::__is_pointer_p() const
 .text$_ZNKSt9type_infoeqERKS_
                0x004224f0       0x40 C:/Program Files/ETAS/ISOLAR-EVE3.5.0/plugins/com.etas.evetools.toolsfolder_3.5.5/Tools/MinGW/bin/../lib/gcc/i686-w64-mingw32/8.1.0\libstdc++.a(tinfo.o)
                0x004224f0                std::type_info::operator==(std::type_info const&) const
 .text$_ZNSt10bad_typeidD0Ev
                0x00422530       0x30 C:/Program Files/ETAS/ISOLAR-EVE3.5.0/plugins/com.etas.evetools.toolsfolder_3.5.5/Tools/MinGW/bin/../lib/gcc/i686-w64-mingw32/8.1.0\libstdc++.a(bad_typeid.o)
                0x00422530                std::bad_typeid::~bad_typeid()
 .text$_ZNSt10bad_typeidD2Ev
                0x00422560       0x10 C:/Program Files/ETAS/ISOLAR-EVE3.5.0/plugins/com.etas.evetools.toolsfolder_3.5.5/Tools/MinGW/bin/../lib/gcc/i686-w64-mingw32/8.1.0\libstdc++.a(bad_typeid.o)
                0x00422560                std::bad_typeid::~bad_typeid()
                0x00422560                std::bad_typeid::~bad_typeid()
 .text$_ZNSt13bad_exceptionD0Ev
                0x00422570       0x20 C:/Program Files/ETAS/ISOLAR-EVE3.5.0/plugins/com.etas.evetools.toolsfolder_3.5.5/Tools/MinGW/bin/../lib/gcc/i686-w64-mingw32/8.1.0\libstdc++.a(eh_exception.o)
                0x00422570                std::bad_exception::~bad_exception()
 .text$_ZNSt13bad_exceptionD2Ev
                0x00422590       0x10 C:/Program Files/ETAS/ISOLAR-EVE3.5.0/plugins/com.etas.evetools.toolsfolder_3.5.5/Tools/MinGW/bin/../lib/gcc/i686-w64-mingw32/8.1.0\libstdc++.a(eh_exception.o)
                0x00422590                std::bad_exception::~bad_exception()
                0x00422590                std::bad_exception::~bad_exception()
 .text$_ZNSt20bad_array_new_lengthD0Ev
                0x004225a0       0x30 C:/Program Files/ETAS/ISOLAR-EVE3.5.0/plugins/com.etas.evetools.toolsfolder_3.5.5/Tools/MinGW/bin/../lib/gcc/i686-w64-mingw32/8.1.0\libstdc++.a(bad_array_new.o)
                0x004225a0                std::bad_array_new_length::~bad_array_new_length()
 .text$_ZNSt20bad_array_new_lengthD2Ev
                0x004225d0       0x10 C:/Program Files/ETAS/ISOLAR-EVE3.5.0/plugins/com.etas.evetools.toolsfolder_3.5.5/Tools/MinGW/bin/../lib/gcc/i686-w64-mingw32/8.1.0\libstdc++.a(bad_array_new.o)
                0x004225d0                std::bad_array_new_length::~bad_array_new_length()
                0x004225d0                std::bad_array_new_length::~bad_array_new_length()
 .text$_ZNSt8bad_castD0Ev
                0x004225e0       0x30 C:/Program Files/ETAS/ISOLAR-EVE3.5.0/plugins/com.etas.evetools.toolsfolder_3.5.5/Tools/MinGW/bin/../lib/gcc/i686-w64-mingw32/8.1.0\libstdc++.a(bad_cast.o)
                0x004225e0                std::bad_cast::~bad_cast()
 .text$_ZNSt8bad_castD2Ev
                0x00422610       0x10 C:/Program Files/ETAS/ISOLAR-EVE3.5.0/plugins/com.etas.evetools.toolsfolder_3.5.5/Tools/MinGW/bin/../lib/gcc/i686-w64-mingw32/8.1.0\libstdc++.a(bad_cast.o)
                0x00422610                std::bad_cast::~bad_cast()
                0x00422610                std::bad_cast::~bad_cast()
 .text$_ZNSt9bad_allocD0Ev
                0x00422620       0x30 C:/Program Files/ETAS/ISOLAR-EVE3.5.0/plugins/com.etas.evetools.toolsfolder_3.5.5/Tools/MinGW/bin/../lib/gcc/i686-w64-mingw32/8.1.0\libstdc++.a(bad_alloc.o)
                0x00422620                std::bad_alloc::~bad_alloc()
 .text$_ZNSt9bad_allocD2Ev
                0x00422650       0x10 C:/Program Files/ETAS/ISOLAR-EVE3.5.0/plugins/com.etas.evetools.toolsfolder_3.5.5/Tools/MinGW/bin/../lib/gcc/i686-w64-mingw32/8.1.0\libstdc++.a(bad_alloc.o)
                0x00422650                std::bad_alloc::~bad_alloc()
                0x00422650                std::bad_alloc::~bad_alloc()
 .text$_ZNSt9exceptionD0Ev
                0x00422660       0x20 C:/Program Files/ETAS/ISOLAR-EVE3.5.0/plugins/com.etas.evetools.toolsfolder_3.5.5/Tools/MinGW/bin/../lib/gcc/i686-w64-mingw32/8.1.0\libstdc++.a(eh_exception.o)
                0x00422660                std::exception::~exception()
 .text$_ZNSt9exceptionD2Ev
                0x00422680       0x10 C:/Program Files/ETAS/ISOLAR-EVE3.5.0/plugins/com.etas.evetools.toolsfolder_3.5.5/Tools/MinGW/bin/../lib/gcc/i686-w64-mingw32/8.1.0\libstdc++.a(eh_exception.o)
                0x00422680                std::exception::~exception()
                0x00422680                std::exception::~exception()
 .text$_ZNSt9type_infoD0Ev
                0x00422690       0x20 C:/Program Files/ETAS/ISOLAR-EVE3.5.0/plugins/com.etas.evetools.toolsfolder_3.5.5/Tools/MinGW/bin/../lib/gcc/i686-w64-mingw32/8.1.0\libstdc++.a(tinfo.o)
                0x00422690                std::type_info::~type_info()
 .text$_ZNSt9type_infoD2Ev
                0x004226b0       0x10 C:/Program Files/ETAS/ISOLAR-EVE3.5.0/plugins/com.etas.evetools.toolsfolder_3.5.5/Tools/MinGW/bin/../lib/gcc/i686-w64-mingw32/8.1.0\libstdc++.a(tinfo.o)
                0x004226b0                std::type_info::~type_info()
                0x004226b0                std::type_info::~type_info()
 .text$_ZSt10unexpectedv
                0x004226c0       0x10 C:/Program Files/ETAS/ISOLAR-EVE3.5.0/plugins/com.etas.evetools.toolsfolder_3.5.5/Tools/MinGW/bin/../lib/gcc/i686-w64-mingw32/8.1.0\libstdc++.a(eh_terminate.o)
                0x004226c0                std::unexpected()
 .text$_ZSt13get_terminatev
                0x004226d0       0x10 C:/Program Files/ETAS/ISOLAR-EVE3.5.0/plugins/com.etas.evetools.toolsfolder_3.5.5/Tools/MinGW/bin/../lib/gcc/i686-w64-mingw32/8.1.0\libstdc++.a(eh_terminate.o)
                0x004226d0                std::get_terminate()
 .text$_ZSt13set_terminatePFvvE
                0x004226e0       0x10 C:/Program Files/ETAS/ISOLAR-EVE3.5.0/plugins/com.etas.evetools.toolsfolder_3.5.5/Tools/MinGW/bin/../lib/gcc/i686-w64-mingw32/8.1.0\libstdc++.a(eh_terminate.o)
                0x004226e0                std::set_terminate(void (*)())
 .text$_ZSt14get_unexpectedv
                0x004226f0       0x10 C:/Program Files/ETAS/ISOLAR-EVE3.5.0/plugins/com.etas.evetools.toolsfolder_3.5.5/Tools/MinGW/bin/../lib/gcc/i686-w64-mingw32/8.1.0\libstdc++.a(eh_terminate.o)
                0x004226f0                std::get_unexpected()
 .text$_ZSt14set_unexpectedPFvvE
                0x00422700       0x10 C:/Program Files/ETAS/ISOLAR-EVE3.5.0/plugins/com.etas.evetools.toolsfolder_3.5.5/Tools/MinGW/bin/../lib/gcc/i686-w64-mingw32/8.1.0\libstdc++.a(eh_terminate.o)
                0x00422700                std::set_unexpected(void (*)())
 .text$_ZSt15get_new_handlerv
                0x00422710       0x10 C:/Program Files/ETAS/ISOLAR-EVE3.5.0/plugins/com.etas.evetools.toolsfolder_3.5.5/Tools/MinGW/bin/../lib/gcc/i686-w64-mingw32/8.1.0\libstdc++.a(new_handler.o)
                0x00422710                std::get_new_handler()
 .text$_ZSt15set_new_handlerPFvvE
                0x00422720       0x10 C:/Program Files/ETAS/ISOLAR-EVE3.5.0/plugins/com.etas.evetools.toolsfolder_3.5.5/Tools/MinGW/bin/../lib/gcc/i686-w64-mingw32/8.1.0\libstdc++.a(new_handler.o)
                0x00422720                std::set_new_handler(void (*)())
 .text$_ZSt18uncaught_exceptionv
                0x00422730       0x20 C:/Program Files/ETAS/ISOLAR-EVE3.5.0/plugins/com.etas.evetools.toolsfolder_3.5.5/Tools/MinGW/bin/../lib/gcc/i686-w64-mingw32/8.1.0\libstdc++.a(eh_catch.o)
                0x00422730                std::uncaught_exception()
 .text$_ZSt19uncaught_exceptionsv
                0x00422750       0x10 C:/Program Files/ETAS/ISOLAR-EVE3.5.0/plugins/com.etas.evetools.toolsfolder_3.5.5/Tools/MinGW/bin/../lib/gcc/i686-w64-mingw32/8.1.0\libstdc++.a(eh_catch.o)
                0x00422750                std::uncaught_exceptions()
 .text$_ZSt9terminatev
                0x00422760       0x10 C:/Program Files/ETAS/ISOLAR-EVE3.5.0/plugins/com.etas.evetools.toolsfolder_3.5.5/Tools/MinGW/bin/../lib/gcc/i686-w64-mingw32/8.1.0\libstdc++.a(eh_terminate.o)
                0x00422760                std::terminate()
 .text$_ZThn36_N17vrtaAdaptiveClockD0Ev
                0x00422770       0x50 RTAOS.lib(vrtaSampleDevices.o)
                0x00422770                non-virtual thunk to vrtaAdaptiveClock::~vrtaAdaptiveClock()
 .text$_ZThn36_N17vrtaAdaptiveClockD1Ev
                0x004227c0       0x30 RTAOS.lib(vrtaSampleDevices.o)
                0x004227c0                non-virtual thunk to vrtaAdaptiveClock::~vrtaAdaptiveClock()
 .text$_ZThn36_N9vrtaClockD0Ev
                0x004227f0       0x50 RTAOS.lib(vrtaSampleDevices.o)
                0x004227f0                non-virtual thunk to vrtaClock::~vrtaClock()
 .text$_ZThn36_N9vrtaClockD1Ev
                0x00422840        0x8 EVE_SystemClock.o
                0x00422840                non-virtual thunk to vrtaClock::~vrtaClock()
 *fill*         0x00422848        0x8 
 .text$_ZdaPv   0x00422850       0x10 C:/Program Files/ETAS/ISOLAR-EVE3.5.0/plugins/com.etas.evetools.toolsfolder_3.5.5/Tools/MinGW/bin/../lib/gcc/i686-w64-mingw32/8.1.0\libstdc++.a(del_opv.o)
                0x00422850                operator delete[](void*)
 .text$_ZdlPv   0x00422860       0x10 C:/Program Files/ETAS/ISOLAR-EVE3.5.0/plugins/com.etas.evetools.toolsfolder_3.5.5/Tools/MinGW/bin/../lib/gcc/i686-w64-mingw32/8.1.0\libstdc++.a(del_op.o)
                0x00422860                operator delete(void*)
 .text$_ZdlPvj  0x00422870       0x10 C:/Program Files/ETAS/ISOLAR-EVE3.5.0/plugins/com.etas.evetools.toolsfolder_3.5.5/Tools/MinGW/bin/../lib/gcc/i686-w64-mingw32/8.1.0\libstdc++.a(del_ops.o)
                0x00422870                operator delete(void*, unsigned int)
 .text$_Znaj    0x00422880       0x10 C:/Program Files/ETAS/ISOLAR-EVE3.5.0/plugins/com.etas.evetools.toolsfolder_3.5.5/Tools/MinGW/bin/../lib/gcc/i686-w64-mingw32/8.1.0\libstdc++.a(new_opv.o)
                0x00422880                operator new[](unsigned int)
 .text$_Znwj    0x00422890       0x60 C:/Program Files/ETAS/ISOLAR-EVE3.5.0/plugins/com.etas.evetools.toolsfolder_3.5.5/Tools/MinGW/bin/../lib/gcc/i686-w64-mingw32/8.1.0\libstdc++.a(new_op.o)
                0x00422890                operator new(unsigned int)
 .text$__cxa_allocate_dependent_exception
                0x004228f0       0x60 C:/Program Files/ETAS/ISOLAR-EVE3.5.0/plugins/com.etas.evetools.toolsfolder_3.5.5/Tools/MinGW/bin/../lib/gcc/i686-w64-mingw32/8.1.0\libstdc++.a(eh_alloc.o)
                0x004228f0                __cxa_allocate_dependent_exception
 .text$__cxa_allocate_exception
                0x00422950       0x60 C:/Program Files/ETAS/ISOLAR-EVE3.5.0/plugins/com.etas.evetools.toolsfolder_3.5.5/Tools/MinGW/bin/../lib/gcc/i686-w64-mingw32/8.1.0\libstdc++.a(eh_alloc.o)
                0x00422950                __cxa_allocate_exception
 .text$__cxa_bad_cast
                0x004229b0       0x30 C:/Program Files/ETAS/ISOLAR-EVE3.5.0/plugins/com.etas.evetools.toolsfolder_3.5.5/Tools/MinGW/bin/../lib/gcc/i686-w64-mingw32/8.1.0\libstdc++.a(eh_aux_runtime.o)
                0x004229b0                __cxa_bad_cast
 .text$__cxa_bad_typeid
                0x004229e0       0x30 C:/Program Files/ETAS/ISOLAR-EVE3.5.0/plugins/com.etas.evetools.toolsfolder_3.5.5/Tools/MinGW/bin/../lib/gcc/i686-w64-mingw32/8.1.0\libstdc++.a(eh_aux_runtime.o)
                0x004229e0                __cxa_bad_typeid
 .text$__cxa_begin_catch
                0x00422a10       0x80 C:/Program Files/ETAS/ISOLAR-EVE3.5.0/plugins/com.etas.evetools.toolsfolder_3.5.5/Tools/MinGW/bin/../lib/gcc/i686-w64-mingw32/8.1.0\libstdc++.a(eh_catch.o)
                0x00422a10                __cxa_begin_catch
 .text$__cxa_call_terminate
                0x00422a90       0x50 C:/Program Files/ETAS/ISOLAR-EVE3.5.0/plugins/com.etas.evetools.toolsfolder_3.5.5/Tools/MinGW/bin/../lib/gcc/i686-w64-mingw32/8.1.0\libstdc++.a(eh_call.o)
                0x00422a90                __cxa_call_terminate
 .text$__cxa_call_unexpected
                0x00422ae0       0x40 C:/Program Files/ETAS/ISOLAR-EVE3.5.0/plugins/com.etas.evetools.toolsfolder_3.5.5/Tools/MinGW/bin/../lib/gcc/i686-w64-mingw32/8.1.0\libstdc++.a(eh_personality.o)
                0x00422ae0                __cxa_call_unexpected
 .text$__cxa_current_exception_type
                0x00422b20       0x30 C:/Program Files/ETAS/ISOLAR-EVE3.5.0/plugins/com.etas.evetools.toolsfolder_3.5.5/Tools/MinGW/bin/../lib/gcc/i686-w64-mingw32/8.1.0\libstdc++.a(eh_type.o)
                0x00422b20                __cxa_current_exception_type
 .text$__cxa_deleted_virtual
                0x00422b50       0x30 C:/Program Files/ETAS/ISOLAR-EVE3.5.0/plugins/com.etas.evetools.toolsfolder_3.5.5/Tools/MinGW/bin/../lib/gcc/i686-w64-mingw32/8.1.0\libstdc++.a(pure.o)
                0x00422b50                __cxa_deleted_virtual
 .text$__cxa_end_catch
                0x00422b80       0xa0 C:/Program Files/ETAS/ISOLAR-EVE3.5.0/plugins/com.etas.evetools.toolsfolder_3.5.5/Tools/MinGW/bin/../lib/gcc/i686-w64-mingw32/8.1.0\libstdc++.a(eh_catch.o)
                0x00422b80                __cxa_end_catch
 .text$__cxa_free_dependent_exception
                0x00422c20       0x30 C:/Program Files/ETAS/ISOLAR-EVE3.5.0/plugins/com.etas.evetools.toolsfolder_3.5.5/Tools/MinGW/bin/../lib/gcc/i686-w64-mingw32/8.1.0\libstdc++.a(eh_alloc.o)
                0x00422c20                __cxa_free_dependent_exception
 .text$__cxa_free_exception
                0x00422c50       0x30 C:/Program Files/ETAS/ISOLAR-EVE3.5.0/plugins/com.etas.evetools.toolsfolder_3.5.5/Tools/MinGW/bin/../lib/gcc/i686-w64-mingw32/8.1.0\libstdc++.a(eh_alloc.o)
                0x00422c50                __cxa_free_exception
 .text$__cxa_get_exception_ptr
                0x00422c80       0x10 C:/Program Files/ETAS/ISOLAR-EVE3.5.0/plugins/com.etas.evetools.toolsfolder_3.5.5/Tools/MinGW/bin/../lib/gcc/i686-w64-mingw32/8.1.0\libstdc++.a(eh_catch.o)
                0x00422c80                __cxa_get_exception_ptr
 .text$__cxa_get_globals
                0x00422c90       0x20 C:/Program Files/ETAS/ISOLAR-EVE3.5.0/plugins/com.etas.evetools.toolsfolder_3.5.5/Tools/MinGW/bin/../lib/gcc/i686-w64-mingw32/8.1.0\libstdc++.a(eh_globals.o)
                0x00422c90                __cxa_get_globals
 .text$__cxa_get_globals_fast
                0x00422cb0       0x10 C:/Program Files/ETAS/ISOLAR-EVE3.5.0/plugins/com.etas.evetools.toolsfolder_3.5.5/Tools/MinGW/bin/../lib/gcc/i686-w64-mingw32/8.1.0\libstdc++.a(eh_globals.o)
                0x00422cb0                __cxa_get_globals_fast
 .text$__cxa_init_primary_exception
                0x00422cc0       0x50 C:/Program Files/ETAS/ISOLAR-EVE3.5.0/plugins/com.etas.evetools.toolsfolder_3.5.5/Tools/MinGW/bin/../lib/gcc/i686-w64-mingw32/8.1.0\libstdc++.a(eh_throw.o)
                0x00422cc0                __cxa_init_primary_exception
 .text$__cxa_pure_virtual
                0x00422d10       0x30 C:/Program Files/ETAS/ISOLAR-EVE3.5.0/plugins/com.etas.evetools.toolsfolder_3.5.5/Tools/MinGW/bin/../lib/gcc/i686-w64-mingw32/8.1.0\libstdc++.a(pure.o)
                0x00422d10                __cxa_pure_virtual
 .text$__cxa_rethrow
                0x00422d40       0x60 C:/Program Files/ETAS/ISOLAR-EVE3.5.0/plugins/com.etas.evetools.toolsfolder_3.5.5/Tools/MinGW/bin/../lib/gcc/i686-w64-mingw32/8.1.0\libstdc++.a(eh_throw.o)
                0x00422d40                __cxa_rethrow
 .text$__cxa_throw
                0x00422da0       0x70 C:/Program Files/ETAS/ISOLAR-EVE3.5.0/plugins/com.etas.evetools.toolsfolder_3.5.5/Tools/MinGW/bin/../lib/gcc/i686-w64-mingw32/8.1.0\libstdc++.a(eh_throw.o)
                0x00422da0                __cxa_throw
 .text$__cxa_throw_bad_array_new_length
                0x00422e10       0x30 C:/Program Files/ETAS/ISOLAR-EVE3.5.0/plugins/com.etas.evetools.toolsfolder_3.5.5/Tools/MinGW/bin/../lib/gcc/i686-w64-mingw32/8.1.0\libstdc++.a(eh_aux_runtime.o)
                0x00422e10                __cxa_throw_bad_array_new_length
 .text$__gxx_personality_v0
                0x00422e40      0x620 C:/Program Files/ETAS/ISOLAR-EVE3.5.0/plugins/com.etas.evetools.toolsfolder_3.5.5/Tools/MinGW/bin/../lib/gcc/i686-w64-mingw32/8.1.0\libstdc++.a(eh_personality.o)
                0x00422e40                __gxx_personality_v0
 .text$__tcf_0  0x00423460       0x30 C:/Program Files/ETAS/ISOLAR-EVE3.5.0/plugins/com.etas.evetools.toolsfolder_3.5.5/Tools/MinGW/bin/../lib/gcc/i686-w64-mingw32/8.1.0\libstdc++.a(eh_alloc.o)
 *(.text.*)
 .text.startup  0x00423490       0xc0 RTAOS.lib(vrtaAppMain.o)
                0x00423490                main
 .text.unlikely
                0x00423550       0x58 RTAOS.lib(vrtaCore.o)
 *fill*         0x004235a8        0x8 
 .text.startup  0x004235b0       0x20 RTAOS.lib(vrtaCore.o)
 .text.startup  0x004235d0       0x30 RTAOS.lib(vrtaOSMonitorDevice.o)
 .text.unlikely
                0x00423600        0x8 RTAOS.lib(vrtaSampleDevices.o)
 .text.unlikely
                0x00423608       0x60 RTAOS.lib(vrtaSystemClock.o)
 *fill*         0x00423668        0x8 
 .text.startup  0x00423670       0x10 RTAOS.lib(vrtaSystemClock.o)
 .text.unlikely
                0x00423680       0x24 RTAOS.lib(vrtaSystemClockDevice.o)
 *fill*         0x004236a4        0xc 
 .text.startup  0x004236b0       0xd0 RTAOS.lib(vrtaSystemClockDevice.o)
 .text.unlikely
                0x00423780      0x118 RTAOS.lib(virtualDevice.o)
 .text.unlikely._ZL28read_encoded_value_with_basehjPKhPj
                0x00423898        0x8 C:/Program Files/ETAS/ISOLAR-EVE3.5.0/plugins/com.etas.evetools.toolsfolder_3.5.5/Tools/MinGW/bin/../lib/gcc/i686-w64-mingw32/8.1.0\libstdc++.a(eh_personality.o)
 .text.unlikely.__gxx_personality_v0
                0x004238a0       0x10 C:/Program Files/ETAS/ISOLAR-EVE3.5.0/plugins/com.etas.evetools.toolsfolder_3.5.5/Tools/MinGW/bin/../lib/gcc/i686-w64-mingw32/8.1.0\libstdc++.a(eh_personality.o)
 .text.unlikely.__cxa_call_unexpected
                0x004238b0       0xa0 C:/Program Files/ETAS/ISOLAR-EVE3.5.0/plugins/com.etas.evetools.toolsfolder_3.5.5/Tools/MinGW/bin/../lib/gcc/i686-w64-mingw32/8.1.0\libstdc++.a(eh_personality.o)
 .text.unlikely._ZN10__cxxabiv111__terminateEPFvvE
                0x00423950       0x30 C:/Program Files/ETAS/ISOLAR-EVE3.5.0/plugins/com.etas.evetools.toolsfolder_3.5.5/Tools/MinGW/bin/../lib/gcc/i686-w64-mingw32/8.1.0\libstdc++.a(eh_terminate.o)
 .text.unlikely._ZN9__gnu_cxx27__verbose_terminate_handlerEv
                0x00423980       0xa0 C:/Program Files/ETAS/ISOLAR-EVE3.5.0/plugins/com.etas.evetools.toolsfolder_3.5.5/Tools/MinGW/bin/../lib/gcc/i686-w64-mingw32/8.1.0\libstdc++.a(vterminate.o)
 .text.unlikely
                0x00423a20       0x84 C:/Program Files/ETAS/ISOLAR-EVE3.5.0/plugins/com.etas.evetools.toolsfolder_3.5.5/Tools/MinGW/bin/../lib/gcc/i686-w64-mingw32/8.1.0\libstdc++.a(cp-demangle.o)
 .text.unlikely._ZN12_GLOBAL__N_14pool4freeEPv.constprop.2
                0x00423aa4       0x14 C:/Program Files/ETAS/ISOLAR-EVE3.5.0/plugins/com.etas.evetools.toolsfolder_3.5.5/Tools/MinGW/bin/../lib/gcc/i686-w64-mingw32/8.1.0\libstdc++.a(eh_alloc.o)
 .text.unlikely._ZN12_GLOBAL__N_14pool8allocateEj.constprop.3
                0x00423ab8       0x14 C:/Program Files/ETAS/ISOLAR-EVE3.5.0/plugins/com.etas.evetools.toolsfolder_3.5.5/Tools/MinGW/bin/../lib/gcc/i686-w64-mingw32/8.1.0\libstdc++.a(eh_alloc.o)
 *fill*         0x00423acc        0x4 
 .text.startup._GLOBAL__sub_I__ZN9__gnu_cxx9__freeresEv
                0x00423ad0       0x80 C:/Program Files/ETAS/ISOLAR-EVE3.5.0/plugins/com.etas.evetools.toolsfolder_3.5.5/Tools/MinGW/bin/../lib/gcc/i686-w64-mingw32/8.1.0\libstdc++.a(eh_alloc.o)
 .text.unlikely
                0x00423b50       0x5c C:/Program Files/ETAS/ISOLAR-EVE3.5.0/plugins/com.etas.evetools.toolsfolder_3.5.5/Tools/MinGW/bin/../lib/gcc/i686-w64-mingw32/8.1.0/../../../../i686-w64-mingw32/lib/../lib/libmingw32.a(lib32_libmingw32_a-pseudo-reloc.o)
 .text.unlikely
                0x00423bac       0x3c C:/Program Files/ETAS/ISOLAR-EVE3.5.0/plugins/com.etas.evetools.toolsfolder_3.5.5/Tools/MinGW/bin/../lib/gcc/i686-w64-mingw32/8.1.0/libgcc_eh.a(unwind-dw2.o)
 .text.unlikely
                0x00423be8        0x8 C:/Program Files/ETAS/ISOLAR-EVE3.5.0/plugins/com.etas.evetools.toolsfolder_3.5.5/Tools/MinGW/bin/../lib/gcc/i686-w64-mingw32/8.1.0/libgcc_eh.a(unwind-dw2-fde.o)
 .text.unlikely
                0x00423bf0       0x10 C:/Program Files/ETAS/ISOLAR-EVE3.5.0/plugins/com.etas.evetools.toolsfolder_3.5.5/Tools/MinGW/bin/../lib/gcc/i686-w64-mingw32/8.1.0/libgcc_eh.a(emutls.o)
 .text.startup  0x00423c00       0x10 C:/Program Files/ETAS/ISOLAR-EVE3.5.0/plugins/com.etas.evetools.toolsfolder_3.5.5/Tools/MinGW/bin/../lib/gcc/i686-w64-mingw32/8.1.0/crtend.o
 *(.gnu.linkonce.t.*)
 *(.glue_7t)
 *(.glue_7)
                0x00423c10                ___CTOR_LIST__ = .
                0x00423c10                __CTOR_LIST__ = .
                0x00423c10        0x4 LONG 0xffffffff
 *(.ctors)
 .ctors         0x00423c14        0x4 EVE_SystemClock.o
 .ctors         0x00423c18        0x4 virtualdevices.o
 .ctors         0x00423c1c        0x4 RTAOS.lib(vrtaCore.o)
 .ctors         0x00423c20        0x4 RTAOS.lib(vrtaOSMonitorDevice.o)
 .ctors         0x00423c24        0x4 RTAOS.lib(vrtaSystemClock.o)
 .ctors         0x00423c28        0x4 RTAOS.lib(vrtaSystemClockDevice.o)
 .ctors         0x00423c2c        0x4 C:/Program Files/ETAS/ISOLAR-EVE3.5.0/plugins/com.etas.evetools.toolsfolder_3.5.5/Tools/MinGW/bin/../lib/gcc/i686-w64-mingw32/8.1.0\libstdc++.a(eh_alloc.o)
 *(.ctor)
 *(SORT_BY_NAME(.ctors.*))
 .ctors.65535   0x00423c30        0x4 C:/Program Files/ETAS/ISOLAR-EVE3.5.0/plugins/com.etas.evetools.toolsfolder_3.5.5/Tools/MinGW/bin/../lib/gcc/i686-w64-mingw32/8.1.0/crtend.o
                0x00423c34        0x4 LONG 0x0
                0x00423c38                ___DTOR_LIST__ = .
                0x00423c38                __DTOR_LIST__ = .
                0x00423c38        0x4 LONG 0xffffffff
 *(.dtors)
 *(.dtor)
 *(SORT_BY_NAME(.dtors.*))
                0x00423c3c        0x4 LONG 0x0
 *(.fini)
 *(.gcc_exc)
                [!provide]                PROVIDE (etext = .)
                [!provide]                PROVIDE (_etext = .)
 *(.gcc_except_table)
 .gcc_except_table
                0x00423c40       0x8c RTAOS.lib(vrtaCore.o)
 .gcc_except_table
                0x00423ccc       0x30 RTAOS.lib(vrtaOSMonitorDevice.o)
 .gcc_except_table
                0x00423cfc       0x28 RTAOS.lib(vrtaSampleDevices.o)
 .gcc_except_table
                0x00423d24       0x58 RTAOS.lib(vrtaSystemClock.o)
 .gcc_except_table
                0x00423d7c       0x24 RTAOS.lib(vrtaSystemClockDevice.o)
 .gcc_except_table
                0x00423da0       0xa0 RTAOS.lib(virtualDevice.o)
 .gcc_except_table
                0x00423e40       0x50 C:/Program Files/ETAS/ISOLAR-EVE3.5.0/plugins/com.etas.evetools.toolsfolder_3.5.5/Tools/MinGW/bin/../lib/gcc/i686-w64-mingw32/8.1.0\libstdc++.a(eh_personality.o)
 .gcc_except_table
                0x00423e90       0x38 C:/Program Files/ETAS/ISOLAR-EVE3.5.0/plugins/com.etas.evetools.toolsfolder_3.5.5/Tools/MinGW/bin/../lib/gcc/i686-w64-mingw32/8.1.0\libstdc++.a(eh_terminate.o)
 .gcc_except_table
                0x00423ec8       0x3c C:/Program Files/ETAS/ISOLAR-EVE3.5.0/plugins/com.etas.evetools.toolsfolder_3.5.5/Tools/MinGW/bin/../lib/gcc/i686-w64-mingw32/8.1.0\libstdc++.a(vterminate.o)
 .gcc_except_table
                0x00423f04       0x64 C:/Program Files/ETAS/ISOLAR-EVE3.5.0/plugins/com.etas.evetools.toolsfolder_3.5.5/Tools/MinGW/bin/../lib/gcc/i686-w64-mingw32/8.1.0\libstdc++.a(eh_alloc.o)

.data           0x00424000      0x200
                0x00424000                __data_start__ = .
 *(.data)
 .data          0x00424000        0x4 C:/Program Files/ETAS/ISOLAR-EVE3.5.0/plugins/com.etas.evetools.toolsfolder_3.5.5/Tools/MinGW/bin/../lib/gcc/i686-w64-mingw32/8.1.0/../../../../i686-w64-mingw32/lib/../lib/crt2.o
                0x00424000                __mingw_winmain_nShowCmd
 .data          0x00424004        0x4 C:/Program Files/ETAS/ISOLAR-EVE3.5.0/plugins/com.etas.evetools.toolsfolder_3.5.5/Tools/MinGW/bin/../lib/gcc/i686-w64-mingw32/8.1.0/crtbegin.o
 .data          0x00424008        0x0 BswTasks.o
 .data          0x00424008        0x0 EVE_SystemClock.o
 .data          0x00424008        0x0 main.o
 .data          0x00424008        0x0 Os_ErrorHook.o
 .data          0x00424008        0x0 Os_Hooks.o
 .data          0x00424008        0x0 OsTask_0.o
 .data          0x00424008        0x0 OsTask_04.o
 .data          0x00424008        0x0 OsTask_1.o
 .data          0x00424008        0x0 OsTask_10.o
 .data          0x00424008        0x0 OsTask_11.o
 .data          0x00424008        0x0 OsTask_12.o
 .data          0x00424008        0x0 OsTask_13.o
 .data          0x00424008        0x0 OsTask_14.o
 .data          0x00424008        0x0 OsTask_15.o
 .data          0x00424008        0x0 OsTask_16.o
 .data          0x00424008        0x0 OsTask_18.o
 .data          0x00424008        0x0 OsTask_19.o
 .data          0x00424008        0x0 OsTask_2.o
 .data          0x00424008        0x0 OsTask_20.o
 .data          0x00424008        0x0 OsTask_21.o
 .data          0x00424008        0x0 OsTask_22.o
 .data          0x00424008        0x0 OsTask_23.o
 .data          0x00424008        0x0 OsTask_24.o
 .data          0x00424008        0x0 OsTask_25.o
 .data          0x00424008        0x0 OsTask_26.o
 .data          0x00424008        0x0 OsTask_3.o
 .data          0x00424008        0x0 OsTask_5.o
 .data          0x00424008        0x0 OsTask_6.o
 .data          0x00424008        0x0 OsTask_7.o
 .data          0x00424008        0x0 OsTask_8.o
 .data          0x00424008      0x138 Rte.o
                0x00424008                Rte_Queue_CPT_ACT_HYDRAULIC_MODULATOR_FRONTL_COMP_ACT_HM_FL_Client_set_E_op_dynamic
                0x00424014                Rte_Queue_CPT_ACT_HYDRAULIC_MODULATOR_FRONTR_COMP_ACT_HM_FR_Client_set_E_op_dynamic
                0x00424020                Rte_Queue_CPT_ACT_HYDRAULIC_MODULATOR_REARL_COMP_ACT_HM_RL_Client_set_E_op_dynamic
                0x0042402c                Rte_Queue_CPT_ACT_HYDRAULIC_MODULATOR_REARR_COMP_ACT_HM_RR_Client_set_E_op_dynamic
                0x00424038                Rte_Queue_CPT_ACT_MOTOR_COMP_CS_MOTOR_Client_motor_act_op_dynamic
                0x00424044                Rte_Queue_CPT_AccelPedalSen_RPort_get_AccelPedal_Status_dynamic
                0x00424050                Rte_Queue_CPT_BrakePedalSen_RPort_get_BrakePedal_Status_dynamic
                0x0042405c                Rte_Queue_CPT_Cylinder_Sen_Rport_get_cylinder_Status_dynamic
                0x00424068                Rte_Queue_CPT_ECU_ABS_ActSEngine_set_engine_dyn
                0x00424074                Rte_Queue_CPT_ECU_ABS_ActSGear_set_phygear_dyn
                0x00424080                Rte_Queue_CPT_ECU_ABS_CS_BATT_Server_batt_sen_op_dyn
                0x0042408c                Rte_Queue_CPT_ECU_ABS_CS_MOTOR_Server_motor_act_op_dyn
                0x00424098                Rte_Queue_CPT_ECU_ABS_PAccelPedal_get_AccelPedal_Status_dyn
                0x004240a4                Rte_Queue_CPT_ECU_ABS_PBrakePedal_get_BrakePedal_Status_dyn
                0x004240b0                Rte_Queue_CPT_ECU_ABS_PCylinder_get_cylinder_Status_dyn
                0x004240bc                Rte_Queue_CPT_ECU_ABS_PGearMode_get_Gear_Mode_dyn
                0x004240c8                Rte_Queue_CPT_ECU_ABS_PHMFrontL_set_E_op_dyn
                0x004240d4                Rte_Queue_CPT_ECU_ABS_PHMFrontR_set_E_op_dyn
                0x004240e0                Rte_Queue_CPT_ECU_ABS_PHMRearL_set_E_op_dyn
                0x004240ec                Rte_Queue_CPT_ECU_ABS_PHMRearR_set_E_op_dyn
                0x004240f8                Rte_Queue_CPT_ECU_ABS_PTireRPM_get_Tire_RPM_dyn
                0x00424104                Rte_Queue_CPT_Engine_Cycle_ACT_Engine_Cleintport_set_engine_dynamic
                0x00424110                Rte_Queue_CPT_Engine_Gear_ACT_phyGear_relayPport_set_phygear_dynamic
                0x0042411c                Rte_Queue_CPT_GearModeSen_RPort_get_Gear_Mode_dynamic
                0x00424128                Rte_Queue_CPT_SEN_BATT_COMP_CS_BATT_Receive_batt_sen_op_dynamic
                0x00424134                Rte_Queue_CPT_SpeedSen_RPort_get_Tire_RPM_dynamic
 .data          0x00424140        0x4 Rte_AccelControlAPP.o
                0x00424140                motor_on
 .data          0x00424144        0x0 Rte_AccelPedalSen.o
 .data          0x00424144        0x0 Rte_ACT_HYDRAULIC_MODULATOR_FRONTL_COMP.o
 .data          0x00424144        0x0 Rte_ACT_HYDRAULIC_MODULATOR_FRONTR_COMP.o
 .data          0x00424144        0x0 Rte_ACT_HYDRAULIC_MODULATOR_REARL_COMP.o
 .data          0x00424144        0x0 Rte_ACT_HYDRAULIC_MODULATOR_REARR_COMP.o
 .data          0x00424144        0x0 Rte_ACT_MOTOR_COMP.o
 .data          0x00424144       0x14 Rte_APP_BRAKE_CONTROLL_COMP.o
                0x00424144                FL_array
 .data          0x00424158        0x8 Rte_APP_MOTOR_COMP.o
                0x00424158                MAX_PWM
                0x0042415c                BATT_RATIO
 .data          0x00424160        0x0 Rte_AvgSpeed.o
 .data          0x00424160        0x0 Rte_BrakePedalSen.o
 .data          0x00424160        0x0 Rte_Cylinder_Sen.o
 .data          0x00424160        0x0 Rte_ECU_ABS.o
 .data          0x00424160        0x0 Rte_Engine_Cycle_ACT.o
 .data          0x00424160        0x0 Rte_Engine_Gear_ACT.o
 .data          0x00424160        0x0 Rte_EngineApp.o
 .data          0x00424160        0x0 Rte_GearModeSen.o
 .data          0x00424160        0x0 Rte_Lib.o
 .data          0x00424160        0x0 Rte_SEN_BATT_COMP.o
 .data          0x00424160        0x0 Rte_SpeedSen.o
 .data          0x00424160        0x0 startVecu.o
 .data          0x00424160        0x0 target.o
 .data          0x00424160        0x0 VECU_SystemClock_ISR.o
 .data          0x00424160        0x0 virtualdevices.o
 .data          0x00424160        0x0 Vrta_Cfg.o
 .data          0x00424160        0x0 RTAOS.lib(ActivateTask.o)
 .data          0x00424160        0x0 RTAOS.lib(CancelAlarm.o)
 .data          0x00424160        0x0 RTAOS.lib(ClearEvent.o)
 .data          0x00424160        0x0 RTAOS.lib(DispatchTask.o)
 .data          0x00424160        0x0 RTAOS.lib(GetEvent.o)
 .data          0x00424160        0x0 RTAOS.lib(GetISRID.o)
 .data          0x00424160        0x0 RTAOS.lib(GetResource.o)
 .data          0x00424160        0x0 RTAOS.lib(GetTaskID.o)
 .data          0x00424160        0x0 RTAOS.lib(Os_Cfg.o)
 .data          0x00424160        0x0 RTAOS.lib(Os_Cfg_Counters.o)
 .data          0x00424160        0x0 RTAOS.lib(Os_Cfg_KL.o)
 .data          0x00424160        0x0 RTAOS.lib(Os_fsb.o)
 .data          0x00424160        0x0 RTAOS.lib(Os_SetJmp.o)
 .data          0x00424160        0x0 RTAOS.lib(Os_Stack.o)
 .data          0x00424160        0x0 RTAOS.lib(ReleaseResource.o)
 .data          0x00424160        0x0 RTAOS.lib(ResumeOSInterrupts.o)
 .data          0x00424160        0x0 RTAOS.lib(SetEvent.o)
 .data          0x00424160        0x0 RTAOS.lib(SetRelAlarm.o)
 .data          0x00424160        0x0 RTAOS.lib(StartOS.o)
 .data          0x00424160        0x0 RTAOS.lib(StartScheduleTableRel.o)
 .data          0x00424160        0x0 RTAOS.lib(StopScheduleTable.o)
 .data          0x00424160        0x0 RTAOS.lib(SuspendOSInterrupts.o)
 .data          0x00424160        0x0 RTAOS.lib(TerminateTask.o)
 .data          0x00424160        0x0 RTAOS.lib(vrtaAppMain.o)
 .data          0x00424160        0x4 RTAOS.lib(vrtaCore.o)
 .data          0x00424164        0x0 RTAOS.lib(vrtaIdleHandling.o)
 .data          0x00424164        0x0 RTAOS.lib(vrtaLoggerDevice.o)
 .data          0x00424164        0x0 RTAOS.lib(vrtaOSMonitorDevice.o)
 .data          0x00424164        0x0 RTAOS.lib(vrtaSampleDevices.o)
 .data          0x00424164        0x4 RTAOS.lib(vrtaSystemClock.o)
 .data          0x00424168        0x0 RTAOS.lib(vrtaSystemClockDevice.o)
 .data          0x00424168        0x0 RTAOS.lib(WaitEvent.o)
 .data          0x00424168        0x0 RTAOS.lib(DispatchECC.o)
 .data          0x00424168        0x0 RTAOS.lib(GetStackValue.o)
 .data          0x00424168        0x0 RTAOS.lib(Os_vectors.o)
 .data          0x00424168        0x0 RTAOS.lib(Os_wrapper.o)
 .data          0x00424168        0x0 RTAOS.lib(StackOverrunHook.o)
 .data          0x00424168        0x0 RTAOS.lib(virtualDevice.o)
 .data          0x00424168        0x0 RTAOS.lib(ShutdownOS.o)
 .data          0x00424168        0x0 RTAOS.lib(InShutdown.o)
 .data          0x00424168        0x0 C:/Program Files/ETAS/ISOLAR-EVE3.5.0/plugins/com.etas.evetools.toolsfolder_3.5.5/Tools/MinGW/bin/../lib/gcc/i686-w64-mingw32/8.1.0/../../../../i686-w64-mingw32/lib/../lib/libwinmm.a(dcnfs00150.o)
 .data          0x00424168        0x0 C:/Program Files/ETAS/ISOLAR-EVE3.5.0/plugins/com.etas.evetools.toolsfolder_3.5.5/Tools/MinGW/bin/../lib/gcc/i686-w64-mingw32/8.1.0/../../../../i686-w64-mingw32/lib/../lib/libwinmm.a(dcnfs00149.o)
 .data          0x00424168        0x0 C:/Program Files/ETAS/ISOLAR-EVE3.5.0/plugins/com.etas.evetools.toolsfolder_3.5.5/Tools/MinGW/bin/../lib/gcc/i686-w64-mingw32/8.1.0/../../../../i686-w64-mingw32/lib/../lib/libwinmm.a(dcnfs00144.o)
 .data          0x00424168        0x0 C:/Program Files/ETAS/ISOLAR-EVE3.5.0/plugins/com.etas.evetools.toolsfolder_3.5.5/Tools/MinGW/bin/../lib/gcc/i686-w64-mingw32/8.1.0/../../../../i686-w64-mingw32/lib/../lib/libwinmm.a(dcnfh.o)
 .data          0x00424168        0x0 C:/Program Files/ETAS/ISOLAR-EVE3.5.0/plugins/com.etas.evetools.toolsfolder_3.5.5/Tools/MinGW/bin/../lib/gcc/i686-w64-mingw32/8.1.0/../../../../i686-w64-mingw32/lib/../lib/libwinmm.a(dcnft.o)
 .data          0x00424168        0x0 C:/Program Files/ETAS/ISOLAR-EVE3.5.0/plugins/com.etas.evetools.toolsfolder_3.5.5/Tools/MinGW/bin/../lib/gcc/i686-w64-mingw32/8.1.0\libstdc++.a(class_type_info.o)
 .data          0x00424168        0x0 C:/Program Files/ETAS/ISOLAR-EVE3.5.0/plugins/com.etas.evetools.toolsfolder_3.5.5/Tools/MinGW/bin/../lib/gcc/i686-w64-mingw32/8.1.0\libstdc++.a(del_ops.o)
 .data          0x00424168        0x0 C:/Program Files/ETAS/ISOLAR-EVE3.5.0/plugins/com.etas.evetools.toolsfolder_3.5.5/Tools/MinGW/bin/../lib/gcc/i686-w64-mingw32/8.1.0\libstdc++.a(del_opv.o)
 .data          0x00424168        0x0 C:/Program Files/ETAS/ISOLAR-EVE3.5.0/plugins/com.etas.evetools.toolsfolder_3.5.5/Tools/MinGW/bin/../lib/gcc/i686-w64-mingw32/8.1.0\libstdc++.a(eh_aux_runtime.o)
 .data          0x00424168        0x0 C:/Program Files/ETAS/ISOLAR-EVE3.5.0/plugins/com.etas.evetools.toolsfolder_3.5.5/Tools/MinGW/bin/../lib/gcc/i686-w64-mingw32/8.1.0\libstdc++.a(eh_catch.o)
 .data          0x00424168        0x0 C:/Program Files/ETAS/ISOLAR-EVE3.5.0/plugins/com.etas.evetools.toolsfolder_3.5.5/Tools/MinGW/bin/../lib/gcc/i686-w64-mingw32/8.1.0\libstdc++.a(eh_globals.o)
 .data          0x00424168        0x0 C:/Program Files/ETAS/ISOLAR-EVE3.5.0/plugins/com.etas.evetools.toolsfolder_3.5.5/Tools/MinGW/bin/../lib/gcc/i686-w64-mingw32/8.1.0\libstdc++.a(eh_personality.o)
 .data          0x00424168        0x0 C:/Program Files/ETAS/ISOLAR-EVE3.5.0/plugins/com.etas.evetools.toolsfolder_3.5.5/Tools/MinGW/bin/../lib/gcc/i686-w64-mingw32/8.1.0\libstdc++.a(eh_terminate.o)
 .data          0x00424168        0x0 C:/Program Files/ETAS/ISOLAR-EVE3.5.0/plugins/com.etas.evetools.toolsfolder_3.5.5/Tools/MinGW/bin/../lib/gcc/i686-w64-mingw32/8.1.0\libstdc++.a(eh_term_handler.o)
 .data          0x00424168        0x0 C:/Program Files/ETAS/ISOLAR-EVE3.5.0/plugins/com.etas.evetools.toolsfolder_3.5.5/Tools/MinGW/bin/../lib/gcc/i686-w64-mingw32/8.1.0\libstdc++.a(eh_throw.o)
 .data          0x00424168        0x0 C:/Program Files/ETAS/ISOLAR-EVE3.5.0/plugins/com.etas.evetools.toolsfolder_3.5.5/Tools/MinGW/bin/../lib/gcc/i686-w64-mingw32/8.1.0\libstdc++.a(eh_unex_handler.o)
 .data          0x00424168        0x0 C:/Program Files/ETAS/ISOLAR-EVE3.5.0/plugins/com.etas.evetools.toolsfolder_3.5.5/Tools/MinGW/bin/../lib/gcc/i686-w64-mingw32/8.1.0\libstdc++.a(new_op.o)
 .data          0x00424168        0x0 C:/Program Files/ETAS/ISOLAR-EVE3.5.0/plugins/com.etas.evetools.toolsfolder_3.5.5/Tools/MinGW/bin/../lib/gcc/i686-w64-mingw32/8.1.0\libstdc++.a(new_opv.o)
 .data          0x00424168        0x0 C:/Program Files/ETAS/ISOLAR-EVE3.5.0/plugins/com.etas.evetools.toolsfolder_3.5.5/Tools/MinGW/bin/../lib/gcc/i686-w64-mingw32/8.1.0\libstdc++.a(pure.o)
 .data          0x00424168        0x0 C:/Program Files/ETAS/ISOLAR-EVE3.5.0/plugins/com.etas.evetools.toolsfolder_3.5.5/Tools/MinGW/bin/../lib/gcc/i686-w64-mingw32/8.1.0\libstdc++.a(si_class_type_info.o)
 .data          0x00424168        0x0 C:/Program Files/ETAS/ISOLAR-EVE3.5.0/plugins/com.etas.evetools.toolsfolder_3.5.5/Tools/MinGW/bin/../lib/gcc/i686-w64-mingw32/8.1.0\libstdc++.a(tinfo.o)
 .data          0x00424168        0x0 C:/Program Files/ETAS/ISOLAR-EVE3.5.0/plugins/com.etas.evetools.toolsfolder_3.5.5/Tools/MinGW/bin/../lib/gcc/i686-w64-mingw32/8.1.0\libstdc++.a(vmi_class_type_info.o)
 .data          0x00424168        0x0 C:/Program Files/ETAS/ISOLAR-EVE3.5.0/plugins/com.etas.evetools.toolsfolder_3.5.5/Tools/MinGW/bin/../lib/gcc/i686-w64-mingw32/8.1.0\libstdc++.a(vterminate.o)
 .data          0x00424168        0x0 C:/Program Files/ETAS/ISOLAR-EVE3.5.0/plugins/com.etas.evetools.toolsfolder_3.5.5/Tools/MinGW/bin/../lib/gcc/i686-w64-mingw32/8.1.0\libstdc++.a(bad_alloc.o)
 .data          0x00424168        0x0 C:/Program Files/ETAS/ISOLAR-EVE3.5.0/plugins/com.etas.evetools.toolsfolder_3.5.5/Tools/MinGW/bin/../lib/gcc/i686-w64-mingw32/8.1.0\libstdc++.a(bad_array_new.o)
 .data          0x00424168        0x0 C:/Program Files/ETAS/ISOLAR-EVE3.5.0/plugins/com.etas.evetools.toolsfolder_3.5.5/Tools/MinGW/bin/../lib/gcc/i686-w64-mingw32/8.1.0\libstdc++.a(bad_cast.o)
 .data          0x00424168        0x0 C:/Program Files/ETAS/ISOLAR-EVE3.5.0/plugins/com.etas.evetools.toolsfolder_3.5.5/Tools/MinGW/bin/../lib/gcc/i686-w64-mingw32/8.1.0\libstdc++.a(bad_typeid.o)
 .data          0x00424168        0x0 C:/Program Files/ETAS/ISOLAR-EVE3.5.0/plugins/com.etas.evetools.toolsfolder_3.5.5/Tools/MinGW/bin/../lib/gcc/i686-w64-mingw32/8.1.0\libstdc++.a(cp-demangle.o)
 .data          0x00424168        0x0 C:/Program Files/ETAS/ISOLAR-EVE3.5.0/plugins/com.etas.evetools.toolsfolder_3.5.5/Tools/MinGW/bin/../lib/gcc/i686-w64-mingw32/8.1.0\libstdc++.a(del_op.o)
 .data          0x00424168        0x0 C:/Program Files/ETAS/ISOLAR-EVE3.5.0/plugins/com.etas.evetools.toolsfolder_3.5.5/Tools/MinGW/bin/../lib/gcc/i686-w64-mingw32/8.1.0\libstdc++.a(eh_alloc.o)
 .data          0x00424168        0x0 C:/Program Files/ETAS/ISOLAR-EVE3.5.0/plugins/com.etas.evetools.toolsfolder_3.5.5/Tools/MinGW/bin/../lib/gcc/i686-w64-mingw32/8.1.0\libstdc++.a(eh_call.o)
 .data          0x00424168        0x0 C:/Program Files/ETAS/ISOLAR-EVE3.5.0/plugins/com.etas.evetools.toolsfolder_3.5.5/Tools/MinGW/bin/../lib/gcc/i686-w64-mingw32/8.1.0\libstdc++.a(eh_exception.o)
 .data          0x00424168        0x0 C:/Program Files/ETAS/ISOLAR-EVE3.5.0/plugins/com.etas.evetools.toolsfolder_3.5.5/Tools/MinGW/bin/../lib/gcc/i686-w64-mingw32/8.1.0\libstdc++.a(eh_type.o)
 .data          0x00424168        0x0 C:/Program Files/ETAS/ISOLAR-EVE3.5.0/plugins/com.etas.evetools.toolsfolder_3.5.5/Tools/MinGW/bin/../lib/gcc/i686-w64-mingw32/8.1.0\libstdc++.a(new_handler.o)
 .data          0x00424168        0x4 C:/Program Files/ETAS/ISOLAR-EVE3.5.0/plugins/com.etas.evetools.toolsfolder_3.5.5/Tools/MinGW/bin/../lib/gcc/i686-w64-mingw32/8.1.0/../../../../i686-w64-mingw32/lib/../lib/libmingw32.a(lib32_libmingw32_a-gccmain.o)
 .data          0x0042416c        0x8 C:/Program Files/ETAS/ISOLAR-EVE3.5.0/plugins/com.etas.evetools.toolsfolder_3.5.5/Tools/MinGW/bin/../lib/gcc/i686-w64-mingw32/8.1.0/../../../../i686-w64-mingw32/lib/../lib/libmingw32.a(lib32_libmingw32_a-natstart.o)
                0x0042416c                __native_vcclrit_reason
                0x00424170                __native_dllmain_reason
 .data          0x00424174        0x4 C:/Program Files/ETAS/ISOLAR-EVE3.5.0/plugins/com.etas.evetools.toolsfolder_3.5.5/Tools/MinGW/bin/../lib/gcc/i686-w64-mingw32/8.1.0/../../../../i686-w64-mingw32/lib/../lib/libmingw32.a(lib32_libmingw32_a-wildcard.o)
                0x00424174                _dowildcard
 .data          0x00424178        0x4 C:/Program Files/ETAS/ISOLAR-EVE3.5.0/plugins/com.etas.evetools.toolsfolder_3.5.5/Tools/MinGW/bin/../lib/gcc/i686-w64-mingw32/8.1.0/../../../../i686-w64-mingw32/lib/../lib/libmingw32.a(lib32_libmingw32_a-charmax.o)
                0x00424178                _charmax
 .data          0x0042417c        0x0 C:/Program Files/ETAS/ISOLAR-EVE3.5.0/plugins/com.etas.evetools.toolsfolder_3.5.5/Tools/MinGW/bin/../lib/gcc/i686-w64-mingw32/8.1.0/../../../../i686-w64-mingw32/lib/../lib/libmingw32.a(lib32_libmingw32_a-dllargv.o)
 .data          0x0042417c        0x0 C:/Program Files/ETAS/ISOLAR-EVE3.5.0/plugins/com.etas.evetools.toolsfolder_3.5.5/Tools/MinGW/bin/../lib/gcc/i686-w64-mingw32/8.1.0/../../../../i686-w64-mingw32/lib/../lib/libmingw32.a(lib32_libmingw32_a-gs_support.o)
 .data          0x0042417c        0x0 C:/Program Files/ETAS/ISOLAR-EVE3.5.0/plugins/com.etas.evetools.toolsfolder_3.5.5/Tools/MinGW/bin/../lib/gcc/i686-w64-mingw32/8.1.0/../../../../i686-w64-mingw32/lib/../lib/libmingw32.a(lib32_libmingw32_a-_newmode.o)
 .data          0x0042417c        0x0 C:/Program Files/ETAS/ISOLAR-EVE3.5.0/plugins/com.etas.evetools.toolsfolder_3.5.5/Tools/MinGW/bin/../lib/gcc/i686-w64-mingw32/8.1.0/../../../../i686-w64-mingw32/lib/../lib/libmingw32.a(lib32_libmingw32_a-tlssup.o)
 .data          0x0042417c        0x0 C:/Program Files/ETAS/ISOLAR-EVE3.5.0/plugins/com.etas.evetools.toolsfolder_3.5.5/Tools/MinGW/bin/../lib/gcc/i686-w64-mingw32/8.1.0/../../../../i686-w64-mingw32/lib/../lib/libmingw32.a(lib32_libmingw32_a-cinitexe.o)
 .data          0x0042417c        0x0 C:/Program Files/ETAS/ISOLAR-EVE3.5.0/plugins/com.etas.evetools.toolsfolder_3.5.5/Tools/MinGW/bin/../lib/gcc/i686-w64-mingw32/8.1.0/../../../../i686-w64-mingw32/lib/../lib/libmingw32.a(lib32_libmingw32_a-merr.o)
 .data          0x0042417c        0x0 C:/Program Files/ETAS/ISOLAR-EVE3.5.0/plugins/com.etas.evetools.toolsfolder_3.5.5/Tools/MinGW/bin/../lib/gcc/i686-w64-mingw32/8.1.0/../../../../i686-w64-mingw32/lib/../lib/libmingw32.a(lib32_libmingw32_a-CRT_fp10.o)
 .data          0x0042417c        0x0 C:/Program Files/ETAS/ISOLAR-EVE3.5.0/plugins/com.etas.evetools.toolsfolder_3.5.5/Tools/MinGW/bin/../lib/gcc/i686-w64-mingw32/8.1.0/../../../../i686-w64-mingw32/lib/../lib/libmingw32.a(lib32_libmingw32_a-mingw_helpers.o)
 .data          0x0042417c        0x0 C:/Program Files/ETAS/ISOLAR-EVE3.5.0/plugins/com.etas.evetools.toolsfolder_3.5.5/Tools/MinGW/bin/../lib/gcc/i686-w64-mingw32/8.1.0/../../../../i686-w64-mingw32/lib/../lib/libmingw32.a(lib32_libmingw32_a-pseudo-reloc.o)
 .data          0x0042417c        0x0 C:/Program Files/ETAS/ISOLAR-EVE3.5.0/plugins/com.etas.evetools.toolsfolder_3.5.5/Tools/MinGW/bin/../lib/gcc/i686-w64-mingw32/8.1.0/../../../../i686-w64-mingw32/lib/../lib/libmingw32.a(lib32_libmingw32_a-xtxtmode.o)
 .data          0x0042417c        0x0 C:/Program Files/ETAS/ISOLAR-EVE3.5.0/plugins/com.etas.evetools.toolsfolder_3.5.5/Tools/MinGW/bin/../lib/gcc/i686-w64-mingw32/8.1.0/../../../../i686-w64-mingw32/lib/../lib/libmingw32.a(lib32_libmingw32_a-crt_handler.o)
 .data          0x0042417c        0x0 C:/Program Files/ETAS/ISOLAR-EVE3.5.0/plugins/com.etas.evetools.toolsfolder_3.5.5/Tools/MinGW/bin/../lib/gcc/i686-w64-mingw32/8.1.0/../../../../i686-w64-mingw32/lib/../lib/libmingw32.a(lib32_libmingw32_a-tlsthrd.o)
 .data          0x0042417c        0x4 C:/Program Files/ETAS/ISOLAR-EVE3.5.0/plugins/com.etas.evetools.toolsfolder_3.5.5/Tools/MinGW/bin/../lib/gcc/i686-w64-mingw32/8.1.0/../../../../i686-w64-mingw32/lib/../lib/libmingw32.a(lib32_libmingw32_a-tlsmcrt.o)
                0x0042417c                _CRT_MT
 .data          0x00424180        0x0 C:/Program Files/ETAS/ISOLAR-EVE3.5.0/plugins/com.etas.evetools.toolsfolder_3.5.5/Tools/MinGW/bin/../lib/gcc/i686-w64-mingw32/8.1.0/../../../../i686-w64-mingw32/lib/../lib/libmingw32.a(lib32_libmingw32_a-pseudo-reloc-list.o)
 .data          0x00424180        0x0 C:/Program Files/ETAS/ISOLAR-EVE3.5.0/plugins/com.etas.evetools.toolsfolder_3.5.5/Tools/MinGW/bin/../lib/gcc/i686-w64-mingw32/8.1.0/../../../../i686-w64-mingw32/lib/../lib/libmingw32.a(lib32_libmingw32_a-pesect.o)
 .data          0x00424180        0x0 C:/Program Files/ETAS/ISOLAR-EVE3.5.0/plugins/com.etas.evetools.toolsfolder_3.5.5/Tools/MinGW/bin/../lib/gcc/i686-w64-mingw32/8.1.0/libgcc.a(_chkstk_ms.o)
 .data          0x00424180        0x0 C:/Program Files/ETAS/ISOLAR-EVE3.5.0/plugins/com.etas.evetools.toolsfolder_3.5.5/Tools/MinGW/bin/../lib/gcc/i686-w64-mingw32/8.1.0/libgcc.a(_ctors.o)
 .data          0x00424180        0x0 C:/Program Files/ETAS/ISOLAR-EVE3.5.0/plugins/com.etas.evetools.toolsfolder_3.5.5/Tools/MinGW/bin/../lib/gcc/i686-w64-mingw32/8.1.0/libgcc.a(_divdi3.o)
 .data          0x00424180        0x0 C:/Program Files/ETAS/ISOLAR-EVE3.5.0/plugins/com.etas.evetools.toolsfolder_3.5.5/Tools/MinGW/bin/../lib/gcc/i686-w64-mingw32/8.1.0/libgcc.a(gthr-win32.o)
 .data          0x00424180        0x8 C:/Program Files/ETAS/ISOLAR-EVE3.5.0/plugins/com.etas.evetools.toolsfolder_3.5.5/Tools/MinGW/bin/../lib/gcc/i686-w64-mingw32/8.1.0/libgcc_eh.a(unwind-dw2.o)
 .data          0x00424188        0x8 C:/Program Files/ETAS/ISOLAR-EVE3.5.0/plugins/com.etas.evetools.toolsfolder_3.5.5/Tools/MinGW/bin/../lib/gcc/i686-w64-mingw32/8.1.0/libgcc_eh.a(unwind-dw2-fde.o)
 .data          0x00424190        0x8 C:/Program Files/ETAS/ISOLAR-EVE3.5.0/plugins/com.etas.evetools.toolsfolder_3.5.5/Tools/MinGW/bin/../lib/gcc/i686-w64-mingw32/8.1.0/libgcc_eh.a(emutls.o)
 .data          0x00424198        0x4 C:/Program Files/ETAS/ISOLAR-EVE3.5.0/plugins/com.etas.evetools.toolsfolder_3.5.5/Tools/MinGW/bin/../lib/gcc/i686-w64-mingw32/8.1.0/../../../../i686-w64-mingw32/lib/../lib/libmingwex.a(lib32_libmingwex_a-mingw_matherr.o)
                0x00424198                _MINGW_INSTALL_DEBUG_MATHERR
 .data          0x0042419c        0x0 C:/Program Files/ETAS/ISOLAR-EVE3.5.0/plugins/com.etas.evetools.toolsfolder_3.5.5/Tools/MinGW/bin/../lib/gcc/i686-w64-mingw32/8.1.0/../../../../i686-w64-mingw32/lib/../lib/libmsvcrt.a(dwbes01258.o)
 .data          0x0042419c        0x0 C:/Program Files/ETAS/ISOLAR-EVE3.5.0/plugins/com.etas.evetools.toolsfolder_3.5.5/Tools/MinGW/bin/../lib/gcc/i686-w64-mingw32/8.1.0/../../../../i686-w64-mingw32/lib/../lib/libmsvcrt.a(dwbes01253.o)
 .data          0x0042419c        0x0 C:/Program Files/ETAS/ISOLAR-EVE3.5.0/plugins/com.etas.evetools.toolsfolder_3.5.5/Tools/MinGW/bin/../lib/gcc/i686-w64-mingw32/8.1.0/../../../../i686-w64-mingw32/lib/../lib/libmsvcrt.a(dwbes01221.o)
 .data          0x0042419c        0x0 C:/Program Files/ETAS/ISOLAR-EVE3.5.0/plugins/com.etas.evetools.toolsfolder_3.5.5/Tools/MinGW/bin/../lib/gcc/i686-w64-mingw32/8.1.0/../../../../i686-w64-mingw32/lib/../lib/libmsvcrt.a(dwbes01220.o)
 .data          0x0042419c        0x0 C:/Program Files/ETAS/ISOLAR-EVE3.5.0/plugins/com.etas.evetools.toolsfolder_3.5.5/Tools/MinGW/bin/../lib/gcc/i686-w64-mingw32/8.1.0/../../../../i686-w64-mingw32/lib/../lib/libmsvcrt.a(dwbes01217.o)
 .data          0x0042419c        0x0 C:/Program Files/ETAS/ISOLAR-EVE3.5.0/plugins/com.etas.evetools.toolsfolder_3.5.5/Tools/MinGW/bin/../lib/gcc/i686-w64-mingw32/8.1.0/../../../../i686-w64-mingw32/lib/../lib/libmsvcrt.a(dwbes01212.o)
 .data          0x0042419c        0x0 C:/Program Files/ETAS/ISOLAR-EVE3.5.0/plugins/com.etas.evetools.toolsfolder_3.5.5/Tools/MinGW/bin/../lib/gcc/i686-w64-mingw32/8.1.0/../../../../i686-w64-mingw32/lib/../lib/libmsvcrt.a(dwbes01210.o)
 .data          0x0042419c        0x0 C:/Program Files/ETAS/ISOLAR-EVE3.5.0/plugins/com.etas.evetools.toolsfolder_3.5.5/Tools/MinGW/bin/../lib/gcc/i686-w64-mingw32/8.1.0/../../../../i686-w64-mingw32/lib/../lib/libmsvcrt.a(dwbes01207.o)
 .data          0x0042419c        0x0 C:/Program Files/ETAS/ISOLAR-EVE3.5.0/plugins/com.etas.evetools.toolsfolder_3.5.5/Tools/MinGW/bin/../lib/gcc/i686-w64-mingw32/8.1.0/../../../../i686-w64-mingw32/lib/../lib/libmsvcrt.a(dwbes01202.o)
 .data          0x0042419c        0x0 C:/Program Files/ETAS/ISOLAR-EVE3.5.0/plugins/com.etas.evetools.toolsfolder_3.5.5/Tools/MinGW/bin/../lib/gcc/i686-w64-mingw32/8.1.0/../../../../i686-w64-mingw32/lib/../lib/libmsvcrt.a(dwbes01199.o)
 .data          0x0042419c        0x0 C:/Program Files/ETAS/ISOLAR-EVE3.5.0/plugins/com.etas.evetools.toolsfolder_3.5.5/Tools/MinGW/bin/../lib/gcc/i686-w64-mingw32/8.1.0/../../../../i686-w64-mingw32/lib/../lib/libmsvcrt.a(dwbes01190.o)
 .data          0x0042419c        0x0 C:/Program Files/ETAS/ISOLAR-EVE3.5.0/plugins/com.etas.evetools.toolsfolder_3.5.5/Tools/MinGW/bin/../lib/gcc/i686-w64-mingw32/8.1.0/../../../../i686-w64-mingw32/lib/../lib/libmsvcrt.a(dwbes01174.o)
 .data          0x0042419c        0x0 C:/Program Files/ETAS/ISOLAR-EVE3.5.0/plugins/com.etas.evetools.toolsfolder_3.5.5/Tools/MinGW/bin/../lib/gcc/i686-w64-mingw32/8.1.0/../../../../i686-w64-mingw32/lib/../lib/libmsvcrt.a(dwbes01172.o)
 .data          0x0042419c        0x0 C:/Program Files/ETAS/ISOLAR-EVE3.5.0/plugins/com.etas.evetools.toolsfolder_3.5.5/Tools/MinGW/bin/../lib/gcc/i686-w64-mingw32/8.1.0/../../../../i686-w64-mingw32/lib/../lib/libmsvcrt.a(dwbes01163.o)
 .data          0x0042419c        0x0 C:/Program Files/ETAS/ISOLAR-EVE3.5.0/plugins/com.etas.evetools.toolsfolder_3.5.5/Tools/MinGW/bin/../lib/gcc/i686-w64-mingw32/8.1.0/../../../../i686-w64-mingw32/lib/../lib/libmsvcrt.a(dwbes01118.o)
 .data          0x0042419c        0x0 C:/Program Files/ETAS/ISOLAR-EVE3.5.0/plugins/com.etas.evetools.toolsfolder_3.5.5/Tools/MinGW/bin/../lib/gcc/i686-w64-mingw32/8.1.0/../../../../i686-w64-mingw32/lib/../lib/libmsvcrt.a(dwbes01104.o)
 .data          0x0042419c        0x0 C:/Program Files/ETAS/ISOLAR-EVE3.5.0/plugins/com.etas.evetools.toolsfolder_3.5.5/Tools/MinGW/bin/../lib/gcc/i686-w64-mingw32/8.1.0/../../../../i686-w64-mingw32/lib/../lib/libmsvcrt.a(dwbes01100.o)
 .data          0x0042419c        0x0 C:/Program Files/ETAS/ISOLAR-EVE3.5.0/plugins/com.etas.evetools.toolsfolder_3.5.5/Tools/MinGW/bin/../lib/gcc/i686-w64-mingw32/8.1.0/../../../../i686-w64-mingw32/lib/../lib/libmsvcrt.a(dwbes01099.o)
 .data          0x0042419c        0x0 C:/Program Files/ETAS/ISOLAR-EVE3.5.0/plugins/com.etas.evetools.toolsfolder_3.5.5/Tools/MinGW/bin/../lib/gcc/i686-w64-mingw32/8.1.0/../../../../i686-w64-mingw32/lib/../lib/libmsvcrt.a(dwbes01097.o)
 .data          0x0042419c        0x0 C:/Program Files/ETAS/ISOLAR-EVE3.5.0/plugins/com.etas.evetools.toolsfolder_3.5.5/Tools/MinGW/bin/../lib/gcc/i686-w64-mingw32/8.1.0/../../../../i686-w64-mingw32/lib/../lib/libmsvcrt.a(dwbes01095.o)
 .data          0x0042419c        0x0 C:/Program Files/ETAS/ISOLAR-EVE3.5.0/plugins/com.etas.evetools.toolsfolder_3.5.5/Tools/MinGW/bin/../lib/gcc/i686-w64-mingw32/8.1.0/../../../../i686-w64-mingw32/lib/../lib/libmsvcrt.a(dwbes01087.o)
 .data          0x0042419c        0x0 C:/Program Files/ETAS/ISOLAR-EVE3.5.0/plugins/com.etas.evetools.toolsfolder_3.5.5/Tools/MinGW/bin/../lib/gcc/i686-w64-mingw32/8.1.0/../../../../i686-w64-mingw32/lib/../lib/libmsvcrt.a(dwbes01084.o)
 .data          0x0042419c        0x0 C:/Program Files/ETAS/ISOLAR-EVE3.5.0/plugins/com.etas.evetools.toolsfolder_3.5.5/Tools/MinGW/bin/../lib/gcc/i686-w64-mingw32/8.1.0/../../../../i686-w64-mingw32/lib/../lib/libmsvcrt.a(dwbes01081.o)
 .data          0x0042419c        0x0 C:/Program Files/ETAS/ISOLAR-EVE3.5.0/plugins/com.etas.evetools.toolsfolder_3.5.5/Tools/MinGW/bin/../lib/gcc/i686-w64-mingw32/8.1.0/../../../../i686-w64-mingw32/lib/../lib/libmsvcrt.a(dwbes01076.o)
 .data          0x0042419c        0x0 C:/Program Files/ETAS/ISOLAR-EVE3.5.0/plugins/com.etas.evetools.toolsfolder_3.5.5/Tools/MinGW/bin/../lib/gcc/i686-w64-mingw32/8.1.0/../../../../i686-w64-mingw32/lib/../lib/libmsvcrt.a(dwbes01066.o)
 .data          0x0042419c        0x0 C:/Program Files/ETAS/ISOLAR-EVE3.5.0/plugins/com.etas.evetools.toolsfolder_3.5.5/Tools/MinGW/bin/../lib/gcc/i686-w64-mingw32/8.1.0/../../../../i686-w64-mingw32/lib/../lib/libmsvcrt.a(dwbes01057.o)
 .data          0x0042419c        0x0 C:/Program Files/ETAS/ISOLAR-EVE3.5.0/plugins/com.etas.evetools.toolsfolder_3.5.5/Tools/MinGW/bin/../lib/gcc/i686-w64-mingw32/8.1.0/../../../../i686-w64-mingw32/lib/../lib/libmsvcrt.a(dwbes01010.o)
 .data          0x0042419c        0x0 C:/Program Files/ETAS/ISOLAR-EVE3.5.0/plugins/com.etas.evetools.toolsfolder_3.5.5/Tools/MinGW/bin/../lib/gcc/i686-w64-mingw32/8.1.0/../../../../i686-w64-mingw32/lib/../lib/libmsvcrt.a(dwbes00629.o)
 .data          0x0042419c        0x0 C:/Program Files/ETAS/ISOLAR-EVE3.5.0/plugins/com.etas.evetools.toolsfolder_3.5.5/Tools/MinGW/bin/../lib/gcc/i686-w64-mingw32/8.1.0/../../../../i686-w64-mingw32/lib/../lib/libmsvcrt.a(dwbes00351.o)
 .data          0x0042419c        0x0 C:/Program Files/ETAS/ISOLAR-EVE3.5.0/plugins/com.etas.evetools.toolsfolder_3.5.5/Tools/MinGW/bin/../lib/gcc/i686-w64-mingw32/8.1.0/../../../../i686-w64-mingw32/lib/../lib/libmsvcrt.a(dwbes00161.o)
 .data          0x0042419c        0x0 C:/Program Files/ETAS/ISOLAR-EVE3.5.0/plugins/com.etas.evetools.toolsfolder_3.5.5/Tools/MinGW/bin/../lib/gcc/i686-w64-mingw32/8.1.0/../../../../i686-w64-mingw32/lib/../lib/libmsvcrt.a(dwbes00144.o)
 .data          0x0042419c        0x0 C:/Program Files/ETAS/ISOLAR-EVE3.5.0/plugins/com.etas.evetools.toolsfolder_3.5.5/Tools/MinGW/bin/../lib/gcc/i686-w64-mingw32/8.1.0/../../../../i686-w64-mingw32/lib/../lib/libmsvcrt.a(dwbes00107.o)
 .data          0x0042419c        0x0 C:/Program Files/ETAS/ISOLAR-EVE3.5.0/plugins/com.etas.evetools.toolsfolder_3.5.5/Tools/MinGW/bin/../lib/gcc/i686-w64-mingw32/8.1.0/../../../../i686-w64-mingw32/lib/../lib/libmsvcrt.a(dwbes00104.o)
 .data          0x0042419c        0x0 C:/Program Files/ETAS/ISOLAR-EVE3.5.0/plugins/com.etas.evetools.toolsfolder_3.5.5/Tools/MinGW/bin/../lib/gcc/i686-w64-mingw32/8.1.0/../../../../i686-w64-mingw32/lib/../lib/libmsvcrt.a(dwbes00083.o)
 .data          0x0042419c        0x0 C:/Program Files/ETAS/ISOLAR-EVE3.5.0/plugins/com.etas.evetools.toolsfolder_3.5.5/Tools/MinGW/bin/../lib/gcc/i686-w64-mingw32/8.1.0/../../../../i686-w64-mingw32/lib/../lib/libmsvcrt.a(dwbes00076.o)
 .data          0x0042419c        0x0 C:/Program Files/ETAS/ISOLAR-EVE3.5.0/plugins/com.etas.evetools.toolsfolder_3.5.5/Tools/MinGW/bin/../lib/gcc/i686-w64-mingw32/8.1.0/../../../../i686-w64-mingw32/lib/../lib/libmsvcrt.a(dwbes00068.o)
 .data          0x0042419c        0x0 C:/Program Files/ETAS/ISOLAR-EVE3.5.0/plugins/com.etas.evetools.toolsfolder_3.5.5/Tools/MinGW/bin/../lib/gcc/i686-w64-mingw32/8.1.0/../../../../i686-w64-mingw32/lib/../lib/libmsvcrt.a(dwbes00059.o)
 .data          0x0042419c        0x0 C:/Program Files/ETAS/ISOLAR-EVE3.5.0/plugins/com.etas.evetools.toolsfolder_3.5.5/Tools/MinGW/bin/../lib/gcc/i686-w64-mingw32/8.1.0/../../../../i686-w64-mingw32/lib/../lib/libmsvcrt.a(dwbes00058.o)
 .data          0x0042419c        0x4 C:/Program Files/ETAS/ISOLAR-EVE3.5.0/plugins/com.etas.evetools.toolsfolder_3.5.5/Tools/MinGW/bin/../lib/gcc/i686-w64-mingw32/8.1.0/../../../../i686-w64-mingw32/lib/../lib/libmsvcrt.a(lib32_libmsvcrt_os_a-acrt_iob_func.o)
                0x0042419c                _imp____acrt_iob_func
 .data          0x004241a0        0x8 C:/Program Files/ETAS/ISOLAR-EVE3.5.0/plugins/com.etas.evetools.toolsfolder_3.5.5/Tools/MinGW/bin/../lib/gcc/i686-w64-mingw32/8.1.0/../../../../i686-w64-mingw32/lib/../lib/libmsvcrt.a(lib32_libmsvcrt_os_a-invalid_parameter_handler.o)
                0x004241a0                _imp___get_invalid_parameter_handler
                0x004241a4                _imp___set_invalid_parameter_handler
 .data          0x004241a8        0x0 C:/Program Files/ETAS/ISOLAR-EVE3.5.0/plugins/com.etas.evetools.toolsfolder_3.5.5/Tools/MinGW/bin/../lib/gcc/i686-w64-mingw32/8.1.0/../../../../i686-w64-mingw32/lib/../lib/libmsvcrt.a(dwbeh.o)
 .data          0x004241a8        0x0 C:/Program Files/ETAS/ISOLAR-EVE3.5.0/plugins/com.etas.evetools.toolsfolder_3.5.5/Tools/MinGW/bin/../lib/gcc/i686-w64-mingw32/8.1.0/../../../../i686-w64-mingw32/lib/../lib/libmsvcrt.a(dwbes00355.o)
 .data          0x004241a8        0x0 C:/Program Files/ETAS/ISOLAR-EVE3.5.0/plugins/com.etas.evetools.toolsfolder_3.5.5/Tools/MinGW/bin/../lib/gcc/i686-w64-mingw32/8.1.0/../../../../i686-w64-mingw32/lib/../lib/libmsvcrt.a(dwbet.o)
 .data          0x004241a8        0x0 C:/Program Files/ETAS/ISOLAR-EVE3.5.0/plugins/com.etas.evetools.toolsfolder_3.5.5/Tools/MinGW/bin/../lib/gcc/i686-w64-mingw32/8.1.0/../../../../i686-w64-mingw32/lib/../lib/libuser32.a(dmces00588.o)
 .data          0x004241a8        0x0 C:/Program Files/ETAS/ISOLAR-EVE3.5.0/plugins/com.etas.evetools.toolsfolder_3.5.5/Tools/MinGW/bin/../lib/gcc/i686-w64-mingw32/8.1.0/../../../../i686-w64-mingw32/lib/../lib/libuser32.a(dmceh.o)
 .data          0x004241a8        0x0 C:/Program Files/ETAS/ISOLAR-EVE3.5.0/plugins/com.etas.evetools.toolsfolder_3.5.5/Tools/MinGW/bin/../lib/gcc/i686-w64-mingw32/8.1.0/../../../../i686-w64-mingw32/lib/../lib/libuser32.a(dmcet.o)
 .data          0x004241a8        0x0 C:/Program Files/ETAS/ISOLAR-EVE3.5.0/plugins/com.etas.evetools.toolsfolder_3.5.5/Tools/MinGW/bin/../lib/gcc/i686-w64-mingw32/8.1.0/../../../../i686-w64-mingw32/lib/../lib/libkernel32.a(dgzcs01255.o)
 .data          0x004241a8        0x0 C:/Program Files/ETAS/ISOLAR-EVE3.5.0/plugins/com.etas.evetools.toolsfolder_3.5.5/Tools/MinGW/bin/../lib/gcc/i686-w64-mingw32/8.1.0/../../../../i686-w64-mingw32/lib/../lib/libkernel32.a(dgzcs01246.o)
 .data          0x004241a8        0x0 C:/Program Files/ETAS/ISOLAR-EVE3.5.0/plugins/com.etas.evetools.toolsfolder_3.5.5/Tools/MinGW/bin/../lib/gcc/i686-w64-mingw32/8.1.0/../../../../i686-w64-mingw32/lib/../lib/libkernel32.a(dgzcs01243.o)
 .data          0x004241a8        0x0 C:/Program Files/ETAS/ISOLAR-EVE3.5.0/plugins/com.etas.evetools.toolsfolder_3.5.5/Tools/MinGW/bin/../lib/gcc/i686-w64-mingw32/8.1.0/../../../../i686-w64-mingw32/lib/../lib/libkernel32.a(dgzcs01210.o)
 .data          0x004241a8        0x0 C:/Program Files/ETAS/ISOLAR-EVE3.5.0/plugins/com.etas.evetools.toolsfolder_3.5.5/Tools/MinGW/bin/../lib/gcc/i686-w64-mingw32/8.1.0/../../../../i686-w64-mingw32/lib/../lib/libkernel32.a(dgzcs01198.o)
 .data          0x004241a8        0x0 C:/Program Files/ETAS/ISOLAR-EVE3.5.0/plugins/com.etas.evetools.toolsfolder_3.5.5/Tools/MinGW/bin/../lib/gcc/i686-w64-mingw32/8.1.0/../../../../i686-w64-mingw32/lib/../lib/libkernel32.a(dgzcs01197.o)
 .data          0x004241a8        0x0 C:/Program Files/ETAS/ISOLAR-EVE3.5.0/plugins/com.etas.evetools.toolsfolder_3.5.5/Tools/MinGW/bin/../lib/gcc/i686-w64-mingw32/8.1.0/../../../../i686-w64-mingw32/lib/../lib/libkernel32.a(dgzcs01196.o)
 .data          0x004241a8        0x0 C:/Program Files/ETAS/ISOLAR-EVE3.5.0/plugins/com.etas.evetools.toolsfolder_3.5.5/Tools/MinGW/bin/../lib/gcc/i686-w64-mingw32/8.1.0/../../../../i686-w64-mingw32/lib/../lib/libkernel32.a(dgzcs01195.o)
 .data          0x004241a8        0x0 C:/Program Files/ETAS/ISOLAR-EVE3.5.0/plugins/com.etas.evetools.toolsfolder_3.5.5/Tools/MinGW/bin/../lib/gcc/i686-w64-mingw32/8.1.0/../../../../i686-w64-mingw32/lib/../lib/libkernel32.a(dgzcs01190.o)
 .data          0x004241a8        0x0 C:/Program Files/ETAS/ISOLAR-EVE3.5.0/plugins/com.etas.evetools.toolsfolder_3.5.5/Tools/MinGW/bin/../lib/gcc/i686-w64-mingw32/8.1.0/../../../../i686-w64-mingw32/lib/../lib/libkernel32.a(dgzcs01186.o)
 .data          0x004241a8        0x0 C:/Program Files/ETAS/ISOLAR-EVE3.5.0/plugins/com.etas.evetools.toolsfolder_3.5.5/Tools/MinGW/bin/../lib/gcc/i686-w64-mingw32/8.1.0/../../../../i686-w64-mingw32/lib/../lib/libkernel32.a(dgzcs01176.o)
 .data          0x004241a8        0x0 C:/Program Files/ETAS/ISOLAR-EVE3.5.0/plugins/com.etas.evetools.toolsfolder_3.5.5/Tools/MinGW/bin/../lib/gcc/i686-w64-mingw32/8.1.0/../../../../i686-w64-mingw32/lib/../lib/libkernel32.a(dgzcs01163.o)
 .data          0x004241a8        0x0 C:/Program Files/ETAS/ISOLAR-EVE3.5.0/plugins/com.etas.evetools.toolsfolder_3.5.5/Tools/MinGW/bin/../lib/gcc/i686-w64-mingw32/8.1.0/../../../../i686-w64-mingw32/lib/../lib/libkernel32.a(dgzcs01114.o)
 .data          0x004241a8        0x0 C:/Program Files/ETAS/ISOLAR-EVE3.5.0/plugins/com.etas.evetools.toolsfolder_3.5.5/Tools/MinGW/bin/../lib/gcc/i686-w64-mingw32/8.1.0/../../../../i686-w64-mingw32/lib/../lib/libkernel32.a(dgzcs00997.o)
 .data          0x004241a8        0x0 C:/Program Files/ETAS/ISOLAR-EVE3.5.0/plugins/com.etas.evetools.toolsfolder_3.5.5/Tools/MinGW/bin/../lib/gcc/i686-w64-mingw32/8.1.0/../../../../i686-w64-mingw32/lib/../lib/libkernel32.a(dgzcs00993.o)
 .data          0x004241a8        0x0 C:/Program Files/ETAS/ISOLAR-EVE3.5.0/plugins/com.etas.evetools.toolsfolder_3.5.5/Tools/MinGW/bin/../lib/gcc/i686-w64-mingw32/8.1.0/../../../../i686-w64-mingw32/lib/../lib/libkernel32.a(dgzcs00950.o)
 .data          0x004241a8        0x0 C:/Program Files/ETAS/ISOLAR-EVE3.5.0/plugins/com.etas.evetools.toolsfolder_3.5.5/Tools/MinGW/bin/../lib/gcc/i686-w64-mingw32/8.1.0/../../../../i686-w64-mingw32/lib/../lib/libkernel32.a(dgzcs00949.o)
 .data          0x004241a8        0x0 C:/Program Files/ETAS/ISOLAR-EVE3.5.0/plugins/com.etas.evetools.toolsfolder_3.5.5/Tools/MinGW/bin/../lib/gcc/i686-w64-mingw32/8.1.0/../../../../i686-w64-mingw32/lib/../lib/libkernel32.a(dgzcs00866.o)
 .data          0x004241a8        0x0 C:/Program Files/ETAS/ISOLAR-EVE3.5.0/plugins/com.etas.evetools.toolsfolder_3.5.5/Tools/MinGW/bin/../lib/gcc/i686-w64-mingw32/8.1.0/../../../../i686-w64-mingw32/lib/../lib/libkernel32.a(dgzcs00839.o)
 .data          0x004241a8        0x0 C:/Program Files/ETAS/ISOLAR-EVE3.5.0/plugins/com.etas.evetools.toolsfolder_3.5.5/Tools/MinGW/bin/../lib/gcc/i686-w64-mingw32/8.1.0/../../../../i686-w64-mingw32/lib/../lib/libkernel32.a(dgzcs00836.o)
 .data          0x004241a8        0x0 C:/Program Files/ETAS/ISOLAR-EVE3.5.0/plugins/com.etas.evetools.toolsfolder_3.5.5/Tools/MinGW/bin/../lib/gcc/i686-w64-mingw32/8.1.0/../../../../i686-w64-mingw32/lib/../lib/libkernel32.a(dgzcs00750.o)
 .data          0x004241a8        0x0 C:/Program Files/ETAS/ISOLAR-EVE3.5.0/plugins/com.etas.evetools.toolsfolder_3.5.5/Tools/MinGW/bin/../lib/gcc/i686-w64-mingw32/8.1.0/../../../../i686-w64-mingw32/lib/../lib/libkernel32.a(dgzcs00666.o)
 .data          0x004241a8        0x0 C:/Program Files/ETAS/ISOLAR-EVE3.5.0/plugins/com.etas.evetools.toolsfolder_3.5.5/Tools/MinGW/bin/../lib/gcc/i686-w64-mingw32/8.1.0/../../../../i686-w64-mingw32/lib/../lib/libkernel32.a(dgzcs00638.o)
 .data          0x004241a8        0x0 C:/Program Files/ETAS/ISOLAR-EVE3.5.0/plugins/com.etas.evetools.toolsfolder_3.5.5/Tools/MinGW/bin/../lib/gcc/i686-w64-mingw32/8.1.0/../../../../i686-w64-mingw32/lib/../lib/libkernel32.a(dgzcs00615.o)
 .data          0x004241a8        0x0 C:/Program Files/ETAS/ISOLAR-EVE3.5.0/plugins/com.etas.evetools.toolsfolder_3.5.5/Tools/MinGW/bin/../lib/gcc/i686-w64-mingw32/8.1.0/../../../../i686-w64-mingw32/lib/../lib/libkernel32.a(dgzcs00584.o)
 .data          0x004241a8        0x0 C:/Program Files/ETAS/ISOLAR-EVE3.5.0/plugins/com.etas.evetools.toolsfolder_3.5.5/Tools/MinGW/bin/../lib/gcc/i686-w64-mingw32/8.1.0/../../../../i686-w64-mingw32/lib/../lib/libkernel32.a(dgzcs00536.o)
 .data          0x004241a8        0x0 C:/Program Files/ETAS/ISOLAR-EVE3.5.0/plugins/com.etas.evetools.toolsfolder_3.5.5/Tools/MinGW/bin/../lib/gcc/i686-w64-mingw32/8.1.0/../../../../i686-w64-mingw32/lib/../lib/libkernel32.a(dgzcs00518.o)
 .data          0x004241a8        0x0 C:/Program Files/ETAS/ISOLAR-EVE3.5.0/plugins/com.etas.evetools.toolsfolder_3.5.5/Tools/MinGW/bin/../lib/gcc/i686-w64-mingw32/8.1.0/../../../../i686-w64-mingw32/lib/../lib/libkernel32.a(dgzcs00482.o)
 .data          0x004241a8        0x0 C:/Program Files/ETAS/ISOLAR-EVE3.5.0/plugins/com.etas.evetools.toolsfolder_3.5.5/Tools/MinGW/bin/../lib/gcc/i686-w64-mingw32/8.1.0/../../../../i686-w64-mingw32/lib/../lib/libkernel32.a(dgzcs00460.o)
 .data          0x004241a8        0x0 C:/Program Files/ETAS/ISOLAR-EVE3.5.0/plugins/com.etas.evetools.toolsfolder_3.5.5/Tools/MinGW/bin/../lib/gcc/i686-w64-mingw32/8.1.0/../../../../i686-w64-mingw32/lib/../lib/libkernel32.a(dgzcs00456.o)
 .data          0x004241a8        0x0 C:/Program Files/ETAS/ISOLAR-EVE3.5.0/plugins/com.etas.evetools.toolsfolder_3.5.5/Tools/MinGW/bin/../lib/gcc/i686-w64-mingw32/8.1.0/../../../../i686-w64-mingw32/lib/../lib/libkernel32.a(dgzcs00455.o)
 .data          0x004241a8        0x0 C:/Program Files/ETAS/ISOLAR-EVE3.5.0/plugins/com.etas.evetools.toolsfolder_3.5.5/Tools/MinGW/bin/../lib/gcc/i686-w64-mingw32/8.1.0/../../../../i686-w64-mingw32/lib/../lib/libkernel32.a(dgzcs00359.o)
 .data          0x004241a8        0x0 C:/Program Files/ETAS/ISOLAR-EVE3.5.0/plugins/com.etas.evetools.toolsfolder_3.5.5/Tools/MinGW/bin/../lib/gcc/i686-w64-mingw32/8.1.0/../../../../i686-w64-mingw32/lib/../lib/libkernel32.a(dgzcs00354.o)
 .data          0x004241a8        0x0 C:/Program Files/ETAS/ISOLAR-EVE3.5.0/plugins/com.etas.evetools.toolsfolder_3.5.5/Tools/MinGW/bin/../lib/gcc/i686-w64-mingw32/8.1.0/../../../../i686-w64-mingw32/lib/../lib/libkernel32.a(dgzcs00286.o)
 .data          0x004241a8        0x0 C:/Program Files/ETAS/ISOLAR-EVE3.5.0/plugins/com.etas.evetools.toolsfolder_3.5.5/Tools/MinGW/bin/../lib/gcc/i686-w64-mingw32/8.1.0/../../../../i686-w64-mingw32/lib/../lib/libkernel32.a(dgzcs00242.o)
 .data          0x004241a8        0x0 C:/Program Files/ETAS/ISOLAR-EVE3.5.0/plugins/com.etas.evetools.toolsfolder_3.5.5/Tools/MinGW/bin/../lib/gcc/i686-w64-mingw32/8.1.0/../../../../i686-w64-mingw32/lib/../lib/libkernel32.a(dgzcs00214.o)
 .data          0x004241a8        0x0 C:/Program Files/ETAS/ISOLAR-EVE3.5.0/plugins/com.etas.evetools.toolsfolder_3.5.5/Tools/MinGW/bin/../lib/gcc/i686-w64-mingw32/8.1.0/../../../../i686-w64-mingw32/lib/../lib/libkernel32.a(dgzcs00178.o)
 .data          0x004241a8        0x0 C:/Program Files/ETAS/ISOLAR-EVE3.5.0/plugins/com.etas.evetools.toolsfolder_3.5.5/Tools/MinGW/bin/../lib/gcc/i686-w64-mingw32/8.1.0/../../../../i686-w64-mingw32/lib/../lib/libkernel32.a(dgzcs00175.o)
 .data          0x004241a8        0x0 C:/Program Files/ETAS/ISOLAR-EVE3.5.0/plugins/com.etas.evetools.toolsfolder_3.5.5/Tools/MinGW/bin/../lib/gcc/i686-w64-mingw32/8.1.0/../../../../i686-w64-mingw32/lib/../lib/libkernel32.a(dgzcs00159.o)
 .data          0x004241a8        0x0 C:/Program Files/ETAS/ISOLAR-EVE3.5.0/plugins/com.etas.evetools.toolsfolder_3.5.5/Tools/MinGW/bin/../lib/gcc/i686-w64-mingw32/8.1.0/../../../../i686-w64-mingw32/lib/../lib/libkernel32.a(dgzcs00140.o)
 .data          0x004241a8        0x0 C:/Program Files/ETAS/ISOLAR-EVE3.5.0/plugins/com.etas.evetools.toolsfolder_3.5.5/Tools/MinGW/bin/../lib/gcc/i686-w64-mingw32/8.1.0/../../../../i686-w64-mingw32/lib/../lib/libkernel32.a(dgzcs00083.o)
 .data          0x004241a8        0x0 C:/Program Files/ETAS/ISOLAR-EVE3.5.0/plugins/com.etas.evetools.toolsfolder_3.5.5/Tools/MinGW/bin/../lib/gcc/i686-w64-mingw32/8.1.0/../../../../i686-w64-mingw32/lib/../lib/libkernel32.a(dgzch.o)
 .data          0x004241a8        0x0 C:/Program Files/ETAS/ISOLAR-EVE3.5.0/plugins/com.etas.evetools.toolsfolder_3.5.5/Tools/MinGW/bin/../lib/gcc/i686-w64-mingw32/8.1.0/../../../../i686-w64-mingw32/lib/../lib/libkernel32.a(dgzct.o)
 .data          0x004241a8        0x0 C:/Program Files/ETAS/ISOLAR-EVE3.5.0/plugins/com.etas.evetools.toolsfolder_3.5.5/Tools/MinGW/bin/../lib/gcc/i686-w64-mingw32/8.1.0/../../../../i686-w64-mingw32/lib/../lib/libmingw32.a(lib32_libmingw32_a-tlsmthread.o)
 .data          0x004241a8        0x0 C:/Program Files/ETAS/ISOLAR-EVE3.5.0/plugins/com.etas.evetools.toolsfolder_3.5.5/Tools/MinGW/bin/../lib/gcc/i686-w64-mingw32/8.1.0/crtend.o
 *(.data2)
 *(SORT_BY_NAME(.data$*))
 .data$_ZN10__cxxabiv119__terminate_handlerE
                0x004241a8        0x4 C:/Program Files/ETAS/ISOLAR-EVE3.5.0/plugins/com.etas.evetools.toolsfolder_3.5.5/Tools/MinGW/bin/../lib/gcc/i686-w64-mingw32/8.1.0\libstdc++.a(eh_term_handler.o)
                0x004241a8                __cxxabiv1::__terminate_handler
 .data$_ZN10__cxxabiv120__unexpected_handlerE
                0x004241ac        0x4 C:/Program Files/ETAS/ISOLAR-EVE3.5.0/plugins/com.etas.evetools.toolsfolder_3.5.5/Tools/MinGW/bin/../lib/gcc/i686-w64-mingw32/8.1.0\libstdc++.a(eh_unex_handler.o)
                0x004241ac                __cxxabiv1::__unexpected_handler
 .data$_ZN12_GLOBAL__N_113__new_handlerE
                0x004241b0        0x4 C:/Program Files/ETAS/ISOLAR-EVE3.5.0/plugins/com.etas.evetools.toolsfolder_3.5.5/Tools/MinGW/bin/../lib/gcc/i686-w64-mingw32/8.1.0\libstdc++.a(new_handler.o)
 .data$_ZN12_GLOBAL__N_114emergency_poolE
                0x004241b4       0x14 C:/Program Files/ETAS/ISOLAR-EVE3.5.0/plugins/com.etas.evetools.toolsfolder_3.5.5/Tools/MinGW/bin/../lib/gcc/i686-w64-mingw32/8.1.0\libstdc++.a(eh_alloc.o)
 .data$_ZZN9__gnu_cxx27__verbose_terminate_handlerEvE11terminating
                0x004241c8        0x4 C:/Program Files/ETAS/ISOLAR-EVE3.5.0/plugins/com.etas.evetools.toolsfolder_3.5.5/Tools/MinGW/bin/../lib/gcc/i686-w64-mingw32/8.1.0\libstdc++.a(vterminate.o)
 .data$__emutls_v._ZZN12_GLOBAL__N_110get_globalEvE6global
                0x004241cc       0x10 C:/Program Files/ETAS/ISOLAR-EVE3.5.0/plugins/com.etas.evetools.toolsfolder_3.5.5/Tools/MinGW/bin/../lib/gcc/i686-w64-mingw32/8.1.0\libstdc++.a(eh_globals.o)
 .data$__security_cookie
                0x004241dc        0x4 C:/Program Files/ETAS/ISOLAR-EVE3.5.0/plugins/com.etas.evetools.toolsfolder_3.5.5/Tools/MinGW/bin/../lib/gcc/i686-w64-mingw32/8.1.0/../../../../i686-w64-mingw32/lib/../lib/libmingw32.a(lib32_libmingw32_a-gs_support.o)
                0x004241dc                __security_cookie
 .data$__security_cookie_complement
                0x004241e0        0x4 C:/Program Files/ETAS/ISOLAR-EVE3.5.0/plugins/com.etas.evetools.toolsfolder_3.5.5/Tools/MinGW/bin/../lib/gcc/i686-w64-mingw32/8.1.0/../../../../i686-w64-mingw32/lib/../lib/libmingw32.a(lib32_libmingw32_a-gs_support.o)
                0x004241e0                __security_cookie_complement
 *(.jcr)
                0x004241e4                __data_end__ = .
 *(.data_cygwin_nocopy)

.rdata          0x00425000     0x8a00
 *(.rdata)
 .rdata         0x00425000       0x44 C:/Program Files/ETAS/ISOLAR-EVE3.5.0/plugins/com.etas.evetools.toolsfolder_3.5.5/Tools/MinGW/bin/../lib/gcc/i686-w64-mingw32/8.1.0/crtbegin.o
 .rdata         0x00425044      0x1c8 EVE_SystemClock.o
 .rdata         0x0042520c       0x6c Os_ErrorHook.o
 *fill*         0x00425278        0x8 
 .rdata         0x00425280      0x5a0 Rte.o
                0x00425280                Rte_Queue_CPT_ACT_HYDRAULIC_MODULATOR_FRONTL_COMP_ACT_HM_FL_Client_set_E_op_wowp
                0x0042528c                Rte_Queue_CPT_ACT_HYDRAULIC_MODULATOR_FRONTL_COMP_ACT_HM_FL_Client_set_E_op
                0x004252a8                Rte_Queue_CPT_ACT_HYDRAULIC_MODULATOR_FRONTR_COMP_ACT_HM_FR_Client_set_E_op_wowp
                0x004252b4                Rte_Queue_CPT_ACT_HYDRAULIC_MODULATOR_FRONTR_COMP_ACT_HM_FR_Client_set_E_op
                0x004252d0                Rte_Queue_CPT_ACT_HYDRAULIC_MODULATOR_REARL_COMP_ACT_HM_RL_Client_set_E_op_wowp
                0x004252dc                Rte_Queue_CPT_ACT_HYDRAULIC_MODULATOR_REARL_COMP_ACT_HM_RL_Client_set_E_op
                0x004252f8                Rte_Queue_CPT_ACT_HYDRAULIC_MODULATOR_REARR_COMP_ACT_HM_RR_Client_set_E_op_wowp
                0x00425304                Rte_Queue_CPT_ACT_HYDRAULIC_MODULATOR_REARR_COMP_ACT_HM_RR_Client_set_E_op
                0x00425320                Rte_Queue_CPT_ACT_MOTOR_COMP_CS_MOTOR_Client_motor_act_op_wowp
                0x0042532c                Rte_Queue_CPT_ACT_MOTOR_COMP_CS_MOTOR_Client_motor_act_op
                0x00425348                Rte_Queue_CPT_AccelPedalSen_RPort_get_AccelPedal_Status_wowp
                0x00425354                Rte_Queue_CPT_AccelPedalSen_RPort_get_AccelPedal_Status
                0x00425370                Rte_Queue_CPT_BrakePedalSen_RPort_get_BrakePedal_Status_wowp
                0x0042537c                Rte_Queue_CPT_BrakePedalSen_RPort_get_BrakePedal_Status
                0x00425398                Rte_Queue_CPT_Cylinder_Sen_Rport_get_cylinder_Status_wowp
                0x004253a4                Rte_Queue_CPT_Cylinder_Sen_Rport_get_cylinder_Status
                0x004253c0                Rte_Queue_CPT_ECU_ABS_ActSEngine_set_engine
                0x004253dc                Rte_Queue_CPT_ECU_ABS_ActSGear_set_phygear
                0x004253f8                Rte_Queue_CPT_ECU_ABS_CS_BATT_Server_batt_sen_op
                0x00425414                Rte_Queue_CPT_ECU_ABS_CS_MOTOR_Server_motor_act_op
                0x00425430                Rte_Queue_CPT_ECU_ABS_PAccelPedal_get_AccelPedal_Status
                0x0042544c                Rte_Queue_CPT_ECU_ABS_PBrakePedal_get_BrakePedal_Status
                0x00425468                Rte_Queue_CPT_ECU_ABS_PCylinder_get_cylinder_Status
                0x00425484                Rte_Queue_CPT_ECU_ABS_PGearMode_get_Gear_Mode
                0x004254a0                Rte_Queue_CPT_ECU_ABS_PHMFrontL_set_E_op
                0x004254bc                Rte_Queue_CPT_ECU_ABS_PHMFrontR_set_E_op
                0x004254d8                Rte_Queue_CPT_ECU_ABS_PHMRearL_set_E_op
                0x004254f4                Rte_Queue_CPT_ECU_ABS_PHMRearR_set_E_op
                0x00425510                Rte_Queue_CPT_ECU_ABS_PTireRPM_get_Tire_RPM
                0x0042552c                Rte_Queue_CPT_Engine_Cycle_ACT_Engine_Cleintport_set_engine_wowp
                0x00425538                Rte_Queue_CPT_Engine_Cycle_ACT_Engine_Cleintport_set_engine
                0x00425554                Rte_Queue_CPT_Engine_Gear_ACT_phyGear_relayPport_set_phygear_wowp
                0x00425560                Rte_Queue_CPT_Engine_Gear_ACT_phyGear_relayPport_set_phygear
                0x0042557c                Rte_Queue_CPT_GearModeSen_RPort_get_Gear_Mode_wowp
                0x00425588                Rte_Queue_CPT_GearModeSen_RPort_get_Gear_Mode
                0x004255a4                Rte_Queue_CPT_SEN_BATT_COMP_CS_BATT_Receive_batt_sen_op_wowp
                0x004255b0                Rte_Queue_CPT_SEN_BATT_COMP_CS_BATT_Receive_batt_sen_op
                0x004255cc                Rte_Queue_CPT_SpeedSen_RPort_get_Tire_RPM_wowp
                0x004255d8                Rte_Queue_CPT_SpeedSen_RPort_get_Tire_RPM
                0x00425600                Rte_Tasks
                0x00425740                Rte_TimeoutAlarms
                0x00425778                Rte_Inst_ACT_HYDRAULIC_MODULATOR_FRONTL_COMP
                0x0042577c                Rte_Self_CPT_ACT_HYDRAULIC_MODULATOR_FRONTL_COMP
                0x00425780                Rte_Inst_ACT_HYDRAULIC_MODULATOR_FRONTR_COMP
                0x00425784                Rte_Self_CPT_ACT_HYDRAULIC_MODULATOR_FRONTR_COMP
                0x00425788                Rte_Inst_ACT_HYDRAULIC_MODULATOR_REARL_COMP
                0x0042578c                Rte_Self_CPT_ACT_HYDRAULIC_MODULATOR_REARL_COMP
                0x00425790                Rte_Inst_ACT_HYDRAULIC_MODULATOR_REARR_COMP
                0x00425794                Rte_Self_CPT_ACT_HYDRAULIC_MODULATOR_REARR_COMP
                0x00425798                Rte_Inst_ACT_MOTOR_COMP
                0x0042579c                Rte_Self_CPT_ACT_MOTOR_COMP
                0x004257a0                Rte_Inst_APP_BRAKE_CONTROLL_COMP
                0x004257a4                Rte_Self_CPT_APP_BRAKE_CONTROLL_COMP
                0x004257a8                Rte_Inst_APP_MOTOR_COMP
                0x004257ac                Rte_Self_CPT_APP_MOTOR_COMP
                0x004257b0                Rte_Inst_AccelControlAPP
                0x004257b4                Rte_Self_CPT_AccelControlAPP
                0x004257b8                Rte_Inst_AccelPedalSen
                0x004257bc                Rte_Self_CPT_AccelPedalSen
                0x004257c0                Rte_Inst_AvgSpeed
                0x004257c4                Rte_Self_CPT_AvgSpeed
                0x004257c8                Rte_Inst_BrakePedalSen
                0x004257cc                Rte_Self_CPT_BrakePedalSen
                0x004257d0                Rte_Inst_Cylinder_Sen
                0x004257d4                Rte_Self_CPT_Cylinder_Sen
                0x004257d8                Rte_Inst_ECU_ABS
                0x004257dc                Rte_Self_CPT_ECU_ABS
                0x004257e0                Rte_Inst_EngineApp
                0x004257e4                Rte_Self_CPT_EngineApp
                0x004257e8                Rte_Inst_Engine_Cycle_ACT
                0x004257ec                Rte_Self_CPT_Engine_Cycle_ACT
                0x004257f0                Rte_Inst_Engine_Gear_ACT
                0x004257f4                Rte_Self_CPT_Engine_Gear_ACT
                0x004257f8                Rte_Inst_GearModeSen
                0x004257fc                Rte_Self_CPT_GearModeSen
                0x00425800                Rte_Inst_SEN_BATT_COMP
                0x00425804                Rte_Self_CPT_SEN_BATT_COMP
                0x00425808                Rte_Inst_SpeedSen
                0x0042580c                Rte_Self_CPT_SpeedSen
 .rdata         0x00425820        0xc Rte_AccelControlAPP.o
 *fill*         0x0042582c        0x4 
 .rdata         0x00425830       0x40 Rte_APP_BRAKE_CONTROLL_COMP.o
 .rdata         0x00425870        0x4 Rte_APP_MOTOR_COMP.o
 .rdata         0x00425874       0x14 Rte_AvgSpeed.o
 .rdata         0x00425888        0xc Rte_Engine_Cycle_ACT.o
 .rdata         0x00425894       0x18 Rte_EngineApp.o
 *fill*         0x004258ac        0x4 
 .rdata         0x004258b0       0x10 Rte_SEN_BATT_COMP.o
 .rdata         0x004258c0        0x8 Rte_SpeedSen.o
 .rdata         0x004258c8      0x164 virtualdevices.o
 *fill*         0x00425a2c       0x14 
 .rdata         0x00425a40      0x560 RTAOS.lib(Os_Cfg.o)
                0x00425a40                Os_const_ecc_tasks
                0x00425ba0                Os_const_fifocontrol
                0x00425bc0                Os_TotalNumberOfCores
                0x00425bc4                Os_const_resources
                0x00425be0                Os_const_tasks
                0x00425c60                Os_const_tasks0
                0x00425f80                Os_const_isrs
 .rdata         0x00425fa0      0x2a0 RTAOS.lib(Os_Cfg_Counters.o)
                0x00425fa0                Os_const_expiry_actions
                0x00426180                Os_const_expiry_intervals
                0x004261c8                Os_const_scheduletables
                0x004261d8                Os_const_alarms
                0x00426200                Os_const_counters
 .rdata         0x00426240       0x60 RTAOS.lib(vrtaAppMain.o)
                0x00426240                Os_CoreIdForInterruptVector
 .rdata         0x004262a0      0x2c8 RTAOS.lib(vrtaCore.o)
 .rdata         0x00426568      0x268 RTAOS.lib(vrtaLoggerDevice.o)
 .rdata         0x004267d0      0xd0c RTAOS.lib(vrtaOSMonitorDevice.o)
 .rdata         0x004274dc     0x1144 RTAOS.lib(vrtaSampleDevices.o)
 .rdata         0x00428620      0x7f4 RTAOS.lib(vrtaSystemClockDevice.o)
 *fill*         0x00428e14        0xc 
 .rdata         0x00428e20      0x1a0 RTAOS.lib(Os_vectors.o)
                0x00428e20                Os_InterruptVectorTable
 .rdata         0x00428fc0       0x24 RTAOS.lib(virtualDevice.o)
 .rdata         0x00428fe4       0x34 C:/Program Files/ETAS/ISOLAR-EVE3.5.0/plugins/com.etas.evetools.toolsfolder_3.5.5/Tools/MinGW/bin/../lib/gcc/i686-w64-mingw32/8.1.0\libstdc++.a(eh_personality.o)
 .rdata         0x00429018       0x3c C:/Program Files/ETAS/ISOLAR-EVE3.5.0/plugins/com.etas.evetools.toolsfolder_3.5.5/Tools/MinGW/bin/../lib/gcc/i686-w64-mingw32/8.1.0\libstdc++.a(pure.o)
 .rdata         0x00429054       0x90 C:/Program Files/ETAS/ISOLAR-EVE3.5.0/plugins/com.etas.evetools.toolsfolder_3.5.5/Tools/MinGW/bin/../lib/gcc/i686-w64-mingw32/8.1.0\libstdc++.a(vterminate.o)
 .rdata         0x004290e4       0x10 C:/Program Files/ETAS/ISOLAR-EVE3.5.0/plugins/com.etas.evetools.toolsfolder_3.5.5/Tools/MinGW/bin/../lib/gcc/i686-w64-mingw32/8.1.0\libstdc++.a(bad_alloc.o)
 .rdata         0x004290f4       0x1c C:/Program Files/ETAS/ISOLAR-EVE3.5.0/plugins/com.etas.evetools.toolsfolder_3.5.5/Tools/MinGW/bin/../lib/gcc/i686-w64-mingw32/8.1.0\libstdc++.a(bad_array_new.o)
 .rdata         0x00429110       0x10 C:/Program Files/ETAS/ISOLAR-EVE3.5.0/plugins/com.etas.evetools.toolsfolder_3.5.5/Tools/MinGW/bin/../lib/gcc/i686-w64-mingw32/8.1.0\libstdc++.a(bad_cast.o)
 .rdata         0x00429120       0x10 C:/Program Files/ETAS/ISOLAR-EVE3.5.0/plugins/com.etas.evetools.toolsfolder_3.5.5/Tools/MinGW/bin/../lib/gcc/i686-w64-mingw32/8.1.0\libstdc++.a(bad_typeid.o)
 *fill*         0x00429130       0x10 
 .rdata         0x00429140     0x1940 C:/Program Files/ETAS/ISOLAR-EVE3.5.0/plugins/com.etas.evetools.toolsfolder_3.5.5/Tools/MinGW/bin/../lib/gcc/i686-w64-mingw32/8.1.0\libstdc++.a(cp-demangle.o)
 .rdata         0x0042aa80       0x4c C:/Program Files/ETAS/ISOLAR-EVE3.5.0/plugins/com.etas.evetools.toolsfolder_3.5.5/Tools/MinGW/bin/../lib/gcc/i686-w64-mingw32/8.1.0\libstdc++.a(eh_alloc.o)
 .rdata         0x0042aacc       0x24 C:/Program Files/ETAS/ISOLAR-EVE3.5.0/plugins/com.etas.evetools.toolsfolder_3.5.5/Tools/MinGW/bin/../lib/gcc/i686-w64-mingw32/8.1.0\libstdc++.a(eh_exception.o)
 .rdata         0x0042aaf0        0x8 C:/Program Files/ETAS/ISOLAR-EVE3.5.0/plugins/com.etas.evetools.toolsfolder_3.5.5/Tools/MinGW/bin/../lib/gcc/i686-w64-mingw32/8.1.0/../../../../i686-w64-mingw32/lib/../lib/libmingw32.a(lib32_libmingw32_a-gs_support.o)
 .rdata         0x0042aaf8       0x1c C:/Program Files/ETAS/ISOLAR-EVE3.5.0/plugins/com.etas.evetools.toolsfolder_3.5.5/Tools/MinGW/bin/../lib/gcc/i686-w64-mingw32/8.1.0/../../../../i686-w64-mingw32/lib/../lib/libmingw32.a(lib32_libmingw32_a-tlssup.o)
                0x0042aaf8                __dyn_tls_init_callback
                0x0042aafc                _tls_used
 .rdata         0x0042ab14      0x134 C:/Program Files/ETAS/ISOLAR-EVE3.5.0/plugins/com.etas.evetools.toolsfolder_3.5.5/Tools/MinGW/bin/../lib/gcc/i686-w64-mingw32/8.1.0/../../../../i686-w64-mingw32/lib/../lib/libmingw32.a(lib32_libmingw32_a-merr.o)
 .rdata         0x0042ac48       0xf8 C:/Program Files/ETAS/ISOLAR-EVE3.5.0/plugins/com.etas.evetools.toolsfolder_3.5.5/Tools/MinGW/bin/../lib/gcc/i686-w64-mingw32/8.1.0/../../../../i686-w64-mingw32/lib/../lib/libmingw32.a(lib32_libmingw32_a-pseudo-reloc.o)
 .rdata         0x0042ad40      0x51c C:/Program Files/ETAS/ISOLAR-EVE3.5.0/plugins/com.etas.evetools.toolsfolder_3.5.5/Tools/MinGW/bin/../lib/gcc/i686-w64-mingw32/8.1.0/libgcc_eh.a(unwind-dw2.o)
 .rdata         0x0042b25c       0x3c C:/Program Files/ETAS/ISOLAR-EVE3.5.0/plugins/com.etas.evetools.toolsfolder_3.5.5/Tools/MinGW/bin/../lib/gcc/i686-w64-mingw32/8.1.0/libgcc_eh.a(unwind-dw2-fde.o)
 *(SORT_BY_NAME(.rdata$*))
 .rdata$_ZSt7nothrow
                0x0042b298        0x4 C:/Program Files/ETAS/ISOLAR-EVE3.5.0/plugins/com.etas.evetools.toolsfolder_3.5.5/Tools/MinGW/bin/../lib/gcc/i686-w64-mingw32/8.1.0\libstdc++.a(new_handler.o)
                0x0042b298                std::nothrow
 .rdata$_ZTI10vrtaDevice
                0x0042b29c        0x8 RTAOS.lib(vrtaCore.o)
                0x0042b29c                typeinfo for vrtaDevice
 .rdata$_ZTI10vrtaSensor
                0x0042b2a4        0xc RTAOS.lib(vrtaSampleDevices.o)
                0x0042b2a4                typeinfo for vrtaSensor
 .rdata$_ZTI11vrtaCompare
                0x0042b2b0        0xc RTAOS.lib(vrtaSampleDevices.o)
                0x0042b2b0                typeinfo for vrtaCompare
 .rdata$_ZTI11vrtaCounter
                0x0042b2bc        0xc RTAOS.lib(vrtaSampleDevices.o)
                0x0042b2bc                typeinfo for vrtaCounter
 .rdata$_ZTI12vrtaActuator
                0x0042b2c8        0xc RTAOS.lib(vrtaSampleDevices.o)
                0x0042b2c8                typeinfo for vrtaActuator
 .rdata$_ZTI13OSIdleHandler
                0x0042b2d4        0xc RTAOS.lib(vrtaOSMonitorDevice.o)
                0x0042b2d4                typeinfo for OSIdleHandler
 .rdata$_ZTI13VirtualDevice
                0x0042b2e0        0x8 RTAOS.lib(vrtaOSMonitorDevice.o)
                0x0042b2e0                typeinfo for VirtualDevice
 .rdata$_ZTI13vrtaBaseClock
                0x0042b2e8       0x20 RTAOS.lib(vrtaSampleDevices.o)
                0x0042b2e8                typeinfo for vrtaBaseClock
 .rdata$_ZTI13vrtaUpCounter
                0x0042b308        0xc RTAOS.lib(vrtaSampleDevices.o)
                0x0042b308                typeinfo for vrtaUpCounter
 .rdata$_ZTI14vrtaComparable
                0x0042b314        0xc RTAOS.lib(vrtaSampleDevices.o)
                0x0042b314                typeinfo for vrtaComparable
 .rdata$_ZTI15vrtaDownCounter
                0x0042b320        0xc RTAOS.lib(vrtaSampleDevices.o)
                0x0042b320                typeinfo for vrtaDownCounter
 .rdata$_ZTI17SystemClockDevice
                0x0042b32c        0xc RTAOS.lib(vrtaSystemClockDevice.o)
                0x0042b32c                typeinfo for SystemClockDevice
 .rdata$_ZTI17vrtaActuatorLight
                0x0042b338        0xc RTAOS.lib(vrtaSampleDevices.o)
                0x0042b338                typeinfo for vrtaActuatorLight
 .rdata$_ZTI17vrtaAdaptiveClock
                0x0042b344        0xc RTAOS.lib(vrtaSampleDevices.o)
                0x0042b344                typeinfo for vrtaAdaptiveClock
 .rdata$_ZTI18vrtaIdleSubscriber
                0x0042b350        0x8 RTAOS.lib(vrtaIdleHandling.o)
                0x0042b350                typeinfo for vrtaIdleSubscriber
 .rdata$_ZTI22SystemClockIdleHandler
                0x0042b358        0xc RTAOS.lib(vrtaSystemClockDevice.o)
                0x0042b358                typeinfo for SystemClockIdleHandler
 .rdata$_ZTI22vrtaSensorToggleSwitch
                0x0042b364        0xc RTAOS.lib(vrtaSampleDevices.o)
                0x0042b364                typeinfo for vrtaSensorToggleSwitch
 .rdata$_ZTI24vrtaSensorMultiwaySwitch
                0x0042b370        0xc RTAOS.lib(vrtaSampleDevices.o)
                0x0042b370                typeinfo for vrtaSensorMultiwaySwitch
 .rdata$_ZTI25vrtaActuatorDimmableLight
                0x0042b37c        0xc RTAOS.lib(vrtaSampleDevices.o)
                0x0042b37c                typeinfo for vrtaActuatorDimmableLight
 .rdata$_ZTI25vrtaSystemClockSubscriber
                0x0042b388        0x8 RTAOS.lib(vrtaSampleDevices.o)
                0x0042b388                typeinfo for vrtaSystemClockSubscriber
 .rdata$_ZTI26vrtaSystemClockIdleHandler
                0x0042b390        0xc RTAOS.lib(vrtaSystemClock.o)
                0x0042b390                typeinfo for vrtaSystemClockIdleHandler
 .rdata$_ZTI27vrtaActuatorMultiColorLight
                0x0042b39c        0xc RTAOS.lib(vrtaSampleDevices.o)
                0x0042b39c                typeinfo for vrtaActuatorMultiColorLight
 .rdata$_ZTI34vrtaCustomTickSourceImplementation
                0x0042b3a8        0xc RTAOS.lib(vrtaSystemClock.o)
                0x0042b3a8                typeinfo for vrtaCustomTickSourceImplementation
 .rdata$_ZTI6Logger
                0x0042b3b4        0xc RTAOS.lib(vrtaLoggerDevice.o)
                0x0042b3b4                typeinfo for Logger
 .rdata$_ZTI6OsCore
                0x0042b3c0        0xc RTAOS.lib(vrtaOSMonitorDevice.o)
                0x0042b3c0                typeinfo for OsCore
 .rdata$_ZTI6vrtaIO
                0x0042b3cc        0xc RTAOS.lib(vrtaSampleDevices.o)
                0x0042b3cc                typeinfo for vrtaIO
 .rdata$_ZTI9OsMonitor
                0x0042b3d8        0xc RTAOS.lib(vrtaOSMonitorDevice.o)
                0x0042b3d8                typeinfo for OsMonitor
 .rdata$_ZTI9vrtaClock
                0x0042b3e4        0xc RTAOS.lib(vrtaSampleDevices.o)
                0x0042b3e4                typeinfo for vrtaClock
 .rdata$_ZTIN10__cxxabiv115__forced_unwindE
                0x0042b3f0        0x8 C:/Program Files/ETAS/ISOLAR-EVE3.5.0/plugins/com.etas.evetools.toolsfolder_3.5.5/Tools/MinGW/bin/../lib/gcc/i686-w64-mingw32/8.1.0\libstdc++.a(eh_personality.o)
                0x0042b3f0                typeinfo for __cxxabiv1::__forced_unwind
 .rdata$_ZTIN10__cxxabiv117__class_type_infoE
                0x0042b3f8        0xc C:/Program Files/ETAS/ISOLAR-EVE3.5.0/plugins/com.etas.evetools.toolsfolder_3.5.5/Tools/MinGW/bin/../lib/gcc/i686-w64-mingw32/8.1.0\libstdc++.a(class_type_info.o)
                0x0042b3f8                typeinfo for __cxxabiv1::__class_type_info
 .rdata$_ZTIN10__cxxabiv119__foreign_exceptionE
                0x0042b404        0x8 C:/Program Files/ETAS/ISOLAR-EVE3.5.0/plugins/com.etas.evetools.toolsfolder_3.5.5/Tools/MinGW/bin/../lib/gcc/i686-w64-mingw32/8.1.0\libstdc++.a(eh_personality.o)
                0x0042b404                typeinfo for __cxxabiv1::__foreign_exception
 .rdata$_ZTIN10__cxxabiv120__si_class_type_infoE
                0x0042b40c        0xc C:/Program Files/ETAS/ISOLAR-EVE3.5.0/plugins/com.etas.evetools.toolsfolder_3.5.5/Tools/MinGW/bin/../lib/gcc/i686-w64-mingw32/8.1.0\libstdc++.a(si_class_type_info.o)
                0x0042b40c                typeinfo for __cxxabiv1::__si_class_type_info
 .rdata$_ZTIN10__cxxabiv121__vmi_class_type_infoE
                0x0042b418        0xc C:/Program Files/ETAS/ISOLAR-EVE3.5.0/plugins/com.etas.evetools.toolsfolder_3.5.5/Tools/MinGW/bin/../lib/gcc/i686-w64-mingw32/8.1.0\libstdc++.a(vmi_class_type_info.o)
                0x0042b418                typeinfo for __cxxabiv1::__vmi_class_type_info
 .rdata$_ZTIN13VirtualDevice10ActionListE
                0x0042b424        0xc RTAOS.lib(virtualDevice.o)
                0x0042b424                typeinfo for VirtualDevice::ActionList
 .rdata$_ZTIN13VirtualDevice13StringBuilderE
                0x0042b430        0x8 RTAOS.lib(virtualDevice.o)
                0x0042b430                typeinfo for VirtualDevice::StringBuilder
 .rdata$_ZTIN13VirtualDevice7OptListE
                0x0042b438        0xc RTAOS.lib(virtualDevice.o)
                0x0042b438                typeinfo for VirtualDevice::OptList
 .rdata$_ZTIN13VirtualDevice9EventListE
                0x0042b444        0xc RTAOS.lib(virtualDevice.o)
                0x0042b444                typeinfo for VirtualDevice::EventList
 .rdata$_ZTIN9__gnu_cxx24__concurrence_lock_errorE
                0x0042b450        0xc C:/Program Files/ETAS/ISOLAR-EVE3.5.0/plugins/com.etas.evetools.toolsfolder_3.5.5/Tools/MinGW/bin/../lib/gcc/i686-w64-mingw32/8.1.0\libstdc++.a(eh_alloc.o)
                0x0042b450                typeinfo for __gnu_cxx::__concurrence_lock_error
 .rdata$_ZTIN9__gnu_cxx26__concurrence_unlock_errorE
                0x0042b45c        0xc C:/Program Files/ETAS/ISOLAR-EVE3.5.0/plugins/com.etas.evetools.toolsfolder_3.5.5/Tools/MinGW/bin/../lib/gcc/i686-w64-mingw32/8.1.0\libstdc++.a(eh_alloc.o)
                0x0042b45c                typeinfo for __gnu_cxx::__concurrence_unlock_error
 .rdata$_ZTISt10bad_typeid
                0x0042b468        0xc C:/Program Files/ETAS/ISOLAR-EVE3.5.0/plugins/com.etas.evetools.toolsfolder_3.5.5/Tools/MinGW/bin/../lib/gcc/i686-w64-mingw32/8.1.0\libstdc++.a(eh_aux_runtime.o)
                0x0042b468                typeinfo for std::bad_typeid
 .rdata$_ZTISt13bad_exception
                0x0042b474        0xc C:/Program Files/ETAS/ISOLAR-EVE3.5.0/plugins/com.etas.evetools.toolsfolder_3.5.5/Tools/MinGW/bin/../lib/gcc/i686-w64-mingw32/8.1.0\libstdc++.a(eh_personality.o)
                0x0042b474                typeinfo for std::bad_exception
 .rdata$_ZTISt20bad_array_new_length
                0x0042b480        0xc C:/Program Files/ETAS/ISOLAR-EVE3.5.0/plugins/com.etas.evetools.toolsfolder_3.5.5/Tools/MinGW/bin/../lib/gcc/i686-w64-mingw32/8.1.0\libstdc++.a(eh_aux_runtime.o)
                0x0042b480                typeinfo for std::bad_array_new_length
 .rdata$_ZTISt8bad_cast
                0x0042b48c        0xc C:/Program Files/ETAS/ISOLAR-EVE3.5.0/plugins/com.etas.evetools.toolsfolder_3.5.5/Tools/MinGW/bin/../lib/gcc/i686-w64-mingw32/8.1.0\libstdc++.a(eh_aux_runtime.o)
                0x0042b48c                typeinfo for std::bad_cast
 .rdata$_ZTISt9bad_alloc
                0x0042b498        0xc C:/Program Files/ETAS/ISOLAR-EVE3.5.0/plugins/com.etas.evetools.toolsfolder_3.5.5/Tools/MinGW/bin/../lib/gcc/i686-w64-mingw32/8.1.0\libstdc++.a(eh_aux_runtime.o)
                0x0042b498                typeinfo for std::bad_alloc
 .rdata$_ZTISt9exception
                0x0042b4a4        0x8 C:/Program Files/ETAS/ISOLAR-EVE3.5.0/plugins/com.etas.evetools.toolsfolder_3.5.5/Tools/MinGW/bin/../lib/gcc/i686-w64-mingw32/8.1.0\libstdc++.a(eh_aux_runtime.o)
                0x0042b4a4                typeinfo for std::exception
 .rdata$_ZTISt9type_info
                0x0042b4ac        0x8 C:/Program Files/ETAS/ISOLAR-EVE3.5.0/plugins/com.etas.evetools.toolsfolder_3.5.5/Tools/MinGW/bin/../lib/gcc/i686-w64-mingw32/8.1.0\libstdc++.a(class_type_info.o)
                0x0042b4ac                typeinfo for std::type_info
 .rdata$_ZTS10vrtaDevice
                0x0042b4b4       0x10 RTAOS.lib(vrtaCore.o)
                0x0042b4b4                typeinfo name for vrtaDevice
 .rdata$_ZTS10vrtaSensor
                0x0042b4c4       0x10 RTAOS.lib(vrtaSampleDevices.o)
                0x0042b4c4                typeinfo name for vrtaSensor
 .rdata$_ZTS11vrtaCompare
                0x0042b4d4       0x10 RTAOS.lib(vrtaSampleDevices.o)
                0x0042b4d4                typeinfo name for vrtaCompare
 .rdata$_ZTS11vrtaCounter
                0x0042b4e4       0x10 RTAOS.lib(vrtaSampleDevices.o)
                0x0042b4e4                typeinfo name for vrtaCounter
 .rdata$_ZTS12vrtaActuator
                0x0042b4f4       0x10 RTAOS.lib(vrtaSampleDevices.o)
                0x0042b4f4                typeinfo name for vrtaActuator
 .rdata$_ZTS13OSIdleHandler
                0x0042b504       0x10 RTAOS.lib(vrtaOSMonitorDevice.o)
                0x0042b504                typeinfo name for OSIdleHandler
 .rdata$_ZTS13VirtualDevice
                0x0042b514       0x10 RTAOS.lib(vrtaOSMonitorDevice.o)
                0x0042b514                typeinfo name for VirtualDevice
 .rdata$_ZTS13vrtaBaseClock
                0x0042b524       0x10 RTAOS.lib(vrtaSampleDevices.o)
                0x0042b524                typeinfo name for vrtaBaseClock
 .rdata$_ZTS13vrtaUpCounter
                0x0042b534       0x10 RTAOS.lib(vrtaSampleDevices.o)
                0x0042b534                typeinfo name for vrtaUpCounter
 .rdata$_ZTS14vrtaComparable
                0x0042b544       0x14 RTAOS.lib(vrtaSampleDevices.o)
                0x0042b544                typeinfo name for vrtaComparable
 .rdata$_ZTS15vrtaDownCounter
                0x0042b558       0x14 RTAOS.lib(vrtaSampleDevices.o)
                0x0042b558                typeinfo name for vrtaDownCounter
 .rdata$_ZTS17SystemClockDevice
                0x0042b56c       0x14 RTAOS.lib(vrtaSystemClockDevice.o)
                0x0042b56c                typeinfo name for SystemClockDevice
 .rdata$_ZTS17vrtaActuatorLight
                0x0042b580       0x14 RTAOS.lib(vrtaSampleDevices.o)
                0x0042b580                typeinfo name for vrtaActuatorLight
 .rdata$_ZTS17vrtaAdaptiveClock
                0x0042b594       0x14 RTAOS.lib(vrtaSampleDevices.o)
                0x0042b594                typeinfo name for vrtaAdaptiveClock
 .rdata$_ZTS18vrtaIdleSubscriber
                0x0042b5a8       0x18 RTAOS.lib(vrtaIdleHandling.o)
                0x0042b5a8                typeinfo name for vrtaIdleSubscriber
 .rdata$_ZTS22SystemClockIdleHandler
                0x0042b5c0       0x1c RTAOS.lib(vrtaSystemClockDevice.o)
                0x0042b5c0                typeinfo name for SystemClockIdleHandler
 .rdata$_ZTS22vrtaSensorToggleSwitch
                0x0042b5dc       0x1c RTAOS.lib(vrtaSampleDevices.o)
                0x0042b5dc                typeinfo name for vrtaSensorToggleSwitch
 .rdata$_ZTS24vrtaSensorMultiwaySwitch
                0x0042b5f8       0x1c RTAOS.lib(vrtaSampleDevices.o)
                0x0042b5f8                typeinfo name for vrtaSensorMultiwaySwitch
 .rdata$_ZTS25vrtaActuatorDimmableLight
                0x0042b614       0x1c RTAOS.lib(vrtaSampleDevices.o)
                0x0042b614                typeinfo name for vrtaActuatorDimmableLight
 .rdata$_ZTS25vrtaSystemClockSubscriber
                0x0042b630       0x1c RTAOS.lib(vrtaSampleDevices.o)
                0x0042b630                typeinfo name for vrtaSystemClockSubscriber
 .rdata$_ZTS26vrtaSystemClockIdleHandler
                0x0042b64c       0x20 RTAOS.lib(vrtaSystemClock.o)
                0x0042b64c                typeinfo name for vrtaSystemClockIdleHandler
 .rdata$_ZTS27vrtaActuatorMultiColorLight
                0x0042b66c       0x20 RTAOS.lib(vrtaSampleDevices.o)
                0x0042b66c                typeinfo name for vrtaActuatorMultiColorLight
 *fill*         0x0042b68c       0x14 
 .rdata$_ZTS34vrtaCustomTickSourceImplementation
                0x0042b6a0       0x40 RTAOS.lib(vrtaSystemClock.o)
                0x0042b6a0                typeinfo name for vrtaCustomTickSourceImplementation
 .rdata$_ZTS6Logger
                0x0042b6e0        0x8 RTAOS.lib(vrtaLoggerDevice.o)
                0x0042b6e0                typeinfo name for Logger
 .rdata$_ZTS6OsCore
                0x0042b6e8        0x8 RTAOS.lib(vrtaOSMonitorDevice.o)
                0x0042b6e8                typeinfo name for OsCore
 .rdata$_ZTS6vrtaIO
                0x0042b6f0        0x8 RTAOS.lib(vrtaSampleDevices.o)
                0x0042b6f0                typeinfo name for vrtaIO
 .rdata$_ZTS9OsMonitor
                0x0042b6f8        0xc RTAOS.lib(vrtaOSMonitorDevice.o)
                0x0042b6f8                typeinfo name for OsMonitor
 .rdata$_ZTS9vrtaClock
                0x0042b704        0xc RTAOS.lib(vrtaSampleDevices.o)
                0x0042b704                typeinfo name for vrtaClock
 *fill*         0x0042b710       0x10 
 .rdata$_ZTSN10__cxxabiv115__forced_unwindE
                0x0042b720       0x20 C:/Program Files/ETAS/ISOLAR-EVE3.5.0/plugins/com.etas.evetools.toolsfolder_3.5.5/Tools/MinGW/bin/../lib/gcc/i686-w64-mingw32/8.1.0\libstdc++.a(eh_personality.o)
                0x0042b720                typeinfo name for __cxxabiv1::__forced_unwind
 .rdata$_ZTSN10__cxxabiv117__class_type_infoE
                0x0042b740       0x40 C:/Program Files/ETAS/ISOLAR-EVE3.5.0/plugins/com.etas.evetools.toolsfolder_3.5.5/Tools/MinGW/bin/../lib/gcc/i686-w64-mingw32/8.1.0\libstdc++.a(class_type_info.o)
                0x0042b740                typeinfo name for __cxxabiv1::__class_type_info
 .rdata$_ZTSN10__cxxabiv119__foreign_exceptionE
                0x0042b780       0x40 C:/Program Files/ETAS/ISOLAR-EVE3.5.0/plugins/com.etas.evetools.toolsfolder_3.5.5/Tools/MinGW/bin/../lib/gcc/i686-w64-mingw32/8.1.0\libstdc++.a(eh_personality.o)
                0x0042b780                typeinfo name for __cxxabiv1::__foreign_exception
 .rdata$_ZTSN10__cxxabiv120__si_class_type_infoE
                0x0042b7c0       0x40 C:/Program Files/ETAS/ISOLAR-EVE3.5.0/plugins/com.etas.evetools.toolsfolder_3.5.5/Tools/MinGW/bin/../lib/gcc/i686-w64-mingw32/8.1.0\libstdc++.a(si_class_type_info.o)
                0x0042b7c0                typeinfo name for __cxxabiv1::__si_class_type_info
 .rdata$_ZTSN10__cxxabiv121__vmi_class_type_infoE
                0x0042b800       0x40 C:/Program Files/ETAS/ISOLAR-EVE3.5.0/plugins/com.etas.evetools.toolsfolder_3.5.5/Tools/MinGW/bin/../lib/gcc/i686-w64-mingw32/8.1.0\libstdc++.a(vmi_class_type_info.o)
                0x0042b800                typeinfo name for __cxxabiv1::__vmi_class_type_info
 .rdata$_ZTSN13VirtualDevice10ActionListE
                0x0042b840       0x20 RTAOS.lib(virtualDevice.o)
                0x0042b840                typeinfo name for VirtualDevice::ActionList
 .rdata$_ZTSN13VirtualDevice13StringBuilderE
                0x0042b860       0x40 RTAOS.lib(virtualDevice.o)
                0x0042b860                typeinfo name for VirtualDevice::StringBuilder
 .rdata$_ZTSN13VirtualDevice7OptListE
                0x0042b8a0       0x1c RTAOS.lib(virtualDevice.o)
                0x0042b8a0                typeinfo name for VirtualDevice::OptList
 .rdata$_ZTSN13VirtualDevice9EventListE
                0x0042b8bc       0x1c RTAOS.lib(virtualDevice.o)
                0x0042b8bc                typeinfo name for VirtualDevice::EventList
 *fill*         0x0042b8d8        0x8 
 .rdata$_ZTSN9__gnu_cxx24__concurrence_lock_errorE
                0x0042b8e0       0x40 C:/Program Files/ETAS/ISOLAR-EVE3.5.0/plugins/com.etas.evetools.toolsfolder_3.5.5/Tools/MinGW/bin/../lib/gcc/i686-w64-mingw32/8.1.0\libstdc++.a(eh_alloc.o)
                0x0042b8e0                typeinfo name for __gnu_cxx::__concurrence_lock_error
 .rdata$_ZTSN9__gnu_cxx26__concurrence_unlock_errorE
                0x0042b920       0x40 C:/Program Files/ETAS/ISOLAR-EVE3.5.0/plugins/com.etas.evetools.toolsfolder_3.5.5/Tools/MinGW/bin/../lib/gcc/i686-w64-mingw32/8.1.0\libstdc++.a(eh_alloc.o)
                0x0042b920                typeinfo name for __gnu_cxx::__concurrence_unlock_error
 .rdata$_ZTSSt10bad_typeid
                0x0042b960       0x10 C:/Program Files/ETAS/ISOLAR-EVE3.5.0/plugins/com.etas.evetools.toolsfolder_3.5.5/Tools/MinGW/bin/../lib/gcc/i686-w64-mingw32/8.1.0\libstdc++.a(eh_aux_runtime.o)
                0x0042b960                typeinfo name for std::bad_typeid
 .rdata$_ZTSSt13bad_exception
                0x0042b970       0x14 C:/Program Files/ETAS/ISOLAR-EVE3.5.0/plugins/com.etas.evetools.toolsfolder_3.5.5/Tools/MinGW/bin/../lib/gcc/i686-w64-mingw32/8.1.0\libstdc++.a(eh_personality.o)
                0x0042b970                typeinfo name for std::bad_exception
 .rdata$_ZTSSt20bad_array_new_length
                0x0042b984       0x1c C:/Program Files/ETAS/ISOLAR-EVE3.5.0/plugins/com.etas.evetools.toolsfolder_3.5.5/Tools/MinGW/bin/../lib/gcc/i686-w64-mingw32/8.1.0\libstdc++.a(eh_aux_runtime.o)
                0x0042b984                typeinfo name for std::bad_array_new_length
 .rdata$_ZTSSt8bad_cast
                0x0042b9a0        0xc C:/Program Files/ETAS/ISOLAR-EVE3.5.0/plugins/com.etas.evetools.toolsfolder_3.5.5/Tools/MinGW/bin/../lib/gcc/i686-w64-mingw32/8.1.0\libstdc++.a(eh_aux_runtime.o)
                0x0042b9a0                typeinfo name for std::bad_cast
 .rdata$_ZTSSt9bad_alloc
                0x0042b9ac       0x10 C:/Program Files/ETAS/ISOLAR-EVE3.5.0/plugins/com.etas.evetools.toolsfolder_3.5.5/Tools/MinGW/bin/../lib/gcc/i686-w64-mingw32/8.1.0\libstdc++.a(eh_aux_runtime.o)
                0x0042b9ac                typeinfo name for std::bad_alloc
 .rdata$_ZTSSt9exception
                0x0042b9bc       0x10 C:/Program Files/ETAS/ISOLAR-EVE3.5.0/plugins/com.etas.evetools.toolsfolder_3.5.5/Tools/MinGW/bin/../lib/gcc/i686-w64-mingw32/8.1.0\libstdc++.a(eh_aux_runtime.o)
                0x0042b9bc                typeinfo name for std::exception
 .rdata$_ZTSSt9type_info
                0x0042b9cc       0x10 C:/Program Files/ETAS/ISOLAR-EVE3.5.0/plugins/com.etas.evetools.toolsfolder_3.5.5/Tools/MinGW/bin/../lib/gcc/i686-w64-mingw32/8.1.0\libstdc++.a(class_type_info.o)
                0x0042b9cc                typeinfo name for std::type_info
 .rdata$_ZTV10vrtaDevice
                0x0042b9dc       0x2c RTAOS.lib(vrtaCore.o)
                0x0042b9dc                vtable for vrtaDevice
 .rdata$_ZTV10vrtaSensor
                0x0042ba08       0x34 RTAOS.lib(vrtaSampleDevices.o)
                0x0042ba08                vtable for vrtaSensor
 .rdata$_ZTV11vrtaCompare
                0x0042ba3c       0x2c RTAOS.lib(vrtaSampleDevices.o)
                0x0042ba3c                vtable for vrtaCompare
 .rdata$_ZTV11vrtaCounter
                0x0042ba68       0x38 RTAOS.lib(vrtaSampleDevices.o)
                0x0042ba68                vtable for vrtaCounter
 .rdata$_ZTV12vrtaActuator
                0x0042baa0       0x34 RTAOS.lib(vrtaSampleDevices.o)
                0x0042baa0                vtable for vrtaActuator
 .rdata$_ZTV13OSIdleHandler
                0x0042bad4        0xc RTAOS.lib(vrtaOSMonitorDevice.o)
                0x0042bad4                vtable for OSIdleHandler
 .rdata$_ZTV13VirtualDevice
                0x0042bae0       0x34 RTAOS.lib(virtualDevice.o)
                0x0042bae0                vtable for VirtualDevice
 .rdata$_ZTV13vrtaBaseClock
                0x0042bb14       0x5c RTAOS.lib(vrtaSampleDevices.o)
                0x0042bb14                vtable for vrtaBaseClock
 .rdata$_ZTV13vrtaUpCounter
                0x0042bb70       0x38 RTAOS.lib(vrtaSampleDevices.o)
                0x0042bb70                vtable for vrtaUpCounter
 .rdata$_ZTV14vrtaComparable
                0x0042bba8       0x34 RTAOS.lib(vrtaSampleDevices.o)
                0x0042bba8                vtable for vrtaComparable
 .rdata$_ZTV15vrtaDownCounter
                0x0042bbdc       0x38 RTAOS.lib(vrtaSampleDevices.o)
                0x0042bbdc                vtable for vrtaDownCounter
 .rdata$_ZTV17SystemClockDevice
                0x0042bc14       0x34 RTAOS.lib(vrtaSystemClockDevice.o)
                0x0042bc14                vtable for SystemClockDevice
 .rdata$_ZTV17vrtaActuatorLight
                0x0042bc48       0x34 RTAOS.lib(vrtaSampleDevices.o)
                0x0042bc48                vtable for vrtaActuatorLight
 .rdata$_ZTV17vrtaAdaptiveClock
                0x0042bc7c       0x5c RTAOS.lib(vrtaSampleDevices.o)
                0x0042bc7c                vtable for vrtaAdaptiveClock
 .rdata$_ZTV18vrtaIdleSubscriber
                0x0042bcd8        0xc RTAOS.lib(vrtaIdleHandling.o)
                0x0042bcd8                vtable for vrtaIdleSubscriber
 .rdata$_ZTV22SystemClockIdleHandler
                0x0042bce4        0xc RTAOS.lib(vrtaSystemClockDevice.o)
                0x0042bce4                vtable for SystemClockIdleHandler
 .rdata$_ZTV22vrtaSensorToggleSwitch
                0x0042bcf0       0x34 RTAOS.lib(vrtaSampleDevices.o)
                0x0042bcf0                vtable for vrtaSensorToggleSwitch
 .rdata$_ZTV24vrtaSensorMultiwaySwitch
                0x0042bd24       0x34 RTAOS.lib(vrtaSampleDevices.o)
                0x0042bd24                vtable for vrtaSensorMultiwaySwitch
 .rdata$_ZTV25vrtaActuatorDimmableLight
                0x0042bd58       0x34 RTAOS.lib(vrtaSampleDevices.o)
                0x0042bd58                vtable for vrtaActuatorDimmableLight
 .rdata$_ZTV25vrtaSystemClockSubscriber
                0x0042bd8c       0x14 RTAOS.lib(vrtaSystemClock.o)
                0x0042bd8c                vtable for vrtaSystemClockSubscriber
 .rdata$_ZTV26vrtaSystemClockIdleHandler
                0x0042bda0        0xc RTAOS.lib(vrtaSystemClock.o)
                0x0042bda0                vtable for vrtaSystemClockIdleHandler
 .rdata$_ZTV27vrtaActuatorMultiColorLight
                0x0042bdac       0x34 RTAOS.lib(vrtaSampleDevices.o)
                0x0042bdac                vtable for vrtaActuatorMultiColorLight
 .rdata$_ZTV34vrtaCustomTickSourceImplementation
                0x0042bde0       0x14 RTAOS.lib(vrtaSystemClock.o)
                0x0042bde0                vtable for vrtaCustomTickSourceImplementation
 .rdata$_ZTV6Logger
                0x0042bdf4       0x2c RTAOS.lib(vrtaLoggerDevice.o)
                0x0042bdf4                vtable for Logger
 .rdata$_ZTV6OsCore
                0x0042be20       0x34 RTAOS.lib(vrtaOSMonitorDevice.o)
                0x0042be20                vtable for OsCore
 .rdata$_ZTV6vrtaIO
                0x0042be54       0x2c RTAOS.lib(vrtaSampleDevices.o)
                0x0042be54                vtable for vrtaIO
 .rdata$_ZTV9OsMonitor
                0x0042be80       0x34 RTAOS.lib(vrtaOSMonitorDevice.o)
                0x0042be80                vtable for OsMonitor
 .rdata$_ZTV9vrtaClock
                0x0042beb4       0x5c RTAOS.lib(vrtaSampleDevices.o)
                0x0042beb4                vtable for vrtaClock
 .rdata$_ZTVN10__cxxabiv115__forced_unwindE
                0x0042bf10       0x14 C:/Program Files/ETAS/ISOLAR-EVE3.5.0/plugins/com.etas.evetools.toolsfolder_3.5.5/Tools/MinGW/bin/../lib/gcc/i686-w64-mingw32/8.1.0\libstdc++.a(eh_exception.o)
                0x0042bf10                vtable for __cxxabiv1::__forced_unwind
 .rdata$_ZTVN10__cxxabiv117__class_type_infoE
                0x0042bf24       0x2c C:/Program Files/ETAS/ISOLAR-EVE3.5.0/plugins/com.etas.evetools.toolsfolder_3.5.5/Tools/MinGW/bin/../lib/gcc/i686-w64-mingw32/8.1.0\libstdc++.a(class_type_info.o)
                0x0042bf24                vtable for __cxxabiv1::__class_type_info
 .rdata$_ZTVN10__cxxabiv119__foreign_exceptionE
                0x0042bf50       0x14 C:/Program Files/ETAS/ISOLAR-EVE3.5.0/plugins/com.etas.evetools.toolsfolder_3.5.5/Tools/MinGW/bin/../lib/gcc/i686-w64-mingw32/8.1.0\libstdc++.a(eh_exception.o)
                0x0042bf50                vtable for __cxxabiv1::__foreign_exception
 .rdata$_ZTVN10__cxxabiv120__si_class_type_infoE
                0x0042bf64       0x2c C:/Program Files/ETAS/ISOLAR-EVE3.5.0/plugins/com.etas.evetools.toolsfolder_3.5.5/Tools/MinGW/bin/../lib/gcc/i686-w64-mingw32/8.1.0\libstdc++.a(si_class_type_info.o)
                0x0042bf64                vtable for __cxxabiv1::__si_class_type_info
 .rdata$_ZTVN10__cxxabiv121__vmi_class_type_infoE
                0x0042bf90       0x2c C:/Program Files/ETAS/ISOLAR-EVE3.5.0/plugins/com.etas.evetools.toolsfolder_3.5.5/Tools/MinGW/bin/../lib/gcc/i686-w64-mingw32/8.1.0\libstdc++.a(vmi_class_type_info.o)
                0x0042bf90                vtable for __cxxabiv1::__vmi_class_type_info
 .rdata$_ZTVN13VirtualDevice10ActionListE
                0x0042bfbc       0x14 RTAOS.lib(virtualDevice.o)
                0x0042bfbc                vtable for VirtualDevice::ActionList
 .rdata$_ZTVN13VirtualDevice13StringBuilderE
                0x0042bfd0       0x14 RTAOS.lib(virtualDevice.o)
                0x0042bfd0                vtable for VirtualDevice::StringBuilder
 .rdata$_ZTVN13VirtualDevice7OptListE
                0x0042bfe4       0x14 RTAOS.lib(virtualDevice.o)
                0x0042bfe4                vtable for VirtualDevice::OptList
 .rdata$_ZTVN13VirtualDevice9EventListE
                0x0042bff8       0x14 RTAOS.lib(virtualDevice.o)
                0x0042bff8                vtable for VirtualDevice::EventList
 .rdata$_ZTVN9__gnu_cxx24__concurrence_lock_errorE
                0x0042c00c       0x14 C:/Program Files/ETAS/ISOLAR-EVE3.5.0/plugins/com.etas.evetools.toolsfolder_3.5.5/Tools/MinGW/bin/../lib/gcc/i686-w64-mingw32/8.1.0\libstdc++.a(eh_alloc.o)
                0x0042c00c                vtable for __gnu_cxx::__concurrence_lock_error
 .rdata$_ZTVN9__gnu_cxx26__concurrence_unlock_errorE
                0x0042c020       0x14 C:/Program Files/ETAS/ISOLAR-EVE3.5.0/plugins/com.etas.evetools.toolsfolder_3.5.5/Tools/MinGW/bin/../lib/gcc/i686-w64-mingw32/8.1.0\libstdc++.a(eh_alloc.o)
                0x0042c020                vtable for __gnu_cxx::__concurrence_unlock_error
 .rdata$_ZTVSt10bad_typeid
                0x0042c034       0x14 C:/Program Files/ETAS/ISOLAR-EVE3.5.0/plugins/com.etas.evetools.toolsfolder_3.5.5/Tools/MinGW/bin/../lib/gcc/i686-w64-mingw32/8.1.0\libstdc++.a(bad_typeid.o)
                0x0042c034                vtable for std::bad_typeid
 .rdata$_ZTVSt13bad_exception
                0x0042c048       0x14 C:/Program Files/ETAS/ISOLAR-EVE3.5.0/plugins/com.etas.evetools.toolsfolder_3.5.5/Tools/MinGW/bin/../lib/gcc/i686-w64-mingw32/8.1.0\libstdc++.a(eh_exception.o)
                0x0042c048                vtable for std::bad_exception
 .rdata$_ZTVSt20bad_array_new_length
                0x0042c05c       0x14 C:/Program Files/ETAS/ISOLAR-EVE3.5.0/plugins/com.etas.evetools.toolsfolder_3.5.5/Tools/MinGW/bin/../lib/gcc/i686-w64-mingw32/8.1.0\libstdc++.a(bad_array_new.o)
                0x0042c05c                vtable for std::bad_array_new_length
 .rdata$_ZTVSt8bad_cast
                0x0042c070       0x14 C:/Program Files/ETAS/ISOLAR-EVE3.5.0/plugins/com.etas.evetools.toolsfolder_3.5.5/Tools/MinGW/bin/../lib/gcc/i686-w64-mingw32/8.1.0\libstdc++.a(bad_cast.o)
                0x0042c070                vtable for std::bad_cast
 .rdata$_ZTVSt9bad_alloc
                0x0042c084       0x14 C:/Program Files/ETAS/ISOLAR-EVE3.5.0/plugins/com.etas.evetools.toolsfolder_3.5.5/Tools/MinGW/bin/../lib/gcc/i686-w64-mingw32/8.1.0\libstdc++.a(bad_alloc.o)
                0x0042c084                vtable for std::bad_alloc
 .rdata$_ZTVSt9exception
                0x0042c098       0x14 C:/Program Files/ETAS/ISOLAR-EVE3.5.0/plugins/com.etas.evetools.toolsfolder_3.5.5/Tools/MinGW/bin/../lib/gcc/i686-w64-mingw32/8.1.0\libstdc++.a(eh_exception.o)
                0x0042c098                vtable for std::exception
 .rdata$_ZTVSt9type_info
                0x0042c0ac       0x20 C:/Program Files/ETAS/ISOLAR-EVE3.5.0/plugins/com.etas.evetools.toolsfolder_3.5.5/Tools/MinGW/bin/../lib/gcc/i686-w64-mingw32/8.1.0\libstdc++.a(tinfo.o)
                0x0042c0ac                vtable for std::type_info
 .rdata$zzz     0x0042c0cc       0x40 BswTasks.o
 .rdata$zzz     0x0042c10c       0x40 EVE_SystemClock.o
 .rdata$zzz     0x0042c14c       0x40 main.o
 .rdata$zzz     0x0042c18c       0x40 Os_ErrorHook.o
 .rdata$zzz     0x0042c1cc       0x40 Os_Hooks.o
 .rdata$zzz     0x0042c20c       0x40 OsTask_0.o
 .rdata$zzz     0x0042c24c       0x40 OsTask_04.o
 .rdata$zzz     0x0042c28c       0x40 OsTask_1.o
 .rdata$zzz     0x0042c2cc       0x40 OsTask_10.o
 .rdata$zzz     0x0042c30c       0x40 OsTask_11.o
 .rdata$zzz     0x0042c34c       0x40 OsTask_12.o
 .rdata$zzz     0x0042c38c       0x40 OsTask_13.o
 .rdata$zzz     0x0042c3cc       0x40 OsTask_14.o
 .rdata$zzz     0x0042c40c       0x40 OsTask_15.o
 .rdata$zzz     0x0042c44c       0x40 OsTask_16.o
 .rdata$zzz     0x0042c48c       0x40 OsTask_18.o
 .rdata$zzz     0x0042c4cc       0x40 OsTask_19.o
 .rdata$zzz     0x0042c50c       0x40 OsTask_2.o
 .rdata$zzz     0x0042c54c       0x40 OsTask_20.o
 .rdata$zzz     0x0042c58c       0x40 OsTask_21.o
 .rdata$zzz     0x0042c5cc       0x40 OsTask_22.o
 .rdata$zzz     0x0042c60c       0x40 OsTask_23.o
 .rdata$zzz     0x0042c64c       0x40 OsTask_24.o
 .rdata$zzz     0x0042c68c       0x40 OsTask_25.o
 .rdata$zzz     0x0042c6cc       0x40 OsTask_26.o
 .rdata$zzz     0x0042c70c       0x40 OsTask_3.o
 .rdata$zzz     0x0042c74c       0x40 OsTask_5.o
 .rdata$zzz     0x0042c78c       0x40 OsTask_6.o
 .rdata$zzz     0x0042c7cc       0x40 OsTask_7.o
 .rdata$zzz     0x0042c80c       0x40 OsTask_8.o
 .rdata$zzz     0x0042c84c       0x40 Rte.o
 .rdata$zzz     0x0042c88c       0x40 Rte_AccelControlAPP.o
 .rdata$zzz     0x0042c8cc       0x40 Rte_AccelPedalSen.o
 .rdata$zzz     0x0042c90c       0x40 Rte_ACT_HYDRAULIC_MODULATOR_FRONTL_COMP.o
 .rdata$zzz     0x0042c94c       0x40 Rte_ACT_HYDRAULIC_MODULATOR_FRONTR_COMP.o
 .rdata$zzz     0x0042c98c       0x40 Rte_ACT_HYDRAULIC_MODULATOR_REARL_COMP.o
 .rdata$zzz     0x0042c9cc       0x40 Rte_ACT_HYDRAULIC_MODULATOR_REARR_COMP.o
 .rdata$zzz     0x0042ca0c       0x40 Rte_ACT_MOTOR_COMP.o
 .rdata$zzz     0x0042ca4c       0x40 Rte_APP_BRAKE_CONTROLL_COMP.o
 .rdata$zzz     0x0042ca8c       0x40 Rte_APP_MOTOR_COMP.o
 .rdata$zzz     0x0042cacc       0x40 Rte_AvgSpeed.o
 .rdata$zzz     0x0042cb0c       0x40 Rte_BrakePedalSen.o
 .rdata$zzz     0x0042cb4c       0x40 Rte_Cylinder_Sen.o
 .rdata$zzz     0x0042cb8c       0x40 Rte_ECU_ABS.o
 .rdata$zzz     0x0042cbcc       0x40 Rte_Engine_Cycle_ACT.o
 .rdata$zzz     0x0042cc0c       0x40 Rte_Engine_Gear_ACT.o
 .rdata$zzz     0x0042cc4c       0x40 Rte_EngineApp.o
 .rdata$zzz     0x0042cc8c       0x40 Rte_GearModeSen.o
 .rdata$zzz     0x0042cccc       0x40 Rte_Lib.o
 .rdata$zzz     0x0042cd0c       0x40 Rte_SEN_BATT_COMP.o
 .rdata$zzz     0x0042cd4c       0x40 Rte_SpeedSen.o
 .rdata$zzz     0x0042cd8c       0x40 startVecu.o
 .rdata$zzz     0x0042cdcc       0x40 target.o
 .rdata$zzz     0x0042ce0c       0x40 VECU_SystemClock_ISR.o
 .rdata$zzz     0x0042ce4c       0x40 virtualdevices.o
 .rdata$zzz     0x0042ce8c       0x40 Vrta_Cfg.o
 .rdata$zzz     0x0042cecc       0x40 RTAOS.lib(ActivateTask.o)
 .rdata$zzz     0x0042cf0c       0x40 RTAOS.lib(CancelAlarm.o)
 .rdata$zzz     0x0042cf4c       0x40 RTAOS.lib(ClearEvent.o)
 .rdata$zzz     0x0042cf8c       0x40 RTAOS.lib(DispatchTask.o)
 .rdata$zzz     0x0042cfcc       0x40 RTAOS.lib(GetEvent.o)
 .rdata$zzz     0x0042d00c       0x40 RTAOS.lib(GetISRID.o)
 .rdata$zzz     0x0042d04c       0x40 RTAOS.lib(GetResource.o)
 .rdata$zzz     0x0042d08c       0x40 RTAOS.lib(GetTaskID.o)
 .rdata$zzz     0x0042d0cc       0x40 RTAOS.lib(Os_Cfg.o)
 .rdata$zzz     0x0042d10c       0x40 RTAOS.lib(Os_Cfg_Counters.o)
 .rdata$zzz     0x0042d14c       0x40 RTAOS.lib(Os_Cfg_KL.o)
 .rdata$zzz     0x0042d18c       0x40 RTAOS.lib(Os_fsb.o)
 .rdata$zzz     0x0042d1cc       0x40 RTAOS.lib(Os_SetJmp.o)
 .rdata$zzz     0x0042d20c       0x40 RTAOS.lib(Os_Stack.o)
 .rdata$zzz     0x0042d24c       0x40 RTAOS.lib(ReleaseResource.o)
 .rdata$zzz     0x0042d28c       0x40 RTAOS.lib(ResumeOSInterrupts.o)
 .rdata$zzz     0x0042d2cc       0x40 RTAOS.lib(SetEvent.o)
 .rdata$zzz     0x0042d30c       0x40 RTAOS.lib(SetRelAlarm.o)
 .rdata$zzz     0x0042d34c       0x40 RTAOS.lib(StartOS.o)
 .rdata$zzz     0x0042d38c       0x40 RTAOS.lib(StartScheduleTableRel.o)
 .rdata$zzz     0x0042d3cc       0x40 RTAOS.lib(StopScheduleTable.o)
 .rdata$zzz     0x0042d40c       0x40 RTAOS.lib(SuspendOSInterrupts.o)
 .rdata$zzz     0x0042d44c       0x40 RTAOS.lib(TerminateTask.o)
 .rdata$zzz     0x0042d48c       0x40 RTAOS.lib(vrtaAppMain.o)
 .rdata$zzz     0x0042d4cc       0x40 RTAOS.lib(vrtaCore.o)
 .rdata$zzz     0x0042d50c       0x40 RTAOS.lib(vrtaIdleHandling.o)
 .rdata$zzz     0x0042d54c       0x40 RTAOS.lib(vrtaLoggerDevice.o)
 .rdata$zzz     0x0042d58c       0x40 RTAOS.lib(vrtaOSMonitorDevice.o)
 .rdata$zzz     0x0042d5cc       0x40 RTAOS.lib(vrtaSampleDevices.o)
 .rdata$zzz     0x0042d60c       0x40 RTAOS.lib(vrtaSystemClock.o)
 .rdata$zzz     0x0042d64c       0x40 RTAOS.lib(vrtaSystemClockDevice.o)
 .rdata$zzz     0x0042d68c       0x40 RTAOS.lib(WaitEvent.o)
 .rdata$zzz     0x0042d6cc       0x40 RTAOS.lib(DispatchECC.o)
 .rdata$zzz     0x0042d70c       0x40 RTAOS.lib(GetStackValue.o)
 .rdata$zzz     0x0042d74c       0x40 RTAOS.lib(Os_vectors.o)
 .rdata$zzz     0x0042d78c       0x40 RTAOS.lib(Os_wrapper.o)
 .rdata$zzz     0x0042d7cc       0x40 RTAOS.lib(StackOverrunHook.o)
 .rdata$zzz     0x0042d80c       0x40 RTAOS.lib(virtualDevice.o)
 .rdata$zzz     0x0042d84c       0x40 RTAOS.lib(ShutdownOS.o)
 .rdata$zzz     0x0042d88c       0x40 RTAOS.lib(InShutdown.o)
                0x0042d8cc                __rt_psrelocs_start = .
 *(.rdata_runtime_pseudo_reloc)
                0x0042d8cc                __rt_psrelocs_end = .
                0x00000000                __rt_psrelocs_size = (__rt_psrelocs_end - __rt_psrelocs_start)
                0x0042d8cc                ___RUNTIME_PSEUDO_RELOC_LIST_END__ = .
                0x0042d8cc                __RUNTIME_PSEUDO_RELOC_LIST_END__ = .
                0x0042d8cc                ___RUNTIME_PSEUDO_RELOC_LIST__ = (. - __rt_psrelocs_size)
                0x0042d8cc                __RUNTIME_PSEUDO_RELOC_LIST__ = (. - __rt_psrelocs_size)

.eh_frame       0x0042e000     0xb600
 *(.eh_frame*)
 .eh_frame      0x0042e000       0xf8 C:/Program Files/ETAS/ISOLAR-EVE3.5.0/plugins/com.etas.evetools.toolsfolder_3.5.5/Tools/MinGW/bin/../lib/gcc/i686-w64-mingw32/8.1.0/../../../../i686-w64-mingw32/lib/../lib/crt2.o
 .eh_frame      0x0042e0f8       0x68 C:/Program Files/ETAS/ISOLAR-EVE3.5.0/plugins/com.etas.evetools.toolsfolder_3.5.5/Tools/MinGW/bin/../lib/gcc/i686-w64-mingw32/8.1.0/crtbegin.o
 .eh_frame$_ZN14vrtaComparable5ValueEv
                0x0042e160       0x38 EVE_SystemClock.o
 .eh_frame$_ZN13vrtaUpCounterC1EPcR13vrtaBaseClock
                0x0042e198       0x38 EVE_SystemClock.o
 .eh_frame      0x0042e1d0       0xd8 EVE_SystemClock.o
 .eh_frame$_ZN9vrtaClockD1Ev
                0x0042e2a8       0x38 EVE_SystemClock.o
 .eh_frame$_ZThn36_N9vrtaClockD1Ev
                0x0042e2e0       0x2c EVE_SystemClock.o
 .eh_frame      0x0042e30c       0x58 main.o
 .eh_frame      0x0042e364       0x38 Os_ErrorHook.o
 .eh_frame      0x0042e39c       0xb8 Os_Hooks.o
 .eh_frame      0x0042e454       0x38 OsTask_0.o
 .eh_frame      0x0042e48c       0x34 OsTask_04.o
 .eh_frame      0x0042e4c0       0x34 OsTask_1.o
 .eh_frame      0x0042e4f4       0x34 OsTask_10.o
 .eh_frame      0x0042e528       0x34 OsTask_11.o
 .eh_frame      0x0042e55c       0x34 OsTask_12.o
 .eh_frame      0x0042e590       0x38 OsTask_13.o
 .eh_frame      0x0042e5c8       0x34 OsTask_14.o
 .eh_frame      0x0042e5fc       0x34 OsTask_15.o
 .eh_frame      0x0042e630       0x38 OsTask_16.o
 .eh_frame      0x0042e668       0x38 OsTask_18.o
 .eh_frame      0x0042e6a0       0x34 OsTask_19.o
 .eh_frame      0x0042e6d4       0x38 OsTask_2.o
 .eh_frame      0x0042e70c       0x34 OsTask_20.o
 .eh_frame      0x0042e740       0x34 OsTask_21.o
 .eh_frame      0x0042e774       0x38 OsTask_22.o
 .eh_frame      0x0042e7ac       0x34 OsTask_23.o
 .eh_frame      0x0042e7e0       0x38 OsTask_24.o
 .eh_frame      0x0042e818       0x38 OsTask_25.o
 .eh_frame      0x0042e850       0x38 OsTask_26.o
 .eh_frame      0x0042e888       0x34 OsTask_3.o
 .eh_frame      0x0042e8bc       0x38 OsTask_5.o
 .eh_frame      0x0042e8f4       0x34 OsTask_6.o
 .eh_frame      0x0042e928       0x34 OsTask_7.o
 .eh_frame      0x0042e95c       0x38 OsTask_8.o
 .eh_frame      0x0042e994      0x7b8 Rte.o
 .eh_frame      0x0042f14c       0x60 Rte_AccelControlAPP.o
 .eh_frame      0x0042f1ac       0x38 Rte_AccelPedalSen.o
 .eh_frame      0x0042f1e4       0x38 Rte_ACT_HYDRAULIC_MODULATOR_FRONTL_COMP.o
 .eh_frame      0x0042f21c       0x38 Rte_ACT_HYDRAULIC_MODULATOR_FRONTR_COMP.o
 .eh_frame      0x0042f254       0x38 Rte_ACT_HYDRAULIC_MODULATOR_REARL_COMP.o
 .eh_frame      0x0042f28c       0x38 Rte_ACT_HYDRAULIC_MODULATOR_REARR_COMP.o
 .eh_frame      0x0042f2c4       0x38 Rte_ACT_MOTOR_COMP.o
 .eh_frame      0x0042f2fc       0xb8 Rte_APP_BRAKE_CONTROLL_COMP.o
 .eh_frame      0x0042f3b4       0x58 Rte_APP_MOTOR_COMP.o
 .eh_frame      0x0042f40c       0x38 Rte_AvgSpeed.o
 .eh_frame      0x0042f444       0x38 Rte_BrakePedalSen.o
 .eh_frame      0x0042f47c       0x38 Rte_Cylinder_Sen.o
 .eh_frame      0x0042f4b4      0x1b8 Rte_ECU_ABS.o
 .eh_frame      0x0042f66c       0x38 Rte_Engine_Cycle_ACT.o
 .eh_frame      0x0042f6a4       0x78 Rte_Engine_Gear_ACT.o
 .eh_frame      0x0042f71c       0x38 Rte_EngineApp.o
 .eh_frame      0x0042f754       0x38 Rte_GearModeSen.o
 .eh_frame      0x0042f78c      0x174 Rte_Lib.o
 .eh_frame      0x0042f900       0x38 Rte_SEN_BATT_COMP.o
 .eh_frame      0x0042f938       0x38 Rte_SpeedSen.o
 .eh_frame      0x0042f970       0x38 startVecu.o
 .eh_frame      0x0042f9a8       0x98 target.o
 .eh_frame      0x0042fa40       0x38 VECU_SystemClock_ISR.o
 .eh_frame$_ZN14vrtaComparable8SetValueEj
                0x0042fa78       0x38 virtualdevices.o
 .eh_frame      0x0042fab0      0x34c virtualdevices.o
 .eh_frame      0x0042fdfc      0x118 Vrta_Cfg.o
 .eh_frame      0x0042ff14       0x58 RTAOS.lib(ActivateTask.o)
 .eh_frame      0x0042ff6c       0x3c RTAOS.lib(CancelAlarm.o)
 .eh_frame      0x0042ffa8       0x38 RTAOS.lib(ClearEvent.o)
 .eh_frame      0x0042ffe0       0x3c RTAOS.lib(DispatchTask.o)
 .eh_frame      0x0043001c       0x30 RTAOS.lib(GetEvent.o)
 .eh_frame      0x0043004c       0x2c RTAOS.lib(GetISRID.o)
 .eh_frame      0x00430078       0x3c RTAOS.lib(GetResource.o)
 .eh_frame      0x004300b4       0x2c RTAOS.lib(GetTaskID.o)
 .eh_frame      0x004300e0       0x5c RTAOS.lib(Os_Cfg.o)
 .eh_frame      0x0043013c       0xec RTAOS.lib(Os_Cfg_Counters.o)
 .eh_frame      0x00430228       0x48 RTAOS.lib(Os_Cfg_KL.o)
 .eh_frame      0x00430270       0x2c RTAOS.lib(Os_fsb.o)
 .eh_frame      0x0043029c       0x40 RTAOS.lib(Os_Stack.o)
 .eh_frame      0x004302dc       0x34 RTAOS.lib(ReleaseResource.o)
 .eh_frame      0x00430310       0x30 RTAOS.lib(ResumeOSInterrupts.o)
 .eh_frame      0x00430340       0x78 RTAOS.lib(SetEvent.o)
 .eh_frame      0x004303b8       0x54 RTAOS.lib(SetRelAlarm.o)
 .eh_frame      0x0043040c       0x48 RTAOS.lib(StartOS.o)
 .eh_frame      0x00430454       0x4c RTAOS.lib(StartScheduleTableRel.o)
 .eh_frame      0x004304a0       0x38 RTAOS.lib(StopScheduleTable.o)
 .eh_frame      0x004304d8       0x3c RTAOS.lib(SuspendOSInterrupts.o)
 .eh_frame      0x00430514       0x2c RTAOS.lib(TerminateTask.o)
 .eh_frame      0x00430540       0xd8 RTAOS.lib(vrtaAppMain.o)
 .eh_frame$_ZN10vrtaDevice21GetPersistentDataSizeEv
                0x00430618       0x2c RTAOS.lib(vrtaCore.o)
 .eh_frame$_ZN10vrtaDevice17GetPersistentDataEv
                0x00430644       0x2c RTAOS.lib(vrtaCore.o)
 .eh_frame$_ZN10vrtaDevice17SetPersistentDataEPht
                0x00430670       0x2c RTAOS.lib(vrtaCore.o)
 .eh_frame      0x0043069c      0x8e8 RTAOS.lib(vrtaCore.o)
 .eh_frame      0x00430f84       0x74 RTAOS.lib(vrtaIdleHandling.o)
 .eh_frame      0x00430ff8      0x400 RTAOS.lib(vrtaLoggerDevice.o)
 .eh_frame$_ZN13VirtualDevice8StartingEv
                0x004313f8       0x2c RTAOS.lib(vrtaOSMonitorDevice.o)
 .eh_frame$_ZN13VirtualDevice8StoppingEv
                0x00431424       0x2c RTAOS.lib(vrtaOSMonitorDevice.o)
 .eh_frame$_ZN6OsCore7IdleSetERK10vrtaAction
                0x00431450       0x2c RTAOS.lib(vrtaOSMonitorDevice.o)
 .eh_frame$_ZN6OsCore6ParentER9vrtaEvent
                0x0043147c       0x2c RTAOS.lib(vrtaOSMonitorDevice.o)
 .eh_frame$_ZN6OsCore5IdlesER9vrtaEvent
                0x004314a8       0x2c RTAOS.lib(vrtaOSMonitorDevice.o)
 .eh_frame$_ZN6OsCore5AppIDER9vrtaEvent
                0x004314d4       0x2c RTAOS.lib(vrtaOSMonitorDevice.o)
 .eh_frame$_ZN6OsCore9LastErrorER9vrtaEvent
                0x00431500       0x2c RTAOS.lib(vrtaOSMonitorDevice.o)
 .eh_frame$_ZN6OsCore11RunningTaskER9vrtaEvent
                0x0043152c       0x38 RTAOS.lib(vrtaOSMonitorDevice.o)
 .eh_frame$_ZN6OsCore10RunningISRER9vrtaEvent
                0x00431564       0x2c RTAOS.lib(vrtaOSMonitorDevice.o)
 .eh_frame$_ZN9OsMonitor16GetDeviceActionsERN13VirtualDevice10ActionListE
                0x00431590       0x2c RTAOS.lib(vrtaOSMonitorDevice.o)
 .eh_frame$_ZN9OsMonitor12AppModeEventER9vrtaEvent
                0x004315bc       0x2c RTAOS.lib(vrtaOSMonitorDevice.o)
 .eh_frame$_ZN9OsMonitor23ISRVECU_SystemClock_ISRER9vrtaEvent
                0x004315e8       0x2c RTAOS.lib(vrtaOSMonitorDevice.o)
 .eh_frame$_ZN9OsMonitor13TASKOsTask_13ER9vrtaEvent
                0x00431614       0x2c RTAOS.lib(vrtaOSMonitorDevice.o)
 .eh_frame$_ZN9OsMonitor13TASKOsTask_14ER9vrtaEvent
                0x00431640       0x34 RTAOS.lib(vrtaOSMonitorDevice.o)
 .eh_frame$_ZN9OsMonitor13TASKOsTask_15ER9vrtaEvent
                0x00431674       0x34 RTAOS.lib(vrtaOSMonitorDevice.o)
 .eh_frame$_ZN9OsMonitor13TASKOsTask_16ER9vrtaEvent
                0x004316a8       0x2c RTAOS.lib(vrtaOSMonitorDevice.o)
 .eh_frame$_ZN9OsMonitor13TASKOsTask_18ER9vrtaEvent
                0x004316d4       0x2c RTAOS.lib(vrtaOSMonitorDevice.o)
 .eh_frame$_ZN9OsMonitor13TASKOsTask_19ER9vrtaEvent
                0x00431700       0x34 RTAOS.lib(vrtaOSMonitorDevice.o)
 .eh_frame$_ZN9OsMonitor12TASKOsTask_2ER9vrtaEvent
                0x00431734       0x2c RTAOS.lib(vrtaOSMonitorDevice.o)
 .eh_frame$_ZN9OsMonitor13TASKOsTask_20ER9vrtaEvent
                0x00431760       0x34 RTAOS.lib(vrtaOSMonitorDevice.o)
 .eh_frame$_ZN9OsMonitor13TASKOsTask_21ER9vrtaEvent
                0x00431794       0x34 RTAOS.lib(vrtaOSMonitorDevice.o)
 .eh_frame$_ZN9OsMonitor13TASKOsTask_22ER9vrtaEvent
                0x004317c8       0x2c RTAOS.lib(vrtaOSMonitorDevice.o)
 .eh_frame$_ZN9OsMonitor13TASKOsTask_23ER9vrtaEvent
                0x004317f4       0x34 RTAOS.lib(vrtaOSMonitorDevice.o)
 .eh_frame$_ZN9OsMonitor13TASKOsTask_24ER9vrtaEvent
                0x00431828       0x2c RTAOS.lib(vrtaOSMonitorDevice.o)
 .eh_frame$_ZN9OsMonitor13TASKOsTask_25ER9vrtaEvent
                0x00431854       0x2c RTAOS.lib(vrtaOSMonitorDevice.o)
 .eh_frame$_ZN9OsMonitor13TASKOsTask_26ER9vrtaEvent
                0x00431880       0x2c RTAOS.lib(vrtaOSMonitorDevice.o)
 .eh_frame$_ZN9OsMonitor12TASKOsTask_3ER9vrtaEvent
                0x004318ac       0x34 RTAOS.lib(vrtaOSMonitorDevice.o)
 .eh_frame$_ZN9OsMonitor12TASKOsTask_5ER9vrtaEvent
                0x004318e0       0x2c RTAOS.lib(vrtaOSMonitorDevice.o)
 .eh_frame$_ZN9OsMonitor12TASKOsTask_6ER9vrtaEvent
                0x0043190c       0x34 RTAOS.lib(vrtaOSMonitorDevice.o)
 .eh_frame$_ZN9OsMonitor12TASKOsTask_7ER9vrtaEvent
                0x00431940       0x34 RTAOS.lib(vrtaOSMonitorDevice.o)
 .eh_frame$_ZN9OsMonitor12TASKOsTask_8ER9vrtaEvent
                0x00431974       0x2c RTAOS.lib(vrtaOSMonitorDevice.o)
 .eh_frame$_ZN9OsMonitor13TASKOsTask_04ER9vrtaEvent
                0x004319a0       0x34 RTAOS.lib(vrtaOSMonitorDevice.o)
 .eh_frame$_ZN9OsMonitor12TASKOsTask_1ER9vrtaEvent
                0x004319d4       0x34 RTAOS.lib(vrtaOSMonitorDevice.o)
 .eh_frame$_ZN9OsMonitor13TASKOsTask_10ER9vrtaEvent
                0x00431a08       0x34 RTAOS.lib(vrtaOSMonitorDevice.o)
 .eh_frame$_ZN9OsMonitor13TASKOsTask_11ER9vrtaEvent
                0x00431a3c       0x34 RTAOS.lib(vrtaOSMonitorDevice.o)
 .eh_frame$_ZN9OsMonitor13TASKOsTask_12ER9vrtaEvent
                0x00431a70       0x34 RTAOS.lib(vrtaOSMonitorDevice.o)
 .eh_frame$_ZN9OsMonitor12TASKOsTask_0ER9vrtaEvent
                0x00431aa4       0x2c RTAOS.lib(vrtaOSMonitorDevice.o)
 .eh_frame$_ZN9OsMonitor22CounterRte_TickCounterER9vrtaEvent
                0x00431ad0       0x44 RTAOS.lib(vrtaOSMonitorDevice.o)
 .eh_frame$_ZN9OsMonitor22AlarmRte_TimeoutAlarm1ER9vrtaEvent
                0x00431b14       0x3c RTAOS.lib(vrtaOSMonitorDevice.o)
 .eh_frame$_ZN9OsMonitor23AlarmRte_TimeoutAlarm10ER9vrtaEvent
                0x00431b50       0x3c RTAOS.lib(vrtaOSMonitorDevice.o)
 .eh_frame$_ZN9OsMonitor23AlarmRte_TimeoutAlarm11ER9vrtaEvent
                0x00431b8c       0x3c RTAOS.lib(vrtaOSMonitorDevice.o)
 .eh_frame$_ZN9OsMonitor23AlarmRte_TimeoutAlarm12ER9vrtaEvent
                0x00431bc8       0x3c RTAOS.lib(vrtaOSMonitorDevice.o)
 .eh_frame$_ZN9OsMonitor23AlarmRte_TimeoutAlarm13ER9vrtaEvent
                0x00431c04       0x3c RTAOS.lib(vrtaOSMonitorDevice.o)
 .eh_frame$_ZN9OsMonitor23AlarmRte_TimeoutAlarm14ER9vrtaEvent
                0x00431c40       0x3c RTAOS.lib(vrtaOSMonitorDevice.o)
 .eh_frame$_ZN9OsMonitor22AlarmRte_TimeoutAlarm2ER9vrtaEvent
                0x00431c7c       0x3c RTAOS.lib(vrtaOSMonitorDevice.o)
 .eh_frame$_ZN9OsMonitor22AlarmRte_TimeoutAlarm3ER9vrtaEvent
                0x00431cb8       0x3c RTAOS.lib(vrtaOSMonitorDevice.o)
 .eh_frame$_ZN9OsMonitor22AlarmRte_TimeoutAlarm4ER9vrtaEvent
                0x00431cf4       0x3c RTAOS.lib(vrtaOSMonitorDevice.o)
 .eh_frame$_ZN9OsMonitor22AlarmRte_TimeoutAlarm5ER9vrtaEvent
                0x00431d30       0x3c RTAOS.lib(vrtaOSMonitorDevice.o)
 .eh_frame$_ZN9OsMonitor22AlarmRte_TimeoutAlarm6ER9vrtaEvent
                0x00431d6c       0x3c RTAOS.lib(vrtaOSMonitorDevice.o)
 .eh_frame$_ZN9OsMonitor22AlarmRte_TimeoutAlarm7ER9vrtaEvent
                0x00431da8       0x3c RTAOS.lib(vrtaOSMonitorDevice.o)
 .eh_frame$_ZN9OsMonitor22AlarmRte_TimeoutAlarm8ER9vrtaEvent
                0x00431de4       0x3c RTAOS.lib(vrtaOSMonitorDevice.o)
 .eh_frame$_ZN9OsMonitor22AlarmRte_TimeoutAlarm9ER9vrtaEvent
                0x00431e20       0x3c RTAOS.lib(vrtaOSMonitorDevice.o)
 .eh_frame$_ZN9OsMonitor22TableRte_ScheduleTableER9vrtaEvent
                0x00431e5c       0x4c RTAOS.lib(vrtaOSMonitorDevice.o)
 .eh_frame      0x00431ea8       0x74 RTAOS.lib(vrtaOSMonitorDevice.o)
 .eh_frame$_ZN9OsMonitorD1Ev
                0x00431f1c       0x2c RTAOS.lib(vrtaOSMonitorDevice.o)
 .eh_frame$_ZN6OsCoreD1Ev
                0x00431f48       0x2c RTAOS.lib(vrtaOSMonitorDevice.o)
 .eh_frame$_ZN9OsMonitorD0Ev
                0x00431f74       0x38 RTAOS.lib(vrtaOSMonitorDevice.o)
 .eh_frame$_ZN6OsCoreD0Ev
                0x00431fac       0x38 RTAOS.lib(vrtaOSMonitorDevice.o)
 .eh_frame$_ZN9OsMonitor15GetDeviceEventsERN13VirtualDevice9EventListE
                0x00431fe4      0x510 RTAOS.lib(vrtaOSMonitorDevice.o)
 .eh_frame$_ZN6OsCore15GetDeviceEventsERN13VirtualDevice9EventListE
                0x004324f4       0xb0 RTAOS.lib(vrtaOSMonitorDevice.o)
 .eh_frame$_ZN9OsMonitor13GetDeviceInfoERN13VirtualDevice7OptListE
                0x004325a4       0x8c RTAOS.lib(vrtaOSMonitorDevice.o)
 .eh_frame$_ZN6OsCore13GetDeviceInfoERN13VirtualDevice7OptListE
                0x00432630       0x5c RTAOS.lib(vrtaOSMonitorDevice.o)
 .eh_frame$_ZN6OsCore16GetDeviceActionsERN13VirtualDevice10ActionListE
                0x0043268c       0x44 RTAOS.lib(vrtaOSMonitorDevice.o)
 .eh_frame$_ZN9OsMonitor22CounterRte_TOutCounterER9vrtaEvent
                0x004326d0       0x58 RTAOS.lib(vrtaOSMonitorDevice.o)
 .eh_frame$_ZN9OsMonitorC1EPKc
                0x00432728       0x54 RTAOS.lib(vrtaOSMonitorDevice.o)
 .eh_frame$_ZN13vrtaBaseClock8StoppingEv
                0x0043277c       0x2c RTAOS.lib(vrtaSampleDevices.o)
 .eh_frame$_ZN13vrtaBaseClock21GetPersistentDataSizeEv
                0x004327a8       0x2c RTAOS.lib(vrtaSampleDevices.o)
 .eh_frame$_ZN13vrtaBaseClock17GetPersistentDataEv
                0x004327d4       0x2c RTAOS.lib(vrtaSampleDevices.o)
 .eh_frame$_ZN13vrtaBaseClock4StopEv
                0x00432800       0x2c RTAOS.lib(vrtaSampleDevices.o)
 .eh_frame$_ZN14vrtaComparable21GetPersistentDataSizeEv
                0x0043282c       0x2c RTAOS.lib(vrtaSampleDevices.o)
 .eh_frame$_ZN14vrtaComparable17GetPersistentDataEv
                0x00432858       0x2c RTAOS.lib(vrtaSampleDevices.o)
 .eh_frame$_ZN14vrtaComparable6SetValEj
                0x00432884       0x2c RTAOS.lib(vrtaSampleDevices.o)
 .eh_frame$_ZN11vrtaCounter21GetPersistentDataSizeEv
                0x004328b0       0x2c RTAOS.lib(vrtaSampleDevices.o)
 .eh_frame$_ZN11vrtaCompare8StartingEv
                0x004328dc       0x2c RTAOS.lib(vrtaSampleDevices.o)
 .eh_frame$_ZN11vrtaCompare8StoppingEv
                0x00432908       0x2c RTAOS.lib(vrtaSampleDevices.o)
 .eh_frame$_ZN11vrtaCompare21GetPersistentDataSizeEv
                0x00432934       0x2c RTAOS.lib(vrtaSampleDevices.o)
 .eh_frame$_ZN11vrtaCompare17GetPersistentDataEv
                0x00432960       0x2c RTAOS.lib(vrtaSampleDevices.o)
 .eh_frame$_ZN10vrtaSensor8StartingEv
                0x0043298c       0x2c RTAOS.lib(vrtaSampleDevices.o)
 .eh_frame$_ZN10vrtaSensor8StoppingEv
                0x004329b8       0x2c RTAOS.lib(vrtaSampleDevices.o)
 .eh_frame$_ZN10vrtaSensor21GetPersistentDataSizeEv
                0x004329e4       0x2c RTAOS.lib(vrtaSampleDevices.o)
 .eh_frame$_ZN12vrtaActuator8StartingEv
                0x00432a10       0x2c RTAOS.lib(vrtaSampleDevices.o)
 .eh_frame$_ZN12vrtaActuator8StoppingEv
                0x00432a3c       0x2c RTAOS.lib(vrtaSampleDevices.o)
 .eh_frame$_ZN12vrtaActuator21GetPersistentDataSizeEv
                0x00432a68       0x2c RTAOS.lib(vrtaSampleDevices.o)
 .eh_frame      0x00432a94      0xd38 RTAOS.lib(vrtaSampleDevices.o)
 .eh_frame$_ZN17vrtaAdaptiveClockD1Ev
                0x004337cc       0x4c RTAOS.lib(vrtaSampleDevices.o)
 .eh_frame$_ZN9vrtaClockD0Ev
                0x00433818       0x54 RTAOS.lib(vrtaSampleDevices.o)
 .eh_frame$_ZN17vrtaAdaptiveClockD0Ev
                0x0043386c       0x54 RTAOS.lib(vrtaSampleDevices.o)
 .eh_frame$_ZN12vrtaActuator17GetPersistentDataEv
                0x004338c0       0x3c RTAOS.lib(vrtaSampleDevices.o)
 .eh_frame$_ZN11vrtaCounter17GetPersistentDataEv
                0x004338fc       0x3c RTAOS.lib(vrtaSampleDevices.o)
 .eh_frame$_ZN10vrtaSensor17GetPersistentDataEv
                0x00433938       0x3c RTAOS.lib(vrtaSampleDevices.o)
 .eh_frame$_ZThn36_N17vrtaAdaptiveClockD1Ev
                0x00433974       0x4c RTAOS.lib(vrtaSampleDevices.o)
 .eh_frame$_ZThn36_N9vrtaClockD0Ev
                0x004339c0       0x54 RTAOS.lib(vrtaSampleDevices.o)
 .eh_frame$_ZThn36_N17vrtaAdaptiveClockD0Ev
                0x00433a14       0x54 RTAOS.lib(vrtaSampleDevices.o)
 .eh_frame$_ZN34vrtaCustomTickSourceImplementation4TickEv
                0x00433a68       0x38 RTAOS.lib(vrtaSystemClock.o)
 .eh_frame      0x00433aa0      0x6c8 RTAOS.lib(vrtaSystemClock.o)
 .eh_frame$_ZN26vrtaSystemClockIdleHandler4IdleEj
                0x00434168       0x48 RTAOS.lib(vrtaSystemClock.o)
 .eh_frame$_ZN34vrtaCustomTickSourceImplementationD1Ev
                0x004341b0       0x44 RTAOS.lib(vrtaSystemClock.o)
 .eh_frame$_ZN34vrtaCustomTickSourceImplementationD0Ev
                0x004341f4       0x4c RTAOS.lib(vrtaSystemClock.o)
 .eh_frame$_ZN17SystemClockDevice21GetPersistentDataSizeEv
                0x00434240       0x2c RTAOS.lib(vrtaSystemClockDevice.o)
 .eh_frame$_ZN17SystemClockDevice17GetPersistentDataEv
                0x0043426c       0x2c RTAOS.lib(vrtaSystemClockDevice.o)
 .eh_frame$_ZN17SystemClockDevice10TicksEventER9vrtaEvent
                0x00434298       0x2c RTAOS.lib(vrtaSystemClockDevice.o)
 .eh_frame$_ZN17SystemClockDevice19TicksRemainingEventER9vrtaEvent
                0x004342c4       0x38 RTAOS.lib(vrtaSystemClockDevice.o)
 .eh_frame$_ZN17SystemClockDevice11TickEndDataER9vrtaEvent
                0x004342fc       0x54 RTAOS.lib(vrtaSystemClockDevice.o)
 .eh_frame$_ZN17SystemClockDevice12DirectActionERK10vrtaAction
                0x00434350       0x44 RTAOS.lib(vrtaSystemClockDevice.o)
 .eh_frame      0x00434394      0x19c RTAOS.lib(vrtaSystemClockDevice.o)
 .eh_frame$_ZN17SystemClockDevice9ModeEventER9vrtaEvent
                0x00434530       0x3c RTAOS.lib(vrtaSystemClockDevice.o)
 .eh_frame$_ZN17SystemClockDeviceD1Ev
                0x0043456c       0x2c RTAOS.lib(vrtaSystemClockDevice.o)
 .eh_frame$_ZN17SystemClockDeviceD0Ev
                0x00434598       0x38 RTAOS.lib(vrtaSystemClockDevice.o)
 .eh_frame$_ZN17SystemClockDevice15GetDeviceEventsERN13VirtualDevice9EventListE
                0x004345d0       0xfc RTAOS.lib(vrtaSystemClockDevice.o)
 .eh_frame$_ZN17SystemClockDevice10CSLIFEventER9vrtaEvent
                0x004346cc       0x50 RTAOS.lib(vrtaSystemClockDevice.o)
 .eh_frame$_ZN17SystemClockDevice13StrategyEventER9vrtaEvent
                0x0043471c       0x38 RTAOS.lib(vrtaSystemClockDevice.o)
 .eh_frame$_ZN17SystemClockDevice20DirectTickYieldEventER9vrtaEvent
                0x00434754       0x38 RTAOS.lib(vrtaSystemClockDevice.o)
 .eh_frame$_ZN17SystemClockDevice7MSEventER9vrtaEvent
                0x0043478c       0x38 RTAOS.lib(vrtaSystemClockDevice.o)
 .eh_frame$_ZN17SystemClockDevice10ScaleEventER9vrtaEvent
                0x004347c4       0x38 RTAOS.lib(vrtaSystemClockDevice.o)
 .eh_frame$_ZN17SystemClockDevice16GetDeviceActionsERN13VirtualDevice10ActionListE
                0x004347fc      0x104 RTAOS.lib(vrtaSystemClockDevice.o)
 .eh_frame$_ZN17SystemClockDevice13MonitorEventsERK10vrtaAction
                0x00434900       0x4c RTAOS.lib(vrtaSystemClockDevice.o)
 .eh_frame$_ZN17SystemClockDevice17SetPersistentDataEPht
                0x0043494c       0x4c RTAOS.lib(vrtaSystemClockDevice.o)
 .eh_frame$_ZN17SystemClockDevice14IdleTickActionERK10vrtaAction
                0x00434998       0x40 RTAOS.lib(vrtaSystemClockDevice.o)
 .eh_frame$_ZN17SystemClockDevice15DirectTickYieldERK10vrtaAction
                0x004349d8       0x38 RTAOS.lib(vrtaSystemClockDevice.o)
 .eh_frame$_ZN17SystemClockDevice12DirectFreezeERK10vrtaAction
                0x00434a10       0x38 RTAOS.lib(vrtaSystemClockDevice.o)
 .eh_frame$_ZN17SystemClockDevice10AutoActionERK10vrtaAction
                0x00434a48       0x40 RTAOS.lib(vrtaSystemClockDevice.o)
 .eh_frame$_ZN17SystemClockDevice14StrategyActionERK10vrtaAction
                0x00434a88       0x44 RTAOS.lib(vrtaSystemClockDevice.o)
 .eh_frame$_ZN17SystemClockDevice12ResumeActionERK10vrtaAction
                0x00434acc       0x40 RTAOS.lib(vrtaSystemClockDevice.o)
 .eh_frame$_ZN17SystemClockDevice11PauseActionERK10vrtaAction
                0x00434b0c       0x40 RTAOS.lib(vrtaSystemClockDevice.o)
 .eh_frame$_ZN17SystemClockDevice11ScaleActionERK10vrtaAction
                0x00434b4c       0x44 RTAOS.lib(vrtaSystemClockDevice.o)
 .eh_frame$_ZN17SystemClockDevice13GetDeviceInfoERN13VirtualDevice7OptListE
                0x00434b90       0x4c RTAOS.lib(vrtaSystemClockDevice.o)
 .eh_frame$_ZN17SystemClockDevice11DirectEventER9vrtaEvent
                0x00434bdc       0x48 RTAOS.lib(vrtaSystemClockDevice.o)
 .eh_frame$_ZN17SystemClockDevice5CSLIFERK10vrtaAction
                0x00434c24       0x90 RTAOS.lib(vrtaSystemClockDevice.o)
 .eh_frame$_ZN17SystemClockDevice13UpdateAndTickERK10vrtaAction
                0x00434cb4       0x6c RTAOS.lib(vrtaSystemClockDevice.o)
 .eh_frame      0x00434d20       0x38 RTAOS.lib(WaitEvent.o)
 .eh_frame      0x00434d58       0x58 RTAOS.lib(DispatchECC.o)
 .eh_frame      0x00434db0       0x30 RTAOS.lib(GetStackValue.o)
 .eh_frame      0x00434de0       0x50 RTAOS.lib(Os_wrapper.o)
 .eh_frame      0x00434e30       0x2c RTAOS.lib(StackOverrunHook.o)
 .eh_frame      0x00434e5c      0xb18 RTAOS.lib(virtualDevice.o)
 .eh_frame$_ZN13VirtualDevice7OptListD1Ev
                0x00435974       0x30 RTAOS.lib(virtualDevice.o)
 .eh_frame$_ZN13VirtualDevice9EventListD1Ev
                0x004359a4       0x30 RTAOS.lib(virtualDevice.o)
 .eh_frame$_ZN13VirtualDevice10ActionListD1Ev
                0x004359d4       0x30 RTAOS.lib(virtualDevice.o)
 .eh_frame$_ZN13VirtualDevice7OptListD0Ev
                0x00435a04       0x38 RTAOS.lib(virtualDevice.o)
 .eh_frame$_ZN13VirtualDevice9EventListD0Ev
                0x00435a3c       0x38 RTAOS.lib(virtualDevice.o)
 .eh_frame$_ZN13VirtualDevice10ActionListD0Ev
                0x00435a74       0x38 RTAOS.lib(virtualDevice.o)
 .eh_frame      0x00435aac       0x34 RTAOS.lib(ShutdownOS.o)
 .eh_frame      0x00435ae0       0x2c RTAOS.lib(InShutdown.o)
 .eh_frame      0x00435b0c      0x138 C:/Program Files/ETAS/ISOLAR-EVE3.5.0/plugins/com.etas.evetools.toolsfolder_3.5.5/Tools/MinGW/bin/../lib/gcc/i686-w64-mingw32/8.1.0\libstdc++.a(class_type_info.o)
 .eh_frame      0x00435c44       0x2c C:/Program Files/ETAS/ISOLAR-EVE3.5.0/plugins/com.etas.evetools.toolsfolder_3.5.5/Tools/MinGW/bin/../lib/gcc/i686-w64-mingw32/8.1.0\libstdc++.a(del_ops.o)
 .eh_frame      0x00435c70       0x2c C:/Program Files/ETAS/ISOLAR-EVE3.5.0/plugins/com.etas.evetools.toolsfolder_3.5.5/Tools/MinGW/bin/../lib/gcc/i686-w64-mingw32/8.1.0\libstdc++.a(del_opv.o)
 .eh_frame      0x00435c9c       0x54 C:/Program Files/ETAS/ISOLAR-EVE3.5.0/plugins/com.etas.evetools.toolsfolder_3.5.5/Tools/MinGW/bin/../lib/gcc/i686-w64-mingw32/8.1.0\libstdc++.a(eh_aux_runtime.o)
 .eh_frame      0x00435cf0      0x10c C:/Program Files/ETAS/ISOLAR-EVE3.5.0/plugins/com.etas.evetools.toolsfolder_3.5.5/Tools/MinGW/bin/../lib/gcc/i686-w64-mingw32/8.1.0\libstdc++.a(eh_catch.o)
 .eh_frame      0x00435dfc       0x44 C:/Program Files/ETAS/ISOLAR-EVE3.5.0/plugins/com.etas.evetools.toolsfolder_3.5.5/Tools/MinGW/bin/../lib/gcc/i686-w64-mingw32/8.1.0\libstdc++.a(eh_globals.o)
 .eh_frame      0x00435e40      0x30c C:/Program Files/ETAS/ISOLAR-EVE3.5.0/plugins/com.etas.evetools.toolsfolder_3.5.5/Tools/MinGW/bin/../lib/gcc/i686-w64-mingw32/8.1.0\libstdc++.a(eh_personality.o)
 .eh_frame      0x0043614c      0x124 C:/Program Files/ETAS/ISOLAR-EVE3.5.0/plugins/com.etas.evetools.toolsfolder_3.5.5/Tools/MinGW/bin/../lib/gcc/i686-w64-mingw32/8.1.0\libstdc++.a(eh_terminate.o)
 .eh_frame      0x00436270       0xb0 C:/Program Files/ETAS/ISOLAR-EVE3.5.0/plugins/com.etas.evetools.toolsfolder_3.5.5/Tools/MinGW/bin/../lib/gcc/i686-w64-mingw32/8.1.0\libstdc++.a(eh_throw.o)
 .eh_frame      0x00436320       0x3c C:/Program Files/ETAS/ISOLAR-EVE3.5.0/plugins/com.etas.evetools.toolsfolder_3.5.5/Tools/MinGW/bin/../lib/gcc/i686-w64-mingw32/8.1.0\libstdc++.a(new_op.o)
 .eh_frame      0x0043635c       0x2c C:/Program Files/ETAS/ISOLAR-EVE3.5.0/plugins/com.etas.evetools.toolsfolder_3.5.5/Tools/MinGW/bin/../lib/gcc/i686-w64-mingw32/8.1.0\libstdc++.a(new_opv.o)
 .eh_frame      0x00436388       0x40 C:/Program Files/ETAS/ISOLAR-EVE3.5.0/plugins/com.etas.evetools.toolsfolder_3.5.5/Tools/MinGW/bin/../lib/gcc/i686-w64-mingw32/8.1.0\libstdc++.a(pure.o)
 .eh_frame      0x004363c8      0x15c C:/Program Files/ETAS/ISOLAR-EVE3.5.0/plugins/com.etas.evetools.toolsfolder_3.5.5/Tools/MinGW/bin/../lib/gcc/i686-w64-mingw32/8.1.0\libstdc++.a(si_class_type_info.o)
 .eh_frame      0x00436524       0xa4 C:/Program Files/ETAS/ISOLAR-EVE3.5.0/plugins/com.etas.evetools.toolsfolder_3.5.5/Tools/MinGW/bin/../lib/gcc/i686-w64-mingw32/8.1.0\libstdc++.a(tinfo.o)
 .eh_frame      0x004365c8      0x1f4 C:/Program Files/ETAS/ISOLAR-EVE3.5.0/plugins/com.etas.evetools.toolsfolder_3.5.5/Tools/MinGW/bin/../lib/gcc/i686-w64-mingw32/8.1.0\libstdc++.a(vmi_class_type_info.o)
 .eh_frame      0x004367bc       0x68 C:/Program Files/ETAS/ISOLAR-EVE3.5.0/plugins/com.etas.evetools.toolsfolder_3.5.5/Tools/MinGW/bin/../lib/gcc/i686-w64-mingw32/8.1.0\libstdc++.a(vterminate.o)
 .eh_frame      0x00436824       0x60 C:/Program Files/ETAS/ISOLAR-EVE3.5.0/plugins/com.etas.evetools.toolsfolder_3.5.5/Tools/MinGW/bin/../lib/gcc/i686-w64-mingw32/8.1.0\libstdc++.a(bad_alloc.o)
 .eh_frame      0x00436884       0x60 C:/Program Files/ETAS/ISOLAR-EVE3.5.0/plugins/com.etas.evetools.toolsfolder_3.5.5/Tools/MinGW/bin/../lib/gcc/i686-w64-mingw32/8.1.0\libstdc++.a(bad_array_new.o)
 .eh_frame      0x004368e4       0x60 C:/Program Files/ETAS/ISOLAR-EVE3.5.0/plugins/com.etas.evetools.toolsfolder_3.5.5/Tools/MinGW/bin/../lib/gcc/i686-w64-mingw32/8.1.0\libstdc++.a(bad_cast.o)
 .eh_frame      0x00436944       0x60 C:/Program Files/ETAS/ISOLAR-EVE3.5.0/plugins/com.etas.evetools.toolsfolder_3.5.5/Tools/MinGW/bin/../lib/gcc/i686-w64-mingw32/8.1.0\libstdc++.a(bad_typeid.o)
 .eh_frame      0x004369a4      0xbf8 C:/Program Files/ETAS/ISOLAR-EVE3.5.0/plugins/com.etas.evetools.toolsfolder_3.5.5/Tools/MinGW/bin/../lib/gcc/i686-w64-mingw32/8.1.0\libstdc++.a(cp-demangle.o)
 .eh_frame      0x0043759c       0x2c C:/Program Files/ETAS/ISOLAR-EVE3.5.0/plugins/com.etas.evetools.toolsfolder_3.5.5/Tools/MinGW/bin/../lib/gcc/i686-w64-mingw32/8.1.0\libstdc++.a(del_op.o)
 .eh_frame$_ZNK9__gnu_cxx24__concurrence_lock_error4whatEv
                0x004375c8       0x2c C:/Program Files/ETAS/ISOLAR-EVE3.5.0/plugins/com.etas.evetools.toolsfolder_3.5.5/Tools/MinGW/bin/../lib/gcc/i686-w64-mingw32/8.1.0\libstdc++.a(eh_alloc.o)
 .eh_frame$_ZNK9__gnu_cxx26__concurrence_unlock_error4whatEv
                0x004375f4       0x2c C:/Program Files/ETAS/ISOLAR-EVE3.5.0/plugins/com.etas.evetools.toolsfolder_3.5.5/Tools/MinGW/bin/../lib/gcc/i686-w64-mingw32/8.1.0\libstdc++.a(eh_alloc.o)
 .eh_frame$_ZN9__gnu_cxx24__concurrence_lock_errorD1Ev
                0x00437620       0x2c C:/Program Files/ETAS/ISOLAR-EVE3.5.0/plugins/com.etas.evetools.toolsfolder_3.5.5/Tools/MinGW/bin/../lib/gcc/i686-w64-mingw32/8.1.0\libstdc++.a(eh_alloc.o)
 .eh_frame$_ZN9__gnu_cxx26__concurrence_unlock_errorD1Ev
                0x0043764c       0x2c C:/Program Files/ETAS/ISOLAR-EVE3.5.0/plugins/com.etas.evetools.toolsfolder_3.5.5/Tools/MinGW/bin/../lib/gcc/i686-w64-mingw32/8.1.0\libstdc++.a(eh_alloc.o)
 .eh_frame$_ZN9__gnu_cxx24__concurrence_lock_errorD0Ev
                0x00437678       0x38 C:/Program Files/ETAS/ISOLAR-EVE3.5.0/plugins/com.etas.evetools.toolsfolder_3.5.5/Tools/MinGW/bin/../lib/gcc/i686-w64-mingw32/8.1.0\libstdc++.a(eh_alloc.o)
 .eh_frame$_ZN9__gnu_cxx26__concurrence_unlock_errorD0Ev
                0x004376b0       0x38 C:/Program Files/ETAS/ISOLAR-EVE3.5.0/plugins/com.etas.evetools.toolsfolder_3.5.5/Tools/MinGW/bin/../lib/gcc/i686-w64-mingw32/8.1.0\libstdc++.a(eh_alloc.o)
 .eh_frame      0x004376e8      0x208 C:/Program Files/ETAS/ISOLAR-EVE3.5.0/plugins/com.etas.evetools.toolsfolder_3.5.5/Tools/MinGW/bin/../lib/gcc/i686-w64-mingw32/8.1.0\libstdc++.a(eh_alloc.o)
 .eh_frame$_ZN9__gnu_cxx30__throw_concurrence_lock_errorEv
                0x004378f0       0x2c C:/Program Files/ETAS/ISOLAR-EVE3.5.0/plugins/com.etas.evetools.toolsfolder_3.5.5/Tools/MinGW/bin/../lib/gcc/i686-w64-mingw32/8.1.0\libstdc++.a(eh_alloc.o)
 .eh_frame$_ZN9__gnu_cxx32__throw_concurrence_unlock_errorEv
                0x0043791c       0x2c C:/Program Files/ETAS/ISOLAR-EVE3.5.0/plugins/com.etas.evetools.toolsfolder_3.5.5/Tools/MinGW/bin/../lib/gcc/i686-w64-mingw32/8.1.0\libstdc++.a(eh_alloc.o)
 .eh_frame      0x00437948       0x3c C:/Program Files/ETAS/ISOLAR-EVE3.5.0/plugins/com.etas.evetools.toolsfolder_3.5.5/Tools/MinGW/bin/../lib/gcc/i686-w64-mingw32/8.1.0\libstdc++.a(eh_call.o)
 .eh_frame      0x00437984      0x118 C:/Program Files/ETAS/ISOLAR-EVE3.5.0/plugins/com.etas.evetools.toolsfolder_3.5.5/Tools/MinGW/bin/../lib/gcc/i686-w64-mingw32/8.1.0\libstdc++.a(eh_exception.o)
 .eh_frame      0x00437a9c       0x38 C:/Program Files/ETAS/ISOLAR-EVE3.5.0/plugins/com.etas.evetools.toolsfolder_3.5.5/Tools/MinGW/bin/../lib/gcc/i686-w64-mingw32/8.1.0\libstdc++.a(eh_type.o)
 .eh_frame      0x00437ad4       0x40 C:/Program Files/ETAS/ISOLAR-EVE3.5.0/plugins/com.etas.evetools.toolsfolder_3.5.5/Tools/MinGW/bin/../lib/gcc/i686-w64-mingw32/8.1.0\libstdc++.a(new_handler.o)
 .eh_frame      0x00437b14       0x68 C:/Program Files/ETAS/ISOLAR-EVE3.5.0/plugins/com.etas.evetools.toolsfolder_3.5.5/Tools/MinGW/bin/../lib/gcc/i686-w64-mingw32/8.1.0/../../../../i686-w64-mingw32/lib/../lib/libmingw32.a(lib32_libmingw32_a-gccmain.o)
 .eh_frame      0x00437b7c       0x2c C:/Program Files/ETAS/ISOLAR-EVE3.5.0/plugins/com.etas.evetools.toolsfolder_3.5.5/Tools/MinGW/bin/../lib/gcc/i686-w64-mingw32/8.1.0/../../../../i686-w64-mingw32/lib/../lib/libmingw32.a(lib32_libmingw32_a-charmax.o)
 .eh_frame      0x00437ba8       0x2c C:/Program Files/ETAS/ISOLAR-EVE3.5.0/plugins/com.etas.evetools.toolsfolder_3.5.5/Tools/MinGW/bin/../lib/gcc/i686-w64-mingw32/8.1.0/../../../../i686-w64-mingw32/lib/../lib/libmingw32.a(lib32_libmingw32_a-dllargv.o)
 .eh_frame      0x00437bd4       0x94 C:/Program Files/ETAS/ISOLAR-EVE3.5.0/plugins/com.etas.evetools.toolsfolder_3.5.5/Tools/MinGW/bin/../lib/gcc/i686-w64-mingw32/8.1.0/../../../../i686-w64-mingw32/lib/../lib/libmingw32.a(lib32_libmingw32_a-gs_support.o)
 .eh_frame      0x00437c68       0x94 C:/Program Files/ETAS/ISOLAR-EVE3.5.0/plugins/com.etas.evetools.toolsfolder_3.5.5/Tools/MinGW/bin/../lib/gcc/i686-w64-mingw32/8.1.0/../../../../i686-w64-mingw32/lib/../lib/libmingw32.a(lib32_libmingw32_a-tlssup.o)
 .eh_frame      0x00437cfc       0x70 C:/Program Files/ETAS/ISOLAR-EVE3.5.0/plugins/com.etas.evetools.toolsfolder_3.5.5/Tools/MinGW/bin/../lib/gcc/i686-w64-mingw32/8.1.0/../../../../i686-w64-mingw32/lib/../lib/libmingw32.a(lib32_libmingw32_a-merr.o)
 .eh_frame      0x00437d6c       0x2c C:/Program Files/ETAS/ISOLAR-EVE3.5.0/plugins/com.etas.evetools.toolsfolder_3.5.5/Tools/MinGW/bin/../lib/gcc/i686-w64-mingw32/8.1.0/../../../../i686-w64-mingw32/lib/../lib/libmingw32.a(lib32_libmingw32_a-CRT_fp10.o)
 .eh_frame      0x00437d98       0x40 C:/Program Files/ETAS/ISOLAR-EVE3.5.0/plugins/com.etas.evetools.toolsfolder_3.5.5/Tools/MinGW/bin/../lib/gcc/i686-w64-mingw32/8.1.0/../../../../i686-w64-mingw32/lib/../lib/libmingw32.a(lib32_libmingw32_a-mingw_helpers.o)
 .eh_frame      0x00437dd8       0xb8 C:/Program Files/ETAS/ISOLAR-EVE3.5.0/plugins/com.etas.evetools.toolsfolder_3.5.5/Tools/MinGW/bin/../lib/gcc/i686-w64-mingw32/8.1.0/../../../../i686-w64-mingw32/lib/../lib/libmingw32.a(lib32_libmingw32_a-pseudo-reloc.o)
 .eh_frame      0x00437e90       0x48 C:/Program Files/ETAS/ISOLAR-EVE3.5.0/plugins/com.etas.evetools.toolsfolder_3.5.5/Tools/MinGW/bin/../lib/gcc/i686-w64-mingw32/8.1.0/../../../../i686-w64-mingw32/lib/../lib/libmingw32.a(lib32_libmingw32_a-crt_handler.o)
 .eh_frame      0x00437ed8      0x128 C:/Program Files/ETAS/ISOLAR-EVE3.5.0/plugins/com.etas.evetools.toolsfolder_3.5.5/Tools/MinGW/bin/../lib/gcc/i686-w64-mingw32/8.1.0/../../../../i686-w64-mingw32/lib/../lib/libmingw32.a(lib32_libmingw32_a-tlsthrd.o)
 .eh_frame      0x00438000      0x18c C:/Program Files/ETAS/ISOLAR-EVE3.5.0/plugins/com.etas.evetools.toolsfolder_3.5.5/Tools/MinGW/bin/../lib/gcc/i686-w64-mingw32/8.1.0/../../../../i686-w64-mingw32/lib/../lib/libmingw32.a(lib32_libmingw32_a-pesect.o)
 .eh_frame      0x0043818c       0x58 C:/Program Files/ETAS/ISOLAR-EVE3.5.0/plugins/com.etas.evetools.toolsfolder_3.5.5/Tools/MinGW/bin/../lib/gcc/i686-w64-mingw32/8.1.0/libgcc.a(_divdi3.o)
 .eh_frame      0x004381e4      0x2b0 C:/Program Files/ETAS/ISOLAR-EVE3.5.0/plugins/com.etas.evetools.toolsfolder_3.5.5/Tools/MinGW/bin/../lib/gcc/i686-w64-mingw32/8.1.0/libgcc.a(gthr-win32.o)
 .eh_frame      0x00438494      0x858 C:/Program Files/ETAS/ISOLAR-EVE3.5.0/plugins/com.etas.evetools.toolsfolder_3.5.5/Tools/MinGW/bin/../lib/gcc/i686-w64-mingw32/8.1.0/libgcc_eh.a(unwind-dw2.o)
 .eh_frame      0x00438cec      0x594 C:/Program Files/ETAS/ISOLAR-EVE3.5.0/plugins/com.etas.evetools.toolsfolder_3.5.5/Tools/MinGW/bin/../lib/gcc/i686-w64-mingw32/8.1.0/libgcc_eh.a(unwind-dw2-fde.o)
 .eh_frame      0x00439280      0x1e0 C:/Program Files/ETAS/ISOLAR-EVE3.5.0/plugins/com.etas.evetools.toolsfolder_3.5.5/Tools/MinGW/bin/../lib/gcc/i686-w64-mingw32/8.1.0/libgcc_eh.a(emutls.o)
 .eh_frame      0x00439460       0x2c C:/Program Files/ETAS/ISOLAR-EVE3.5.0/plugins/com.etas.evetools.toolsfolder_3.5.5/Tools/MinGW/bin/../lib/gcc/i686-w64-mingw32/8.1.0/../../../../i686-w64-mingw32/lib/../lib/libmsvcrt.a(lib32_libmsvcrt_os_a-acrt_iob_func.o)
 .eh_frame      0x0043948c       0x40 C:/Program Files/ETAS/ISOLAR-EVE3.5.0/plugins/com.etas.evetools.toolsfolder_3.5.5/Tools/MinGW/bin/../lib/gcc/i686-w64-mingw32/8.1.0/../../../../i686-w64-mingw32/lib/../lib/libmsvcrt.a(lib32_libmsvcrt_os_a-invalid_parameter_handler.o)
 .eh_frame      0x004394cc       0x40 C:/Program Files/ETAS/ISOLAR-EVE3.5.0/plugins/com.etas.evetools.toolsfolder_3.5.5/Tools/MinGW/bin/../lib/gcc/i686-w64-mingw32/8.1.0/../../../../i686-w64-mingw32/lib/../lib/libmingw32.a(lib32_libmingw32_a-tlsmthread.o)
 .eh_frame      0x0043950c       0x30 C:/Program Files/ETAS/ISOLAR-EVE3.5.0/plugins/com.etas.evetools.toolsfolder_3.5.5/Tools/MinGW/bin/../lib/gcc/i686-w64-mingw32/8.1.0/crtend.o

.pdata
 *(.pdata*)

.bss            0x0043a000     0x73b4
                0x0043a000                __bss_start__ = .
 *(.bss)
 .bss           0x0043a000       0x1c C:/Program Files/ETAS/ISOLAR-EVE3.5.0/plugins/com.etas.evetools.toolsfolder_3.5.5/Tools/MinGW/bin/../lib/gcc/i686-w64-mingw32/8.1.0/../../../../i686-w64-mingw32/lib/../lib/crt2.o
 .bss           0x0043a01c       0x18 C:/Program Files/ETAS/ISOLAR-EVE3.5.0/plugins/com.etas.evetools.toolsfolder_3.5.5/Tools/MinGW/bin/../lib/gcc/i686-w64-mingw32/8.1.0/crtbegin.o
 .bss           0x0043a034        0x0 BswTasks.o
 *fill*         0x0043a034        0xc 
 .bss           0x0043a040      0x160 EVE_SystemClock.o
 .bss           0x0043a1a0        0x0 main.o
 .bss           0x0043a1a0        0x0 Os_ErrorHook.o
 .bss           0x0043a1a0        0x0 Os_Hooks.o
 .bss           0x0043a1a0        0x0 OsTask_0.o
 .bss           0x0043a1a0        0x0 OsTask_04.o
 .bss           0x0043a1a0        0x0 OsTask_1.o
 .bss           0x0043a1a0        0x0 OsTask_10.o
 .bss           0x0043a1a0        0x0 OsTask_11.o
 .bss           0x0043a1a0        0x0 OsTask_12.o
 .bss           0x0043a1a0        0x0 OsTask_13.o
 .bss           0x0043a1a0        0x0 OsTask_14.o
 .bss           0x0043a1a0        0x0 OsTask_15.o
 .bss           0x0043a1a0        0x0 OsTask_16.o
 .bss           0x0043a1a0        0x0 OsTask_18.o
 .bss           0x0043a1a0        0x0 OsTask_19.o
 .bss           0x0043a1a0        0x0 OsTask_2.o
 .bss           0x0043a1a0        0x0 OsTask_20.o
 .bss           0x0043a1a0        0x0 OsTask_21.o
 .bss           0x0043a1a0        0x0 OsTask_22.o
 .bss           0x0043a1a0        0x0 OsTask_23.o
 .bss           0x0043a1a0        0x0 OsTask_24.o
 .bss           0x0043a1a0        0x0 OsTask_25.o
 .bss           0x0043a1a0        0x0 OsTask_26.o
 .bss           0x0043a1a0        0x0 OsTask_3.o
 .bss           0x0043a1a0        0x0 OsTask_5.o
 .bss           0x0043a1a0        0x0 OsTask_6.o
 .bss           0x0043a1a0        0x0 OsTask_7.o
 .bss           0x0043a1a0        0x0 OsTask_8.o
 .bss           0x0043a1a0       0x30 Rte.o
                0x0043a1a0                Rte_ActCount_CPT_APP_BRAKE_CONTROLL_COMP_DataReceivedEvent_0
                0x0043a1a1                Rte_ActCount_CPT_APP_BRAKE_CONTROLL_COMP_DataReceivedEvent_1
                0x0043a1a2                Rte_ActCount_CPT_APP_BRAKE_CONTROLL_COMP_DataReceivedEvent_2
                0x0043a1a3                Rte_ActCount_CPT_APP_BRAKE_CONTROLL_COMP_DataReceivedEvent_3
                0x0043a1a4                Rte_ActCount_CPT_AccelControlAPP_ExternalTriggerOccurredEvent_0
                0x0043a1a5                Rte_ActCount_CPT_AccelControlAPP_ExternalTriggerOccurredEvent_1
                0x0043a1a6                Rte_Event_CPT_ACT_HYDRAULIC_MODULATOR_FRONTL_COMP_ACT_HM_FL_Client_set_E_op_wd
                0x0043a1a9                Rte_Event_CPT_ACT_HYDRAULIC_MODULATOR_FRONTR_COMP_ACT_HM_FR_Client_set_E_op_wd
                0x0043a1ac                Rte_Event_CPT_ACT_HYDRAULIC_MODULATOR_REARL_COMP_ACT_HM_RL_Client_set_E_op_wd
                0x0043a1af                Rte_Event_CPT_ACT_HYDRAULIC_MODULATOR_REARR_COMP_ACT_HM_RR_Client_set_E_op_wd
                0x0043a1b2                Rte_Event_CPT_ACT_MOTOR_COMP_CS_MOTOR_Client_motor_act_op_wd
                0x0043a1b5                Rte_Event_CPT_AccelPedalSen_RPort_get_AccelPedal_Status_wd
                0x0043a1b8                Rte_Event_CPT_BrakePedalSen_RPort_get_BrakePedal_Status_wd
                0x0043a1bb                Rte_Event_CPT_Cylinder_Sen_Rport_get_cylinder_Status_wd
                0x0043a1be                Rte_Event_CPT_Engine_Cycle_ACT_Engine_Cleintport_set_engine_wd
                0x0043a1c1                Rte_Event_CPT_Engine_Gear_ACT_phyGear_relayPport_set_phygear_wd
                0x0043a1c4                Rte_Event_CPT_GearModeSen_RPort_get_Gear_Mode_wd
                0x0043a1c7                Rte_Event_CPT_SEN_BATT_COMP_CS_BATT_Receive_batt_sen_op_wd
                0x0043a1ca                Rte_Event_CPT_SpeedSen_RPort_get_Tire_RPM_wd
 .bss           0x0043a1d0        0x0 Rte_AccelControlAPP.o
 .bss           0x0043a1d0        0x0 Rte_AccelPedalSen.o
 .bss           0x0043a1d0        0x0 Rte_ACT_HYDRAULIC_MODULATOR_FRONTL_COMP.o
 .bss           0x0043a1d0        0x0 Rte_ACT_HYDRAULIC_MODULATOR_FRONTR_COMP.o
 .bss           0x0043a1d0        0x0 Rte_ACT_HYDRAULIC_MODULATOR_REARL_COMP.o
 .bss           0x0043a1d0        0x0 Rte_ACT_HYDRAULIC_MODULATOR_REARR_COMP.o
 .bss           0x0043a1d0        0x0 Rte_ACT_MOTOR_COMP.o
 .bss           0x0043a1d0      0x16c Rte_APP_BRAKE_CONTROLL_COMP.o
                0x0043a1d0                FL_array2
                0x0043a1e4                FR_array
                0x0043a1f8                RL_array
                0x0043a20c                RR_array
                0x0043a220                diff_arr2
                0x0043a234                diff_arr
                0x0043a248                FR_diff_arr
                0x0043a25c                RL_diff_arr
                0x0043a270                RR_diff_arr
                0x0043a284                fl_cnt1
                0x0043a288                fl_cnt2
                0x0043a28c                fr_cnt
                0x0043a290                rl_cnt
                0x0043a294                rr_cnt
                0x0043a298                prevalue
                0x0043a29c                abs
                0x0043a2a0                abs_n
                0x0043a2a4                FR_abs
                0x0043a2a8                RL_abs
                0x0043a2ac                RR_abs
                0x0043a2b0                cnt
                0x0043a2b4                cnt2
                0x0043a2b8                cnt3
                0x0043a2bc                cnt4
                0x0043a2c0                cnt5
                0x0043a2c4                abs1
                0x0043a2d0                abs2
                0x0043a2dc                abs_r1
                0x0043a2e8                abs_r2
                0x0043a2f4                abs_fr1
                0x0043a300                abs_fr2
                0x0043a30c                abs_rl1
                0x0043a318                abs_rl2
                0x0043a324                abs_rr1
                0x0043a330                abs_rr2
 .bss           0x0043a33c        0x4 Rte_APP_MOTOR_COMP.o
                0x0043a33c                low_flag
 .bss           0x0043a340        0x0 Rte_AvgSpeed.o
 .bss           0x0043a340        0x0 Rte_BrakePedalSen.o
 .bss           0x0043a340        0x0 Rte_Cylinder_Sen.o
 .bss           0x0043a340        0x0 Rte_ECU_ABS.o
 .bss           0x0043a340        0x0 Rte_Engine_Cycle_ACT.o
 .bss           0x0043a340        0x0 Rte_Engine_Gear_ACT.o
 .bss           0x0043a340        0x0 Rte_EngineApp.o
 .bss           0x0043a340        0x0 Rte_GearModeSen.o
 .bss           0x0043a340        0x4 Rte_Lib.o
                0x0043a340                Rte_ResourceCount
                0x0043a342                Rte_Initialized
                0x0043a343                SchM_Initialized
 .bss           0x0043a344        0x0 Rte_SEN_BATT_COMP.o
 .bss           0x0043a344        0x0 Rte_SpeedSen.o
 .bss           0x0043a344        0x0 startVecu.o
 .bss           0x0043a344        0x0 target.o
 .bss           0x0043a344        0x8 VECU_SystemClock_ISR.o
 *fill*         0x0043a34c       0x14 
 .bss           0x0043a360     0x5600 virtualdevices.o
                0x0043a360                AccelSensor
                0x0043a3a0                BrakeSensor
                0x0043a3e0                GearSwitch
                0x0043a420                SpinSensor1
                0x0043a460                SpinSensor2
                0x0043a4a0                SpinSensor3
                0x0043a4e0                SpinSensor4
                0x0043a520                CylinderTempSensor
                0x0043a560                CylinderPressSensor
                0x0043a5a0                FL_Speed_Sensor
                0x0043a5e0                BatterySensor
                0x0043a620                FL_HydraulicModulator
                0x0043a660                FR_HydraulicModulator
                0x0043a6a0                RL_HydraulicModulator
                0x0043a6e0                RR_HydraulicModulator
                0x0043a720                PhysicGearActuator
                0x0043a760                Engineflag
                0x0043a7a0                EngineIgniteActuator
                0x0043a7e0                EngineFuelActuator
                0x0043a820                MotorActuator
                0x0043a860                Status
                0x0043f8e0                DebugSensor
                0x0043f920                tempInput
 .bss           0x0043f960       0x1c Vrta_Cfg.o
 .bss           0x0043f97c        0x0 RTAOS.lib(ActivateTask.o)
 .bss           0x0043f97c        0x0 RTAOS.lib(CancelAlarm.o)
 .bss           0x0043f97c        0x0 RTAOS.lib(ClearEvent.o)
 .bss           0x0043f97c        0x0 RTAOS.lib(DispatchTask.o)
 .bss           0x0043f97c        0x0 RTAOS.lib(GetEvent.o)
 .bss           0x0043f97c        0x0 RTAOS.lib(GetISRID.o)
 .bss           0x0043f97c        0x0 RTAOS.lib(GetResource.o)
 .bss           0x0043f97c        0x0 RTAOS.lib(GetTaskID.o)
 .bss           0x0043f97c        0x0 RTAOS.lib(Os_Cfg.o)
 .bss           0x0043f97c        0x0 RTAOS.lib(Os_Cfg_Counters.o)
 .bss           0x0043f97c        0x0 RTAOS.lib(Os_Cfg_KL.o)
 .bss           0x0043f97c        0x0 RTAOS.lib(Os_fsb.o)
 .bss           0x0043f97c        0x0 RTAOS.lib(Os_SetJmp.o)
 .bss           0x0043f97c        0x4 RTAOS.lib(Os_Stack.o)
 .bss           0x0043f980        0x0 RTAOS.lib(ReleaseResource.o)
 .bss           0x0043f980        0x0 RTAOS.lib(ResumeOSInterrupts.o)
 .bss           0x0043f980        0x0 RTAOS.lib(SetEvent.o)
 .bss           0x0043f980        0x0 RTAOS.lib(SetRelAlarm.o)
 .bss           0x0043f980        0x0 RTAOS.lib(StartOS.o)
 .bss           0x0043f980        0x0 RTAOS.lib(StartScheduleTableRel.o)
 .bss           0x0043f980        0x0 RTAOS.lib(StopScheduleTable.o)
 .bss           0x0043f980        0x0 RTAOS.lib(SuspendOSInterrupts.o)
 .bss           0x0043f980        0x0 RTAOS.lib(TerminateTask.o)
 .bss           0x0043f980        0x0 RTAOS.lib(vrtaAppMain.o)
 .bss           0x0043f980       0xb0 RTAOS.lib(vrtaCore.o)
                0x0043f980                vrtaNeedsForcedTerminate
 .bss           0x0043fa30        0x4 RTAOS.lib(vrtaIdleHandling.o)
 .bss           0x0043fa34        0x0 RTAOS.lib(vrtaLoggerDevice.o)
 *fill*         0x0043fa34        0xc 
 .bss           0x0043fa40       0x40 RTAOS.lib(vrtaOSMonitorDevice.o)
 .bss           0x0043fa80        0x0 RTAOS.lib(vrtaSampleDevices.o)
 .bss           0x0043fa80       0x40 RTAOS.lib(vrtaSystemClock.o)
                0x0043fa80                vrtaSystemClock
 .bss           0x0043fac0      0x160 RTAOS.lib(vrtaSystemClockDevice.o)
                0x0043fac0                SystemClock
 .bss           0x0043fc20        0x0 RTAOS.lib(WaitEvent.o)
 .bss           0x0043fc20        0x0 RTAOS.lib(DispatchECC.o)
 .bss           0x0043fc20        0x0 RTAOS.lib(GetStackValue.o)
 .bss           0x0043fc20        0x0 RTAOS.lib(Os_vectors.o)
 .bss           0x0043fc20        0x0 RTAOS.lib(Os_wrapper.o)
 .bss           0x0043fc20        0x0 RTAOS.lib(StackOverrunHook.o)
 .bss           0x0043fc20        0x0 RTAOS.lib(virtualDevice.o)
 .bss           0x0043fc20        0x0 RTAOS.lib(ShutdownOS.o)
 .bss           0x0043fc20        0x0 RTAOS.lib(InShutdown.o)
 .bss           0x0043fc20        0x0 C:/Program Files/ETAS/ISOLAR-EVE3.5.0/plugins/com.etas.evetools.toolsfolder_3.5.5/Tools/MinGW/bin/../lib/gcc/i686-w64-mingw32/8.1.0/../../../../i686-w64-mingw32/lib/../lib/libwinmm.a(dcnfs00150.o)
 .bss           0x0043fc20        0x0 C:/Program Files/ETAS/ISOLAR-EVE3.5.0/plugins/com.etas.evetools.toolsfolder_3.5.5/Tools/MinGW/bin/../lib/gcc/i686-w64-mingw32/8.1.0/../../../../i686-w64-mingw32/lib/../lib/libwinmm.a(dcnfs00149.o)
 .bss           0x0043fc20        0x0 C:/Program Files/ETAS/ISOLAR-EVE3.5.0/plugins/com.etas.evetools.toolsfolder_3.5.5/Tools/MinGW/bin/../lib/gcc/i686-w64-mingw32/8.1.0/../../../../i686-w64-mingw32/lib/../lib/libwinmm.a(dcnfs00144.o)
 .bss           0x0043fc20        0x0 C:/Program Files/ETAS/ISOLAR-EVE3.5.0/plugins/com.etas.evetools.toolsfolder_3.5.5/Tools/MinGW/bin/../lib/gcc/i686-w64-mingw32/8.1.0/../../../../i686-w64-mingw32/lib/../lib/libwinmm.a(dcnfh.o)
 .bss           0x0043fc20        0x0 C:/Program Files/ETAS/ISOLAR-EVE3.5.0/plugins/com.etas.evetools.toolsfolder_3.5.5/Tools/MinGW/bin/../lib/gcc/i686-w64-mingw32/8.1.0/../../../../i686-w64-mingw32/lib/../lib/libwinmm.a(dcnft.o)
 .bss           0x0043fc20        0x0 C:/Program Files/ETAS/ISOLAR-EVE3.5.0/plugins/com.etas.evetools.toolsfolder_3.5.5/Tools/MinGW/bin/../lib/gcc/i686-w64-mingw32/8.1.0\libstdc++.a(class_type_info.o)
 .bss           0x0043fc20        0x0 C:/Program Files/ETAS/ISOLAR-EVE3.5.0/plugins/com.etas.evetools.toolsfolder_3.5.5/Tools/MinGW/bin/../lib/gcc/i686-w64-mingw32/8.1.0\libstdc++.a(del_ops.o)
 .bss           0x0043fc20        0x0 C:/Program Files/ETAS/ISOLAR-EVE3.5.0/plugins/com.etas.evetools.toolsfolder_3.5.5/Tools/MinGW/bin/../lib/gcc/i686-w64-mingw32/8.1.0\libstdc++.a(del_opv.o)
 .bss           0x0043fc20        0x0 C:/Program Files/ETAS/ISOLAR-EVE3.5.0/plugins/com.etas.evetools.toolsfolder_3.5.5/Tools/MinGW/bin/../lib/gcc/i686-w64-mingw32/8.1.0\libstdc++.a(eh_aux_runtime.o)
 .bss           0x0043fc20        0x0 C:/Program Files/ETAS/ISOLAR-EVE3.5.0/plugins/com.etas.evetools.toolsfolder_3.5.5/Tools/MinGW/bin/../lib/gcc/i686-w64-mingw32/8.1.0\libstdc++.a(eh_catch.o)
 .bss           0x0043fc20        0x0 C:/Program Files/ETAS/ISOLAR-EVE3.5.0/plugins/com.etas.evetools.toolsfolder_3.5.5/Tools/MinGW/bin/../lib/gcc/i686-w64-mingw32/8.1.0\libstdc++.a(eh_globals.o)
 .bss           0x0043fc20        0x0 C:/Program Files/ETAS/ISOLAR-EVE3.5.0/plugins/com.etas.evetools.toolsfolder_3.5.5/Tools/MinGW/bin/../lib/gcc/i686-w64-mingw32/8.1.0\libstdc++.a(eh_personality.o)
 .bss           0x0043fc20        0x0 C:/Program Files/ETAS/ISOLAR-EVE3.5.0/plugins/com.etas.evetools.toolsfolder_3.5.5/Tools/MinGW/bin/../lib/gcc/i686-w64-mingw32/8.1.0\libstdc++.a(eh_terminate.o)
 .bss           0x0043fc20        0x0 C:/Program Files/ETAS/ISOLAR-EVE3.5.0/plugins/com.etas.evetools.toolsfolder_3.5.5/Tools/MinGW/bin/../lib/gcc/i686-w64-mingw32/8.1.0\libstdc++.a(eh_term_handler.o)
 .bss           0x0043fc20        0x0 C:/Program Files/ETAS/ISOLAR-EVE3.5.0/plugins/com.etas.evetools.toolsfolder_3.5.5/Tools/MinGW/bin/../lib/gcc/i686-w64-mingw32/8.1.0\libstdc++.a(eh_throw.o)
 .bss           0x0043fc20        0x0 C:/Program Files/ETAS/ISOLAR-EVE3.5.0/plugins/com.etas.evetools.toolsfolder_3.5.5/Tools/MinGW/bin/../lib/gcc/i686-w64-mingw32/8.1.0\libstdc++.a(eh_unex_handler.o)
 .bss           0x0043fc20        0x0 C:/Program Files/ETAS/ISOLAR-EVE3.5.0/plugins/com.etas.evetools.toolsfolder_3.5.5/Tools/MinGW/bin/../lib/gcc/i686-w64-mingw32/8.1.0\libstdc++.a(new_op.o)
 .bss           0x0043fc20        0x0 C:/Program Files/ETAS/ISOLAR-EVE3.5.0/plugins/com.etas.evetools.toolsfolder_3.5.5/Tools/MinGW/bin/../lib/gcc/i686-w64-mingw32/8.1.0\libstdc++.a(new_opv.o)
 .bss           0x0043fc20        0x0 C:/Program Files/ETAS/ISOLAR-EVE3.5.0/plugins/com.etas.evetools.toolsfolder_3.5.5/Tools/MinGW/bin/../lib/gcc/i686-w64-mingw32/8.1.0\libstdc++.a(pure.o)
 .bss           0x0043fc20        0x0 C:/Program Files/ETAS/ISOLAR-EVE3.5.0/plugins/com.etas.evetools.toolsfolder_3.5.5/Tools/MinGW/bin/../lib/gcc/i686-w64-mingw32/8.1.0\libstdc++.a(si_class_type_info.o)
 .bss           0x0043fc20        0x0 C:/Program Files/ETAS/ISOLAR-EVE3.5.0/plugins/com.etas.evetools.toolsfolder_3.5.5/Tools/MinGW/bin/../lib/gcc/i686-w64-mingw32/8.1.0\libstdc++.a(tinfo.o)
 .bss           0x0043fc20        0x0 C:/Program Files/ETAS/ISOLAR-EVE3.5.0/plugins/com.etas.evetools.toolsfolder_3.5.5/Tools/MinGW/bin/../lib/gcc/i686-w64-mingw32/8.1.0\libstdc++.a(vmi_class_type_info.o)
 .bss           0x0043fc20        0x0 C:/Program Files/ETAS/ISOLAR-EVE3.5.0/plugins/com.etas.evetools.toolsfolder_3.5.5/Tools/MinGW/bin/../lib/gcc/i686-w64-mingw32/8.1.0\libstdc++.a(vterminate.o)
 .bss           0x0043fc20        0x0 C:/Program Files/ETAS/ISOLAR-EVE3.5.0/plugins/com.etas.evetools.toolsfolder_3.5.5/Tools/MinGW/bin/../lib/gcc/i686-w64-mingw32/8.1.0\libstdc++.a(bad_alloc.o)
 .bss           0x0043fc20        0x0 C:/Program Files/ETAS/ISOLAR-EVE3.5.0/plugins/com.etas.evetools.toolsfolder_3.5.5/Tools/MinGW/bin/../lib/gcc/i686-w64-mingw32/8.1.0\libstdc++.a(bad_array_new.o)
 .bss           0x0043fc20        0x0 C:/Program Files/ETAS/ISOLAR-EVE3.5.0/plugins/com.etas.evetools.toolsfolder_3.5.5/Tools/MinGW/bin/../lib/gcc/i686-w64-mingw32/8.1.0\libstdc++.a(bad_cast.o)
 .bss           0x0043fc20        0x0 C:/Program Files/ETAS/ISOLAR-EVE3.5.0/plugins/com.etas.evetools.toolsfolder_3.5.5/Tools/MinGW/bin/../lib/gcc/i686-w64-mingw32/8.1.0\libstdc++.a(bad_typeid.o)
 .bss           0x0043fc20        0x0 C:/Program Files/ETAS/ISOLAR-EVE3.5.0/plugins/com.etas.evetools.toolsfolder_3.5.5/Tools/MinGW/bin/../lib/gcc/i686-w64-mingw32/8.1.0\libstdc++.a(cp-demangle.o)
 .bss           0x0043fc20        0x0 C:/Program Files/ETAS/ISOLAR-EVE3.5.0/plugins/com.etas.evetools.toolsfolder_3.5.5/Tools/MinGW/bin/../lib/gcc/i686-w64-mingw32/8.1.0\libstdc++.a(del_op.o)
 .bss           0x0043fc20        0x0 C:/Program Files/ETAS/ISOLAR-EVE3.5.0/plugins/com.etas.evetools.toolsfolder_3.5.5/Tools/MinGW/bin/../lib/gcc/i686-w64-mingw32/8.1.0\libstdc++.a(eh_alloc.o)
 .bss           0x0043fc20        0x0 C:/Program Files/ETAS/ISOLAR-EVE3.5.0/plugins/com.etas.evetools.toolsfolder_3.5.5/Tools/MinGW/bin/../lib/gcc/i686-w64-mingw32/8.1.0\libstdc++.a(eh_call.o)
 .bss           0x0043fc20        0x0 C:/Program Files/ETAS/ISOLAR-EVE3.5.0/plugins/com.etas.evetools.toolsfolder_3.5.5/Tools/MinGW/bin/../lib/gcc/i686-w64-mingw32/8.1.0\libstdc++.a(eh_exception.o)
 .bss           0x0043fc20        0x0 C:/Program Files/ETAS/ISOLAR-EVE3.5.0/plugins/com.etas.evetools.toolsfolder_3.5.5/Tools/MinGW/bin/../lib/gcc/i686-w64-mingw32/8.1.0\libstdc++.a(eh_type.o)
 .bss           0x0043fc20        0x0 C:/Program Files/ETAS/ISOLAR-EVE3.5.0/plugins/com.etas.evetools.toolsfolder_3.5.5/Tools/MinGW/bin/../lib/gcc/i686-w64-mingw32/8.1.0\libstdc++.a(new_handler.o)
 .bss           0x0043fc20        0x4 C:/Program Files/ETAS/ISOLAR-EVE3.5.0/plugins/com.etas.evetools.toolsfolder_3.5.5/Tools/MinGW/bin/../lib/gcc/i686-w64-mingw32/8.1.0/../../../../i686-w64-mingw32/lib/../lib/libmingw32.a(lib32_libmingw32_a-gccmain.o)
 .bss           0x0043fc24        0x0 C:/Program Files/ETAS/ISOLAR-EVE3.5.0/plugins/com.etas.evetools.toolsfolder_3.5.5/Tools/MinGW/bin/../lib/gcc/i686-w64-mingw32/8.1.0/../../../../i686-w64-mingw32/lib/../lib/libmingw32.a(lib32_libmingw32_a-natstart.o)
 .bss           0x0043fc24        0x0 C:/Program Files/ETAS/ISOLAR-EVE3.5.0/plugins/com.etas.evetools.toolsfolder_3.5.5/Tools/MinGW/bin/../lib/gcc/i686-w64-mingw32/8.1.0/../../../../i686-w64-mingw32/lib/../lib/libmingw32.a(lib32_libmingw32_a-wildcard.o)
 .bss           0x0043fc24        0x4 C:/Program Files/ETAS/ISOLAR-EVE3.5.0/plugins/com.etas.evetools.toolsfolder_3.5.5/Tools/MinGW/bin/../lib/gcc/i686-w64-mingw32/8.1.0/../../../../i686-w64-mingw32/lib/../lib/libmingw32.a(lib32_libmingw32_a-charmax.o)
                0x0043fc24                mingw_initcharmax
 .bss           0x0043fc28        0x0 C:/Program Files/ETAS/ISOLAR-EVE3.5.0/plugins/com.etas.evetools.toolsfolder_3.5.5/Tools/MinGW/bin/../lib/gcc/i686-w64-mingw32/8.1.0/../../../../i686-w64-mingw32/lib/../lib/libmingw32.a(lib32_libmingw32_a-dllargv.o)
 *fill*         0x0043fc28       0x18 
 .bss           0x0043fc40      0x340 C:/Program Files/ETAS/ISOLAR-EVE3.5.0/plugins/com.etas.evetools.toolsfolder_3.5.5/Tools/MinGW/bin/../lib/gcc/i686-w64-mingw32/8.1.0/../../../../i686-w64-mingw32/lib/../lib/libmingw32.a(lib32_libmingw32_a-gs_support.o)
 .bss           0x0043ff80        0x4 C:/Program Files/ETAS/ISOLAR-EVE3.5.0/plugins/com.etas.evetools.toolsfolder_3.5.5/Tools/MinGW/bin/../lib/gcc/i686-w64-mingw32/8.1.0/../../../../i686-w64-mingw32/lib/../lib/libmingw32.a(lib32_libmingw32_a-_newmode.o)
                0x0043ff80                _newmode
 .bss           0x0043ff84       0x10 C:/Program Files/ETAS/ISOLAR-EVE3.5.0/plugins/com.etas.evetools.toolsfolder_3.5.5/Tools/MinGW/bin/../lib/gcc/i686-w64-mingw32/8.1.0/../../../../i686-w64-mingw32/lib/../lib/libmingw32.a(lib32_libmingw32_a-tlssup.o)
                0x0043ff84                mingw_initltssuo_force
                0x0043ff88                mingw_initltsdyn_force
                0x0043ff8c                mingw_initltsdrot_force
                0x0043ff90                _tls_index
 .bss           0x0043ff94        0x0 C:/Program Files/ETAS/ISOLAR-EVE3.5.0/plugins/com.etas.evetools.toolsfolder_3.5.5/Tools/MinGW/bin/../lib/gcc/i686-w64-mingw32/8.1.0/../../../../i686-w64-mingw32/lib/../lib/libmingw32.a(lib32_libmingw32_a-cinitexe.o)
 .bss           0x0043ff94        0x4 C:/Program Files/ETAS/ISOLAR-EVE3.5.0/plugins/com.etas.evetools.toolsfolder_3.5.5/Tools/MinGW/bin/../lib/gcc/i686-w64-mingw32/8.1.0/../../../../i686-w64-mingw32/lib/../lib/libmingw32.a(lib32_libmingw32_a-merr.o)
 .bss           0x0043ff98        0x0 C:/Program Files/ETAS/ISOLAR-EVE3.5.0/plugins/com.etas.evetools.toolsfolder_3.5.5/Tools/MinGW/bin/../lib/gcc/i686-w64-mingw32/8.1.0/../../../../i686-w64-mingw32/lib/../lib/libmingw32.a(lib32_libmingw32_a-CRT_fp10.o)
 .bss           0x0043ff98        0x4 C:/Program Files/ETAS/ISOLAR-EVE3.5.0/plugins/com.etas.evetools.toolsfolder_3.5.5/Tools/MinGW/bin/../lib/gcc/i686-w64-mingw32/8.1.0/../../../../i686-w64-mingw32/lib/../lib/libmingw32.a(lib32_libmingw32_a-mingw_helpers.o)
                0x0043ff98                mingw_app_type
 .bss           0x0043ff9c        0xc C:/Program Files/ETAS/ISOLAR-EVE3.5.0/plugins/com.etas.evetools.toolsfolder_3.5.5/Tools/MinGW/bin/../lib/gcc/i686-w64-mingw32/8.1.0/../../../../i686-w64-mingw32/lib/../lib/libmingw32.a(lib32_libmingw32_a-pseudo-reloc.o)
 .bss           0x0043ffa8        0x4 C:/Program Files/ETAS/ISOLAR-EVE3.5.0/plugins/com.etas.evetools.toolsfolder_3.5.5/Tools/MinGW/bin/../lib/gcc/i686-w64-mingw32/8.1.0/../../../../i686-w64-mingw32/lib/../lib/libmingw32.a(lib32_libmingw32_a-xtxtmode.o)
                0x0043ffa8                _fmode
 .bss           0x0043ffac        0x4 C:/Program Files/ETAS/ISOLAR-EVE3.5.0/plugins/com.etas.evetools.toolsfolder_3.5.5/Tools/MinGW/bin/../lib/gcc/i686-w64-mingw32/8.1.0/../../../../i686-w64-mingw32/lib/../lib/libmingw32.a(lib32_libmingw32_a-crt_handler.o)
                0x0043ffac                __mingw_oldexcpt_handler
 .bss           0x0043ffb0       0x20 C:/Program Files/ETAS/ISOLAR-EVE3.5.0/plugins/com.etas.evetools.toolsfolder_3.5.5/Tools/MinGW/bin/../lib/gcc/i686-w64-mingw32/8.1.0/../../../../i686-w64-mingw32/lib/../lib/libmingw32.a(lib32_libmingw32_a-tlsthrd.o)
 .bss           0x0043ffd0        0x0 C:/Program Files/ETAS/ISOLAR-EVE3.5.0/plugins/com.etas.evetools.toolsfolder_3.5.5/Tools/MinGW/bin/../lib/gcc/i686-w64-mingw32/8.1.0/../../../../i686-w64-mingw32/lib/../lib/libmingw32.a(lib32_libmingw32_a-tlsmcrt.o)
 .bss           0x0043ffd0        0x4 C:/Program Files/ETAS/ISOLAR-EVE3.5.0/plugins/com.etas.evetools.toolsfolder_3.5.5/Tools/MinGW/bin/../lib/gcc/i686-w64-mingw32/8.1.0/../../../../i686-w64-mingw32/lib/../lib/libmingw32.a(lib32_libmingw32_a-pseudo-reloc-list.o)
 .bss           0x0043ffd4        0x0 C:/Program Files/ETAS/ISOLAR-EVE3.5.0/plugins/com.etas.evetools.toolsfolder_3.5.5/Tools/MinGW/bin/../lib/gcc/i686-w64-mingw32/8.1.0/../../../../i686-w64-mingw32/lib/../lib/libmingw32.a(lib32_libmingw32_a-pesect.o)
 .bss           0x0043ffd4        0x0 C:/Program Files/ETAS/ISOLAR-EVE3.5.0/plugins/com.etas.evetools.toolsfolder_3.5.5/Tools/MinGW/bin/../lib/gcc/i686-w64-mingw32/8.1.0/libgcc.a(_chkstk_ms.o)
 .bss           0x0043ffd4        0x0 C:/Program Files/ETAS/ISOLAR-EVE3.5.0/plugins/com.etas.evetools.toolsfolder_3.5.5/Tools/MinGW/bin/../lib/gcc/i686-w64-mingw32/8.1.0/libgcc.a(_ctors.o)
 .bss           0x0043ffd4        0x0 C:/Program Files/ETAS/ISOLAR-EVE3.5.0/plugins/com.etas.evetools.toolsfolder_3.5.5/Tools/MinGW/bin/../lib/gcc/i686-w64-mingw32/8.1.0/libgcc.a(_divdi3.o)
 .bss           0x0043ffd4        0x0 C:/Program Files/ETAS/ISOLAR-EVE3.5.0/plugins/com.etas.evetools.toolsfolder_3.5.5/Tools/MinGW/bin/../lib/gcc/i686-w64-mingw32/8.1.0/libgcc.a(gthr-win32.o)
 .bss           0x0043ffd4       0x14 C:/Program Files/ETAS/ISOLAR-EVE3.5.0/plugins/com.etas.evetools.toolsfolder_3.5.5/Tools/MinGW/bin/../lib/gcc/i686-w64-mingw32/8.1.0/libgcc_eh.a(unwind-dw2.o)
 .bss           0x0043ffe8       0x14 C:/Program Files/ETAS/ISOLAR-EVE3.5.0/plugins/com.etas.evetools.toolsfolder_3.5.5/Tools/MinGW/bin/../lib/gcc/i686-w64-mingw32/8.1.0/libgcc_eh.a(unwind-dw2-fde.o)
 .bss           0x0043fffc       0x10 C:/Program Files/ETAS/ISOLAR-EVE3.5.0/plugins/com.etas.evetools.toolsfolder_3.5.5/Tools/MinGW/bin/../lib/gcc/i686-w64-mingw32/8.1.0/libgcc_eh.a(emutls.o)
 .bss           0x0044000c        0x0 C:/Program Files/ETAS/ISOLAR-EVE3.5.0/plugins/com.etas.evetools.toolsfolder_3.5.5/Tools/MinGW/bin/../lib/gcc/i686-w64-mingw32/8.1.0/../../../../i686-w64-mingw32/lib/../lib/libmingwex.a(lib32_libmingwex_a-mingw_matherr.o)
 .bss           0x0044000c        0x0 C:/Program Files/ETAS/ISOLAR-EVE3.5.0/plugins/com.etas.evetools.toolsfolder_3.5.5/Tools/MinGW/bin/../lib/gcc/i686-w64-mingw32/8.1.0/../../../../i686-w64-mingw32/lib/../lib/libmsvcrt.a(dwbes01258.o)
 .bss           0x0044000c        0x0 C:/Program Files/ETAS/ISOLAR-EVE3.5.0/plugins/com.etas.evetools.toolsfolder_3.5.5/Tools/MinGW/bin/../lib/gcc/i686-w64-mingw32/8.1.0/../../../../i686-w64-mingw32/lib/../lib/libmsvcrt.a(dwbes01253.o)
 .bss           0x0044000c        0x0 C:/Program Files/ETAS/ISOLAR-EVE3.5.0/plugins/com.etas.evetools.toolsfolder_3.5.5/Tools/MinGW/bin/../lib/gcc/i686-w64-mingw32/8.1.0/../../../../i686-w64-mingw32/lib/../lib/libmsvcrt.a(dwbes01221.o)
 .bss           0x0044000c        0x0 C:/Program Files/ETAS/ISOLAR-EVE3.5.0/plugins/com.etas.evetools.toolsfolder_3.5.5/Tools/MinGW/bin/../lib/gcc/i686-w64-mingw32/8.1.0/../../../../i686-w64-mingw32/lib/../lib/libmsvcrt.a(dwbes01220.o)
 .bss           0x0044000c        0x0 C:/Program Files/ETAS/ISOLAR-EVE3.5.0/plugins/com.etas.evetools.toolsfolder_3.5.5/Tools/MinGW/bin/../lib/gcc/i686-w64-mingw32/8.1.0/../../../../i686-w64-mingw32/lib/../lib/libmsvcrt.a(dwbes01217.o)
 .bss           0x0044000c        0x0 C:/Program Files/ETAS/ISOLAR-EVE3.5.0/plugins/com.etas.evetools.toolsfolder_3.5.5/Tools/MinGW/bin/../lib/gcc/i686-w64-mingw32/8.1.0/../../../../i686-w64-mingw32/lib/../lib/libmsvcrt.a(dwbes01212.o)
 .bss           0x0044000c        0x0 C:/Program Files/ETAS/ISOLAR-EVE3.5.0/plugins/com.etas.evetools.toolsfolder_3.5.5/Tools/MinGW/bin/../lib/gcc/i686-w64-mingw32/8.1.0/../../../../i686-w64-mingw32/lib/../lib/libmsvcrt.a(dwbes01210.o)
 .bss           0x0044000c        0x0 C:/Program Files/ETAS/ISOLAR-EVE3.5.0/plugins/com.etas.evetools.toolsfolder_3.5.5/Tools/MinGW/bin/../lib/gcc/i686-w64-mingw32/8.1.0/../../../../i686-w64-mingw32/lib/../lib/libmsvcrt.a(dwbes01207.o)
 .bss           0x0044000c        0x0 C:/Program Files/ETAS/ISOLAR-EVE3.5.0/plugins/com.etas.evetools.toolsfolder_3.5.5/Tools/MinGW/bin/../lib/gcc/i686-w64-mingw32/8.1.0/../../../../i686-w64-mingw32/lib/../lib/libmsvcrt.a(dwbes01202.o)
 .bss           0x0044000c        0x0 C:/Program Files/ETAS/ISOLAR-EVE3.5.0/plugins/com.etas.evetools.toolsfolder_3.5.5/Tools/MinGW/bin/../lib/gcc/i686-w64-mingw32/8.1.0/../../../../i686-w64-mingw32/lib/../lib/libmsvcrt.a(dwbes01199.o)
 .bss           0x0044000c        0x0 C:/Program Files/ETAS/ISOLAR-EVE3.5.0/plugins/com.etas.evetools.toolsfolder_3.5.5/Tools/MinGW/bin/../lib/gcc/i686-w64-mingw32/8.1.0/../../../../i686-w64-mingw32/lib/../lib/libmsvcrt.a(dwbes01190.o)
 .bss           0x0044000c        0x0 C:/Program Files/ETAS/ISOLAR-EVE3.5.0/plugins/com.etas.evetools.toolsfolder_3.5.5/Tools/MinGW/bin/../lib/gcc/i686-w64-mingw32/8.1.0/../../../../i686-w64-mingw32/lib/../lib/libmsvcrt.a(dwbes01174.o)
 .bss           0x0044000c        0x0 C:/Program Files/ETAS/ISOLAR-EVE3.5.0/plugins/com.etas.evetools.toolsfolder_3.5.5/Tools/MinGW/bin/../lib/gcc/i686-w64-mingw32/8.1.0/../../../../i686-w64-mingw32/lib/../lib/libmsvcrt.a(dwbes01172.o)
 .bss           0x0044000c        0x0 C:/Program Files/ETAS/ISOLAR-EVE3.5.0/plugins/com.etas.evetools.toolsfolder_3.5.5/Tools/MinGW/bin/../lib/gcc/i686-w64-mingw32/8.1.0/../../../../i686-w64-mingw32/lib/../lib/libmsvcrt.a(dwbes01163.o)
 .bss           0x0044000c        0x0 C:/Program Files/ETAS/ISOLAR-EVE3.5.0/plugins/com.etas.evetools.toolsfolder_3.5.5/Tools/MinGW/bin/../lib/gcc/i686-w64-mingw32/8.1.0/../../../../i686-w64-mingw32/lib/../lib/libmsvcrt.a(dwbes01118.o)
 .bss           0x0044000c        0x0 C:/Program Files/ETAS/ISOLAR-EVE3.5.0/plugins/com.etas.evetools.toolsfolder_3.5.5/Tools/MinGW/bin/../lib/gcc/i686-w64-mingw32/8.1.0/../../../../i686-w64-mingw32/lib/../lib/libmsvcrt.a(dwbes01104.o)
 .bss           0x0044000c        0x0 C:/Program Files/ETAS/ISOLAR-EVE3.5.0/plugins/com.etas.evetools.toolsfolder_3.5.5/Tools/MinGW/bin/../lib/gcc/i686-w64-mingw32/8.1.0/../../../../i686-w64-mingw32/lib/../lib/libmsvcrt.a(dwbes01100.o)
 .bss           0x0044000c        0x0 C:/Program Files/ETAS/ISOLAR-EVE3.5.0/plugins/com.etas.evetools.toolsfolder_3.5.5/Tools/MinGW/bin/../lib/gcc/i686-w64-mingw32/8.1.0/../../../../i686-w64-mingw32/lib/../lib/libmsvcrt.a(dwbes01099.o)
 .bss           0x0044000c        0x0 C:/Program Files/ETAS/ISOLAR-EVE3.5.0/plugins/com.etas.evetools.toolsfolder_3.5.5/Tools/MinGW/bin/../lib/gcc/i686-w64-mingw32/8.1.0/../../../../i686-w64-mingw32/lib/../lib/libmsvcrt.a(dwbes01097.o)
 .bss           0x0044000c        0x0 C:/Program Files/ETAS/ISOLAR-EVE3.5.0/plugins/com.etas.evetools.toolsfolder_3.5.5/Tools/MinGW/bin/../lib/gcc/i686-w64-mingw32/8.1.0/../../../../i686-w64-mingw32/lib/../lib/libmsvcrt.a(dwbes01095.o)
 .bss           0x0044000c        0x0 C:/Program Files/ETAS/ISOLAR-EVE3.5.0/plugins/com.etas.evetools.toolsfolder_3.5.5/Tools/MinGW/bin/../lib/gcc/i686-w64-mingw32/8.1.0/../../../../i686-w64-mingw32/lib/../lib/libmsvcrt.a(dwbes01087.o)
 .bss           0x0044000c        0x0 C:/Program Files/ETAS/ISOLAR-EVE3.5.0/plugins/com.etas.evetools.toolsfolder_3.5.5/Tools/MinGW/bin/../lib/gcc/i686-w64-mingw32/8.1.0/../../../../i686-w64-mingw32/lib/../lib/libmsvcrt.a(dwbes01084.o)
 .bss           0x0044000c        0x0 C:/Program Files/ETAS/ISOLAR-EVE3.5.0/plugins/com.etas.evetools.toolsfolder_3.5.5/Tools/MinGW/bin/../lib/gcc/i686-w64-mingw32/8.1.0/../../../../i686-w64-mingw32/lib/../lib/libmsvcrt.a(dwbes01081.o)
 .bss           0x0044000c        0x0 C:/Program Files/ETAS/ISOLAR-EVE3.5.0/plugins/com.etas.evetools.toolsfolder_3.5.5/Tools/MinGW/bin/../lib/gcc/i686-w64-mingw32/8.1.0/../../../../i686-w64-mingw32/lib/../lib/libmsvcrt.a(dwbes01076.o)
 .bss           0x0044000c        0x0 C:/Program Files/ETAS/ISOLAR-EVE3.5.0/plugins/com.etas.evetools.toolsfolder_3.5.5/Tools/MinGW/bin/../lib/gcc/i686-w64-mingw32/8.1.0/../../../../i686-w64-mingw32/lib/../lib/libmsvcrt.a(dwbes01066.o)
 .bss           0x0044000c        0x0 C:/Program Files/ETAS/ISOLAR-EVE3.5.0/plugins/com.etas.evetools.toolsfolder_3.5.5/Tools/MinGW/bin/../lib/gcc/i686-w64-mingw32/8.1.0/../../../../i686-w64-mingw32/lib/../lib/libmsvcrt.a(dwbes01057.o)
 .bss           0x0044000c        0x0 C:/Program Files/ETAS/ISOLAR-EVE3.5.0/plugins/com.etas.evetools.toolsfolder_3.5.5/Tools/MinGW/bin/../lib/gcc/i686-w64-mingw32/8.1.0/../../../../i686-w64-mingw32/lib/../lib/libmsvcrt.a(dwbes01010.o)
 .bss           0x0044000c        0x0 C:/Program Files/ETAS/ISOLAR-EVE3.5.0/plugins/com.etas.evetools.toolsfolder_3.5.5/Tools/MinGW/bin/../lib/gcc/i686-w64-mingw32/8.1.0/../../../../i686-w64-mingw32/lib/../lib/libmsvcrt.a(dwbes00629.o)
 .bss           0x0044000c        0x0 C:/Program Files/ETAS/ISOLAR-EVE3.5.0/plugins/com.etas.evetools.toolsfolder_3.5.5/Tools/MinGW/bin/../lib/gcc/i686-w64-mingw32/8.1.0/../../../../i686-w64-mingw32/lib/../lib/libmsvcrt.a(dwbes00351.o)
 .bss           0x0044000c        0x0 C:/Program Files/ETAS/ISOLAR-EVE3.5.0/plugins/com.etas.evetools.toolsfolder_3.5.5/Tools/MinGW/bin/../lib/gcc/i686-w64-mingw32/8.1.0/../../../../i686-w64-mingw32/lib/../lib/libmsvcrt.a(dwbes00161.o)
 .bss           0x0044000c        0x0 C:/Program Files/ETAS/ISOLAR-EVE3.5.0/plugins/com.etas.evetools.toolsfolder_3.5.5/Tools/MinGW/bin/../lib/gcc/i686-w64-mingw32/8.1.0/../../../../i686-w64-mingw32/lib/../lib/libmsvcrt.a(dwbes00144.o)
 .bss           0x0044000c        0x0 C:/Program Files/ETAS/ISOLAR-EVE3.5.0/plugins/com.etas.evetools.toolsfolder_3.5.5/Tools/MinGW/bin/../lib/gcc/i686-w64-mingw32/8.1.0/../../../../i686-w64-mingw32/lib/../lib/libmsvcrt.a(dwbes00107.o)
 .bss           0x0044000c        0x0 C:/Program Files/ETAS/ISOLAR-EVE3.5.0/plugins/com.etas.evetools.toolsfolder_3.5.5/Tools/MinGW/bin/../lib/gcc/i686-w64-mingw32/8.1.0/../../../../i686-w64-mingw32/lib/../lib/libmsvcrt.a(dwbes00104.o)
 .bss           0x0044000c        0x0 C:/Program Files/ETAS/ISOLAR-EVE3.5.0/plugins/com.etas.evetools.toolsfolder_3.5.5/Tools/MinGW/bin/../lib/gcc/i686-w64-mingw32/8.1.0/../../../../i686-w64-mingw32/lib/../lib/libmsvcrt.a(dwbes00083.o)
 .bss           0x0044000c        0x0 C:/Program Files/ETAS/ISOLAR-EVE3.5.0/plugins/com.etas.evetools.toolsfolder_3.5.5/Tools/MinGW/bin/../lib/gcc/i686-w64-mingw32/8.1.0/../../../../i686-w64-mingw32/lib/../lib/libmsvcrt.a(dwbes00076.o)
 .bss           0x0044000c        0x0 C:/Program Files/ETAS/ISOLAR-EVE3.5.0/plugins/com.etas.evetools.toolsfolder_3.5.5/Tools/MinGW/bin/../lib/gcc/i686-w64-mingw32/8.1.0/../../../../i686-w64-mingw32/lib/../lib/libmsvcrt.a(dwbes00068.o)
 .bss           0x0044000c        0x0 C:/Program Files/ETAS/ISOLAR-EVE3.5.0/plugins/com.etas.evetools.toolsfolder_3.5.5/Tools/MinGW/bin/../lib/gcc/i686-w64-mingw32/8.1.0/../../../../i686-w64-mingw32/lib/../lib/libmsvcrt.a(dwbes00059.o)
 .bss           0x0044000c        0x0 C:/Program Files/ETAS/ISOLAR-EVE3.5.0/plugins/com.etas.evetools.toolsfolder_3.5.5/Tools/MinGW/bin/../lib/gcc/i686-w64-mingw32/8.1.0/../../../../i686-w64-mingw32/lib/../lib/libmsvcrt.a(dwbes00058.o)
 .bss           0x0044000c        0x0 C:/Program Files/ETAS/ISOLAR-EVE3.5.0/plugins/com.etas.evetools.toolsfolder_3.5.5/Tools/MinGW/bin/../lib/gcc/i686-w64-mingw32/8.1.0/../../../../i686-w64-mingw32/lib/../lib/libmsvcrt.a(lib32_libmsvcrt_os_a-acrt_iob_func.o)
 .bss           0x0044000c        0x4 C:/Program Files/ETAS/ISOLAR-EVE3.5.0/plugins/com.etas.evetools.toolsfolder_3.5.5/Tools/MinGW/bin/../lib/gcc/i686-w64-mingw32/8.1.0/../../../../i686-w64-mingw32/lib/../lib/libmsvcrt.a(lib32_libmsvcrt_os_a-invalid_parameter_handler.o)
 .bss           0x00440010        0x0 C:/Program Files/ETAS/ISOLAR-EVE3.5.0/plugins/com.etas.evetools.toolsfolder_3.5.5/Tools/MinGW/bin/../lib/gcc/i686-w64-mingw32/8.1.0/../../../../i686-w64-mingw32/lib/../lib/libmsvcrt.a(dwbeh.o)
 .bss           0x00440010        0x0 C:/Program Files/ETAS/ISOLAR-EVE3.5.0/plugins/com.etas.evetools.toolsfolder_3.5.5/Tools/MinGW/bin/../lib/gcc/i686-w64-mingw32/8.1.0/../../../../i686-w64-mingw32/lib/../lib/libmsvcrt.a(dwbes00355.o)
 .bss           0x00440010        0x0 C:/Program Files/ETAS/ISOLAR-EVE3.5.0/plugins/com.etas.evetools.toolsfolder_3.5.5/Tools/MinGW/bin/../lib/gcc/i686-w64-mingw32/8.1.0/../../../../i686-w64-mingw32/lib/../lib/libmsvcrt.a(dwbet.o)
 .bss           0x00440010        0x0 C:/Program Files/ETAS/ISOLAR-EVE3.5.0/plugins/com.etas.evetools.toolsfolder_3.5.5/Tools/MinGW/bin/../lib/gcc/i686-w64-mingw32/8.1.0/../../../../i686-w64-mingw32/lib/../lib/libuser32.a(dmces00588.o)
 .bss           0x00440010        0x0 C:/Program Files/ETAS/ISOLAR-EVE3.5.0/plugins/com.etas.evetools.toolsfolder_3.5.5/Tools/MinGW/bin/../lib/gcc/i686-w64-mingw32/8.1.0/../../../../i686-w64-mingw32/lib/../lib/libuser32.a(dmceh.o)
 .bss           0x00440010        0x0 C:/Program Files/ETAS/ISOLAR-EVE3.5.0/plugins/com.etas.evetools.toolsfolder_3.5.5/Tools/MinGW/bin/../lib/gcc/i686-w64-mingw32/8.1.0/../../../../i686-w64-mingw32/lib/../lib/libuser32.a(dmcet.o)
 .bss           0x00440010        0x0 C:/Program Files/ETAS/ISOLAR-EVE3.5.0/plugins/com.etas.evetools.toolsfolder_3.5.5/Tools/MinGW/bin/../lib/gcc/i686-w64-mingw32/8.1.0/../../../../i686-w64-mingw32/lib/../lib/libkernel32.a(dgzcs01255.o)
 .bss           0x00440010        0x0 C:/Program Files/ETAS/ISOLAR-EVE3.5.0/plugins/com.etas.evetools.toolsfolder_3.5.5/Tools/MinGW/bin/../lib/gcc/i686-w64-mingw32/8.1.0/../../../../i686-w64-mingw32/lib/../lib/libkernel32.a(dgzcs01246.o)
 .bss           0x00440010        0x0 C:/Program Files/ETAS/ISOLAR-EVE3.5.0/plugins/com.etas.evetools.toolsfolder_3.5.5/Tools/MinGW/bin/../lib/gcc/i686-w64-mingw32/8.1.0/../../../../i686-w64-mingw32/lib/../lib/libkernel32.a(dgzcs01243.o)
 .bss           0x00440010        0x0 C:/Program Files/ETAS/ISOLAR-EVE3.5.0/plugins/com.etas.evetools.toolsfolder_3.5.5/Tools/MinGW/bin/../lib/gcc/i686-w64-mingw32/8.1.0/../../../../i686-w64-mingw32/lib/../lib/libkernel32.a(dgzcs01210.o)
 .bss           0x00440010        0x0 C:/Program Files/ETAS/ISOLAR-EVE3.5.0/plugins/com.etas.evetools.toolsfolder_3.5.5/Tools/MinGW/bin/../lib/gcc/i686-w64-mingw32/8.1.0/../../../../i686-w64-mingw32/lib/../lib/libkernel32.a(dgzcs01198.o)
 .bss           0x00440010        0x0 C:/Program Files/ETAS/ISOLAR-EVE3.5.0/plugins/com.etas.evetools.toolsfolder_3.5.5/Tools/MinGW/bin/../lib/gcc/i686-w64-mingw32/8.1.0/../../../../i686-w64-mingw32/lib/../lib/libkernel32.a(dgzcs01197.o)
 .bss           0x00440010        0x0 C:/Program Files/ETAS/ISOLAR-EVE3.5.0/plugins/com.etas.evetools.toolsfolder_3.5.5/Tools/MinGW/bin/../lib/gcc/i686-w64-mingw32/8.1.0/../../../../i686-w64-mingw32/lib/../lib/libkernel32.a(dgzcs01196.o)
 .bss           0x00440010        0x0 C:/Program Files/ETAS/ISOLAR-EVE3.5.0/plugins/com.etas.evetools.toolsfolder_3.5.5/Tools/MinGW/bin/../lib/gcc/i686-w64-mingw32/8.1.0/../../../../i686-w64-mingw32/lib/../lib/libkernel32.a(dgzcs01195.o)
 .bss           0x00440010        0x0 C:/Program Files/ETAS/ISOLAR-EVE3.5.0/plugins/com.etas.evetools.toolsfolder_3.5.5/Tools/MinGW/bin/../lib/gcc/i686-w64-mingw32/8.1.0/../../../../i686-w64-mingw32/lib/../lib/libkernel32.a(dgzcs01190.o)
 .bss           0x00440010        0x0 C:/Program Files/ETAS/ISOLAR-EVE3.5.0/plugins/com.etas.evetools.toolsfolder_3.5.5/Tools/MinGW/bin/../lib/gcc/i686-w64-mingw32/8.1.0/../../../../i686-w64-mingw32/lib/../lib/libkernel32.a(dgzcs01186.o)
 .bss           0x00440010        0x0 C:/Program Files/ETAS/ISOLAR-EVE3.5.0/plugins/com.etas.evetools.toolsfolder_3.5.5/Tools/MinGW/bin/../lib/gcc/i686-w64-mingw32/8.1.0/../../../../i686-w64-mingw32/lib/../lib/libkernel32.a(dgzcs01176.o)
 .bss           0x00440010        0x0 C:/Program Files/ETAS/ISOLAR-EVE3.5.0/plugins/com.etas.evetools.toolsfolder_3.5.5/Tools/MinGW/bin/../lib/gcc/i686-w64-mingw32/8.1.0/../../../../i686-w64-mingw32/lib/../lib/libkernel32.a(dgzcs01163.o)
 .bss           0x00440010        0x0 C:/Program Files/ETAS/ISOLAR-EVE3.5.0/plugins/com.etas.evetools.toolsfolder_3.5.5/Tools/MinGW/bin/../lib/gcc/i686-w64-mingw32/8.1.0/../../../../i686-w64-mingw32/lib/../lib/libkernel32.a(dgzcs01114.o)
 .bss           0x00440010        0x0 C:/Program Files/ETAS/ISOLAR-EVE3.5.0/plugins/com.etas.evetools.toolsfolder_3.5.5/Tools/MinGW/bin/../lib/gcc/i686-w64-mingw32/8.1.0/../../../../i686-w64-mingw32/lib/../lib/libkernel32.a(dgzcs00997.o)
 .bss           0x00440010        0x0 C:/Program Files/ETAS/ISOLAR-EVE3.5.0/plugins/com.etas.evetools.toolsfolder_3.5.5/Tools/MinGW/bin/../lib/gcc/i686-w64-mingw32/8.1.0/../../../../i686-w64-mingw32/lib/../lib/libkernel32.a(dgzcs00993.o)
 .bss           0x00440010        0x0 C:/Program Files/ETAS/ISOLAR-EVE3.5.0/plugins/com.etas.evetools.toolsfolder_3.5.5/Tools/MinGW/bin/../lib/gcc/i686-w64-mingw32/8.1.0/../../../../i686-w64-mingw32/lib/../lib/libkernel32.a(dgzcs00950.o)
 .bss           0x00440010        0x0 C:/Program Files/ETAS/ISOLAR-EVE3.5.0/plugins/com.etas.evetools.toolsfolder_3.5.5/Tools/MinGW/bin/../lib/gcc/i686-w64-mingw32/8.1.0/../../../../i686-w64-mingw32/lib/../lib/libkernel32.a(dgzcs00949.o)
 .bss           0x00440010        0x0 C:/Program Files/ETAS/ISOLAR-EVE3.5.0/plugins/com.etas.evetools.toolsfolder_3.5.5/Tools/MinGW/bin/../lib/gcc/i686-w64-mingw32/8.1.0/../../../../i686-w64-mingw32/lib/../lib/libkernel32.a(dgzcs00866.o)
 .bss           0x00440010        0x0 C:/Program Files/ETAS/ISOLAR-EVE3.5.0/plugins/com.etas.evetools.toolsfolder_3.5.5/Tools/MinGW/bin/../lib/gcc/i686-w64-mingw32/8.1.0/../../../../i686-w64-mingw32/lib/../lib/libkernel32.a(dgzcs00839.o)
 .bss           0x00440010        0x0 C:/Program Files/ETAS/ISOLAR-EVE3.5.0/plugins/com.etas.evetools.toolsfolder_3.5.5/Tools/MinGW/bin/../lib/gcc/i686-w64-mingw32/8.1.0/../../../../i686-w64-mingw32/lib/../lib/libkernel32.a(dgzcs00836.o)
 .bss           0x00440010        0x0 C:/Program Files/ETAS/ISOLAR-EVE3.5.0/plugins/com.etas.evetools.toolsfolder_3.5.5/Tools/MinGW/bin/../lib/gcc/i686-w64-mingw32/8.1.0/../../../../i686-w64-mingw32/lib/../lib/libkernel32.a(dgzcs00750.o)
 .bss           0x00440010        0x0 C:/Program Files/ETAS/ISOLAR-EVE3.5.0/plugins/com.etas.evetools.toolsfolder_3.5.5/Tools/MinGW/bin/../lib/gcc/i686-w64-mingw32/8.1.0/../../../../i686-w64-mingw32/lib/../lib/libkernel32.a(dgzcs00666.o)
 .bss           0x00440010        0x0 C:/Program Files/ETAS/ISOLAR-EVE3.5.0/plugins/com.etas.evetools.toolsfolder_3.5.5/Tools/MinGW/bin/../lib/gcc/i686-w64-mingw32/8.1.0/../../../../i686-w64-mingw32/lib/../lib/libkernel32.a(dgzcs00638.o)
 .bss           0x00440010        0x0 C:/Program Files/ETAS/ISOLAR-EVE3.5.0/plugins/com.etas.evetools.toolsfolder_3.5.5/Tools/MinGW/bin/../lib/gcc/i686-w64-mingw32/8.1.0/../../../../i686-w64-mingw32/lib/../lib/libkernel32.a(dgzcs00615.o)
 .bss           0x00440010        0x0 C:/Program Files/ETAS/ISOLAR-EVE3.5.0/plugins/com.etas.evetools.toolsfolder_3.5.5/Tools/MinGW/bin/../lib/gcc/i686-w64-mingw32/8.1.0/../../../../i686-w64-mingw32/lib/../lib/libkernel32.a(dgzcs00584.o)
 .bss           0x00440010        0x0 C:/Program Files/ETAS/ISOLAR-EVE3.5.0/plugins/com.etas.evetools.toolsfolder_3.5.5/Tools/MinGW/bin/../lib/gcc/i686-w64-mingw32/8.1.0/../../../../i686-w64-mingw32/lib/../lib/libkernel32.a(dgzcs00536.o)
 .bss           0x00440010        0x0 C:/Program Files/ETAS/ISOLAR-EVE3.5.0/plugins/com.etas.evetools.toolsfolder_3.5.5/Tools/MinGW/bin/../lib/gcc/i686-w64-mingw32/8.1.0/../../../../i686-w64-mingw32/lib/../lib/libkernel32.a(dgzcs00518.o)
 .bss           0x00440010        0x0 C:/Program Files/ETAS/ISOLAR-EVE3.5.0/plugins/com.etas.evetools.toolsfolder_3.5.5/Tools/MinGW/bin/../lib/gcc/i686-w64-mingw32/8.1.0/../../../../i686-w64-mingw32/lib/../lib/libkernel32.a(dgzcs00482.o)
 .bss           0x00440010        0x0 C:/Program Files/ETAS/ISOLAR-EVE3.5.0/plugins/com.etas.evetools.toolsfolder_3.5.5/Tools/MinGW/bin/../lib/gcc/i686-w64-mingw32/8.1.0/../../../../i686-w64-mingw32/lib/../lib/libkernel32.a(dgzcs00460.o)
 .bss           0x00440010        0x0 C:/Program Files/ETAS/ISOLAR-EVE3.5.0/plugins/com.etas.evetools.toolsfolder_3.5.5/Tools/MinGW/bin/../lib/gcc/i686-w64-mingw32/8.1.0/../../../../i686-w64-mingw32/lib/../lib/libkernel32.a(dgzcs00456.o)
 .bss           0x00440010        0x0 C:/Program Files/ETAS/ISOLAR-EVE3.5.0/plugins/com.etas.evetools.toolsfolder_3.5.5/Tools/MinGW/bin/../lib/gcc/i686-w64-mingw32/8.1.0/../../../../i686-w64-mingw32/lib/../lib/libkernel32.a(dgzcs00455.o)
 .bss           0x00440010        0x0 C:/Program Files/ETAS/ISOLAR-EVE3.5.0/plugins/com.etas.evetools.toolsfolder_3.5.5/Tools/MinGW/bin/../lib/gcc/i686-w64-mingw32/8.1.0/../../../../i686-w64-mingw32/lib/../lib/libkernel32.a(dgzcs00359.o)
 .bss           0x00440010        0x0 C:/Program Files/ETAS/ISOLAR-EVE3.5.0/plugins/com.etas.evetools.toolsfolder_3.5.5/Tools/MinGW/bin/../lib/gcc/i686-w64-mingw32/8.1.0/../../../../i686-w64-mingw32/lib/../lib/libkernel32.a(dgzcs00354.o)
 .bss           0x00440010        0x0 C:/Program Files/ETAS/ISOLAR-EVE3.5.0/plugins/com.etas.evetools.toolsfolder_3.5.5/Tools/MinGW/bin/../lib/gcc/i686-w64-mingw32/8.1.0/../../../../i686-w64-mingw32/lib/../lib/libkernel32.a(dgzcs00286.o)
 .bss           0x00440010        0x0 C:/Program Files/ETAS/ISOLAR-EVE3.5.0/plugins/com.etas.evetools.toolsfolder_3.5.5/Tools/MinGW/bin/../lib/gcc/i686-w64-mingw32/8.1.0/../../../../i686-w64-mingw32/lib/../lib/libkernel32.a(dgzcs00242.o)
 .bss           0x00440010        0x0 C:/Program Files/ETAS/ISOLAR-EVE3.5.0/plugins/com.etas.evetools.toolsfolder_3.5.5/Tools/MinGW/bin/../lib/gcc/i686-w64-mingw32/8.1.0/../../../../i686-w64-mingw32/lib/../lib/libkernel32.a(dgzcs00214.o)
 .bss           0x00440010        0x0 C:/Program Files/ETAS/ISOLAR-EVE3.5.0/plugins/com.etas.evetools.toolsfolder_3.5.5/Tools/MinGW/bin/../lib/gcc/i686-w64-mingw32/8.1.0/../../../../i686-w64-mingw32/lib/../lib/libkernel32.a(dgzcs00178.o)
 .bss           0x00440010        0x0 C:/Program Files/ETAS/ISOLAR-EVE3.5.0/plugins/com.etas.evetools.toolsfolder_3.5.5/Tools/MinGW/bin/../lib/gcc/i686-w64-mingw32/8.1.0/../../../../i686-w64-mingw32/lib/../lib/libkernel32.a(dgzcs00175.o)
 .bss           0x00440010        0x0 C:/Program Files/ETAS/ISOLAR-EVE3.5.0/plugins/com.etas.evetools.toolsfolder_3.5.5/Tools/MinGW/bin/../lib/gcc/i686-w64-mingw32/8.1.0/../../../../i686-w64-mingw32/lib/../lib/libkernel32.a(dgzcs00159.o)
 .bss           0x00440010        0x0 C:/Program Files/ETAS/ISOLAR-EVE3.5.0/plugins/com.etas.evetools.toolsfolder_3.5.5/Tools/MinGW/bin/../lib/gcc/i686-w64-mingw32/8.1.0/../../../../i686-w64-mingw32/lib/../lib/libkernel32.a(dgzcs00140.o)
 .bss           0x00440010        0x0 C:/Program Files/ETAS/ISOLAR-EVE3.5.0/plugins/com.etas.evetools.toolsfolder_3.5.5/Tools/MinGW/bin/../lib/gcc/i686-w64-mingw32/8.1.0/../../../../i686-w64-mingw32/lib/../lib/libkernel32.a(dgzcs00083.o)
 .bss           0x00440010        0x0 C:/Program Files/ETAS/ISOLAR-EVE3.5.0/plugins/com.etas.evetools.toolsfolder_3.5.5/Tools/MinGW/bin/../lib/gcc/i686-w64-mingw32/8.1.0/../../../../i686-w64-mingw32/lib/../lib/libkernel32.a(dgzch.o)
 .bss           0x00440010        0x0 C:/Program Files/ETAS/ISOLAR-EVE3.5.0/plugins/com.etas.evetools.toolsfolder_3.5.5/Tools/MinGW/bin/../lib/gcc/i686-w64-mingw32/8.1.0/../../../../i686-w64-mingw32/lib/../lib/libkernel32.a(dgzct.o)
 .bss           0x00440010        0x0 C:/Program Files/ETAS/ISOLAR-EVE3.5.0/plugins/com.etas.evetools.toolsfolder_3.5.5/Tools/MinGW/bin/../lib/gcc/i686-w64-mingw32/8.1.0/../../../../i686-w64-mingw32/lib/../lib/libmingw32.a(lib32_libmingw32_a-tlsmthread.o)
 .bss           0x00440010        0x0 C:/Program Files/ETAS/ISOLAR-EVE3.5.0/plugins/com.etas.evetools.toolsfolder_3.5.5/Tools/MinGW/bin/../lib/gcc/i686-w64-mingw32/8.1.0/crtend.o
 *(COMMON)
 COMMON         0x00440010        0x8 C:/Program Files/ETAS/ISOLAR-EVE3.5.0/plugins/com.etas.evetools.toolsfolder_3.5.5/Tools/MinGW/bin/../lib/gcc/i686-w64-mingw32/8.1.0/../../../../i686-w64-mingw32/lib/../lib/crt2.o
                0x00440010                __mingw_winmain_lpCmdLine
                0x00440014                __mingw_winmain_hInstance
 COMMON         0x00440018        0x4 C:/Program Files/ETAS/ISOLAR-EVE3.5.0/plugins/com.etas.evetools.toolsfolder_3.5.5/Tools/MinGW/bin/../lib/gcc/i686-w64-mingw32/8.1.0/crtbegin.o
                0x00440018                hmod_libgcc
 *fill*         0x0044001c        0x4 
 COMMON         0x00440020      0x4aa Rte.o
                0x00440020                Rte_Var_OsTask_1WaitingEv
                0x00440024                Rte_Var_OsTask_21WaitingEv
                0x00440028                Rte_Queue_CPT_SEN_BATT_COMP_CS_BATT_Receive_batt_sen_op_data
                0x00440029                Rte_Rx_000001_modedata
                0x00440040                Rte_Queue_CPT_ECU_ABS_CS_BATT_Server_batt_sen_op_data
                0x00440080                Rte_Queue_CPT_ECU_ABS_PCylinder_get_cylinder_Status_data
                0x004400a8                Rte_Queue_CPT_Engine_Cycle_ACT_Engine_Cleintport_set_engine_data
                0x004400a9                Rte_Queue_CPT_ACT_HYDRAULIC_MODULATOR_REARR_COMP_ACT_HM_RR_Client_set_E_op_data
                0x004400ac                Rte_Var_OsTask_3WaitingEv
                0x004400c0                Rte_Queue_CPT_ECU_ABS_ActSEngine_set_engine_data
                0x00440120                Rte_Queue_CPT_ECU_ABS_PHMRearR_set_E_op_data
                0x00440170                Rte_Queue_CPT_BrakePedalSen_RPort_get_BrakePedal_Status_data
                0x00440171                Rte_Rx_000013_brake_value
                0x00440174                Rte_Rx_000008_backright
                0x00440178                Rte_Rx_000016_temperature
                0x0044017c                Rte_Rx_000006_frontright
                0x00440180                Rte_Var_OsTask_7WaitingEv
                0x00440184                Rte_Rx_000009_batt_data
                0x00440188                Rte_Rx_000018_infoArray
                0x0044018d                Rte_Queue_CPT_AccelPedalSen_RPort_get_AccelPedal_Status_data
                0x00440190                Rte_Var_OsTask_11WaitingEv
                0x00440194                Rte_Rx_000004_motor_speed_data
                0x00440198                Rte_Rx_000007_backleft
                0x0044019c                Rte_Var_OsTask_10WaitingEv
                0x004401a0                Rte_Rx_000005_frontleft
                0x004401a8                Rte_Rx_000012_avg_speed_data
                0x004401b0                Rte_Rx_000003_modedata
                0x004401b1                Rte_Rx_000014_gear_value
                0x004401b4                Rte_Queue_CPT_SpeedSen_RPort_get_Tire_RPM_data
                0x004401bc                Rte_Queue_CPT_GearModeSen_RPort_get_Gear_Mode_data
                0x004401bd                Rte_Rx_000010_pwm_data
                0x004401c0                Rte_Rx_000015_pressure
                0x004401c4                Rte_Var_OsTask_19WaitingEv
                0x004401e0                Rte_Queue_CPT_ECU_ABS_PBrakePedal_get_BrakePedal_Status_data
                0x00440220                Rte_Queue_CPT_ECU_ABS_PTireRPM_get_Tire_RPM_data
                0x00440260                Rte_Queue_CPT_ECU_ABS_ActSGear_set_phygear_data
                0x004402c0                Rte_Queue_CPT_ECU_ABS_PHMFrontL_set_E_op_data
                0x00440310                Rte_Var_OsTask_15WaitingEv
                0x00440320                Rte_Queue_CPT_ECU_ABS_CS_MOTOR_Server_motor_act_op_data
                0x00440380                Rte_Queue_CPT_ECU_ABS_PHMFrontR_set_E_op_data
                0x004403d0                Rte_Var_OsTask_04WaitingEv
                0x004403d4                Rte_Rx_000017_powerValue
                0x004403d8                Rte_Var_OsTask_23WaitingEv
                0x004403dc                Rte_Rx_000011_accel_value
                0x004403dd                Rte_Queue_CPT_ACT_MOTOR_COMP_CS_MOTOR_Client_motor_act_op_data
                0x004403de                Rte_Rx_000002_modedata
                0x004403e0                Rte_Var_OsTask_12WaitingEv
                0x004403e4                Rte_Queue_CPT_Cylinder_Sen_Rport_get_cylinder_Status_data
                0x004403e8                Rte_Var_OsTask_20WaitingEv
                0x00440400                Rte_Queue_CPT_ECU_ABS_PHMRearL_set_E_op_data
                0x00440450                Rte_Var_OsTask_6WaitingEv
                0x00440454                Rte_Queue_CPT_ACT_HYDRAULIC_MODULATOR_REARL_COMP_ACT_HM_RL_Client_set_E_op_data
                0x00440455                Rte_Queue_CPT_ACT_HYDRAULIC_MODULATOR_FRONTL_COMP_ACT_HM_FL_Client_set_E_op_data
                0x00440456                Rte_Rx_000000_modedata
                0x00440458                Rte_Var_OsTask_14WaitingEv
                0x00440460                Rte_Queue_CPT_ECU_ABS_PGearMode_get_Gear_Mode_data
                0x004404a0                Rte_Queue_CPT_ECU_ABS_PAccelPedal_get_AccelPedal_Status_data
                0x004404c8                Rte_Queue_CPT_ACT_HYDRAULIC_MODULATOR_FRONTR_COMP_ACT_HM_FR_Client_set_E_op_data
                0x004404c9                Rte_Queue_CPT_Engine_Gear_ACT_phyGear_relayPport_set_phygear_data
 *fill*         0x004404ca        0x2 
 COMMON         0x004404cc        0x8 Rte_APP_MOTOR_COMP.o
                0x004404cc                batt_stat
                0x004404d0                pwm
 COMMON         0x004404d4       0x20 Rte_SEN_BATT_COMP.o
                0x004404d4                isArrFull
                0x004404d8                idx
                0x004404dc                arr
 *fill*         0x004404f4        0xc 
 COMMON         0x00440500      0xe4c RTAOS.lib(Os_Cfg.o)
                0x00440500                Os_dyn_alarms
                0x004405e0                Os_RunningISR
                0x004405e4                Os_ReadyTasks
                0x004405e8                Os_dyn_fifocontrol
                0x004405f8                Os_WaitingTasks
                0x004405fc                Os_dyn_scheduletables
                0x00440620                Os_TaskFifo
                0x00440698                Os_dyn_isrs
                0x004406a4                Os_CurrentAppMode
                0x004406a8                Os_WaitSP
                0x004406c0                Os_dyn_ecc
                0x00440f10                Os_IdleMeter
                0x00440f18                Os_CurrentMeteredObject
                0x00440f1c                Os_OrtiApiID
                0x00440f20                Os_ChainTaskRef
                0x00440f24                Os_dyn_counters
                0x00440f2c                Os_GetStackValueAdjust
                0x00440f30                Os_dyn_resources
                0x00440f40                Os_StackBase
                0x00440f44                Os_VCoreIsUntrusted
                0x00440f48                Os_RunningTask
                0x00440f4c                Os_InShutdownHook
                0x00440f4d                Os_OrtiLastError
                0x00440f60                Os_dyn_tasks
                0x00441348                Os_RunningTPMask
 COMMON         0x0044134c        0x8 RTAOS.lib(SuspendOSInterrupts.o)
                0x0044134c                Os_SuspendOSCount
                0x00441350                Os_SuspendOSImask
 *fill*         0x00441354        0xc 
 COMMON         0x00441360       0x4a RTAOS.lib(vrtaAppMain.o)
                0x00441360                Os_ICUForInterruptVector
                0x004413a4                VRTA_DEBUG_DEFER_INTERRUPTS
                0x004413a8                Os_ICUForCore
 *fill*         0x004413aa        0x2 
 COMMON         0x004413ac        0x8 C:/Program Files/ETAS/ISOLAR-EVE3.5.0/plugins/com.etas.evetools.toolsfolder_3.5.5/Tools/MinGW/bin/../lib/gcc/i686-w64-mingw32/8.1.0/../../../../i686-w64-mingw32/lib/../lib/libmingw32.a(lib32_libmingw32_a-natstart.o)
                0x004413ac                __native_startup_lock
                0x004413b0                __native_startup_state
 COMMON         0x004413b4        0x0 C:/Program Files/ETAS/ISOLAR-EVE3.5.0/plugins/com.etas.evetools.toolsfolder_3.5.5/Tools/MinGW/bin/../lib/gcc/i686-w64-mingw32/8.1.0/libgcc.a(_ctors.o)
                0x004413b4                __bss_end__ = .

.edata
 *(.edata)

/DISCARD/
 *(.debug$S)
 *(.debug$T)
 *(.debug$F)
 *(.drectve)
 *(.note.GNU-stack)
 *(.gnu.lto_*)

.idata          0x00442000      0xa00
 SORT_BY_NAME(*)(.idata$2)
 .idata$2       0x00442000       0x14 C:/Program Files/ETAS/ISOLAR-EVE3.5.0/plugins/com.etas.evetools.toolsfolder_3.5.5/Tools/MinGW/bin/../lib/gcc/i686-w64-mingw32/8.1.0/../../../../i686-w64-mingw32/lib/../lib/libkernel32.a(dgzch.o)
                0x00442000                _head_lib32_libkernel32_a
 .idata$2       0x00442014       0x14 C:/Program Files/ETAS/ISOLAR-EVE3.5.0/plugins/com.etas.evetools.toolsfolder_3.5.5/Tools/MinGW/bin/../lib/gcc/i686-w64-mingw32/8.1.0/../../../../i686-w64-mingw32/lib/../lib/libmsvcrt.a(dwbeh.o)
                0x00442014                _head_lib32_libmsvcrt_os_a
 .idata$2       0x00442028       0x14 C:/Program Files/ETAS/ISOLAR-EVE3.5.0/plugins/com.etas.evetools.toolsfolder_3.5.5/Tools/MinGW/bin/../lib/gcc/i686-w64-mingw32/8.1.0/../../../../i686-w64-mingw32/lib/../lib/libuser32.a(dmceh.o)
                0x00442028                _head_lib32_libuser32_a
 .idata$2       0x0044203c       0x14 C:/Program Files/ETAS/ISOLAR-EVE3.5.0/plugins/com.etas.evetools.toolsfolder_3.5.5/Tools/MinGW/bin/../lib/gcc/i686-w64-mingw32/8.1.0/../../../../i686-w64-mingw32/lib/../lib/libwinmm.a(dcnfh.o)
                0x0044203c                _head_lib32_libwinmm_a
 SORT_BY_NAME(*)(.idata$3)
                0x00442050        0x4 LONG 0x0
                0x00442054        0x4 LONG 0x0
                0x00442058        0x4 LONG 0x0
                0x0044205c        0x4 LONG 0x0
                0x00442060        0x4 LONG 0x0
 SORT_BY_NAME(*)(.idata$4)
 .idata$4       0x00442064        0x0 C:/Program Files/ETAS/ISOLAR-EVE3.5.0/plugins/com.etas.evetools.toolsfolder_3.5.5/Tools/MinGW/bin/../lib/gcc/i686-w64-mingw32/8.1.0/../../../../i686-w64-mingw32/lib/../lib/libkernel32.a(dgzch.o)
 .idata$4       0x00442064        0x4 C:/Program Files/ETAS/ISOLAR-EVE3.5.0/plugins/com.etas.evetools.toolsfolder_3.5.5/Tools/MinGW/bin/../lib/gcc/i686-w64-mingw32/8.1.0/../../../../i686-w64-mingw32/lib/../lib/libkernel32.a(dgzcs00083.o)
 .idata$4       0x00442068        0x4 C:/Program Files/ETAS/ISOLAR-EVE3.5.0/plugins/com.etas.evetools.toolsfolder_3.5.5/Tools/MinGW/bin/../lib/gcc/i686-w64-mingw32/8.1.0/../../../../i686-w64-mingw32/lib/../lib/libkernel32.a(dgzcs00140.o)
 .idata$4       0x0044206c        0x4 C:/Program Files/ETAS/ISOLAR-EVE3.5.0/plugins/com.etas.evetools.toolsfolder_3.5.5/Tools/MinGW/bin/../lib/gcc/i686-w64-mingw32/8.1.0/../../../../i686-w64-mingw32/lib/../lib/libkernel32.a(dgzcs00159.o)
 .idata$4       0x00442070        0x4 C:/Program Files/ETAS/ISOLAR-EVE3.5.0/plugins/com.etas.evetools.toolsfolder_3.5.5/Tools/MinGW/bin/../lib/gcc/i686-w64-mingw32/8.1.0/../../../../i686-w64-mingw32/lib/../lib/libkernel32.a(dgzcs00175.o)
 .idata$4       0x00442074        0x4 C:/Program Files/ETAS/ISOLAR-EVE3.5.0/plugins/com.etas.evetools.toolsfolder_3.5.5/Tools/MinGW/bin/../lib/gcc/i686-w64-mingw32/8.1.0/../../../../i686-w64-mingw32/lib/../lib/libkernel32.a(dgzcs00178.o)
 .idata$4       0x00442078        0x4 C:/Program Files/ETAS/ISOLAR-EVE3.5.0/plugins/com.etas.evetools.toolsfolder_3.5.5/Tools/MinGW/bin/../lib/gcc/i686-w64-mingw32/8.1.0/../../../../i686-w64-mingw32/lib/../lib/libkernel32.a(dgzcs00214.o)
 .idata$4       0x0044207c        0x4 C:/Program Files/ETAS/ISOLAR-EVE3.5.0/plugins/com.etas.evetools.toolsfolder_3.5.5/Tools/MinGW/bin/../lib/gcc/i686-w64-mingw32/8.1.0/../../../../i686-w64-mingw32/lib/../lib/libkernel32.a(dgzcs00242.o)
 .idata$4       0x00442080        0x4 C:/Program Files/ETAS/ISOLAR-EVE3.5.0/plugins/com.etas.evetools.toolsfolder_3.5.5/Tools/MinGW/bin/../lib/gcc/i686-w64-mingw32/8.1.0/../../../../i686-w64-mingw32/lib/../lib/libkernel32.a(dgzcs00286.o)
 .idata$4       0x00442084        0x4 C:/Program Files/ETAS/ISOLAR-EVE3.5.0/plugins/com.etas.evetools.toolsfolder_3.5.5/Tools/MinGW/bin/../lib/gcc/i686-w64-mingw32/8.1.0/../../../../i686-w64-mingw32/lib/../lib/libkernel32.a(dgzcs00354.o)
 .idata$4       0x00442088        0x4 C:/Program Files/ETAS/ISOLAR-EVE3.5.0/plugins/com.etas.evetools.toolsfolder_3.5.5/Tools/MinGW/bin/../lib/gcc/i686-w64-mingw32/8.1.0/../../../../i686-w64-mingw32/lib/../lib/libkernel32.a(dgzcs00359.o)
 .idata$4       0x0044208c        0x4 C:/Program Files/ETAS/ISOLAR-EVE3.5.0/plugins/com.etas.evetools.toolsfolder_3.5.5/Tools/MinGW/bin/../lib/gcc/i686-w64-mingw32/8.1.0/../../../../i686-w64-mingw32/lib/../lib/libkernel32.a(dgzcs00455.o)
 .idata$4       0x00442090        0x4 C:/Program Files/ETAS/ISOLAR-EVE3.5.0/plugins/com.etas.evetools.toolsfolder_3.5.5/Tools/MinGW/bin/../lib/gcc/i686-w64-mingw32/8.1.0/../../../../i686-w64-mingw32/lib/../lib/libkernel32.a(dgzcs00456.o)
 .idata$4       0x00442094        0x4 C:/Program Files/ETAS/ISOLAR-EVE3.5.0/plugins/com.etas.evetools.toolsfolder_3.5.5/Tools/MinGW/bin/../lib/gcc/i686-w64-mingw32/8.1.0/../../../../i686-w64-mingw32/lib/../lib/libkernel32.a(dgzcs00460.o)
 .idata$4       0x00442098        0x4 C:/Program Files/ETAS/ISOLAR-EVE3.5.0/plugins/com.etas.evetools.toolsfolder_3.5.5/Tools/MinGW/bin/../lib/gcc/i686-w64-mingw32/8.1.0/../../../../i686-w64-mingw32/lib/../lib/libkernel32.a(dgzcs00482.o)
 .idata$4       0x0044209c        0x4 C:/Program Files/ETAS/ISOLAR-EVE3.5.0/plugins/com.etas.evetools.toolsfolder_3.5.5/Tools/MinGW/bin/../lib/gcc/i686-w64-mingw32/8.1.0/../../../../i686-w64-mingw32/lib/../lib/libkernel32.a(dgzcs00518.o)
 .idata$4       0x004420a0        0x4 C:/Program Files/ETAS/ISOLAR-EVE3.5.0/plugins/com.etas.evetools.toolsfolder_3.5.5/Tools/MinGW/bin/../lib/gcc/i686-w64-mingw32/8.1.0/../../../../i686-w64-mingw32/lib/../lib/libkernel32.a(dgzcs00536.o)
 .idata$4       0x004420a4        0x4 C:/Program Files/ETAS/ISOLAR-EVE3.5.0/plugins/com.etas.evetools.toolsfolder_3.5.5/Tools/MinGW/bin/../lib/gcc/i686-w64-mingw32/8.1.0/../../../../i686-w64-mingw32/lib/../lib/libkernel32.a(dgzcs00584.o)
 .idata$4       0x004420a8        0x4 C:/Program Files/ETAS/ISOLAR-EVE3.5.0/plugins/com.etas.evetools.toolsfolder_3.5.5/Tools/MinGW/bin/../lib/gcc/i686-w64-mingw32/8.1.0/../../../../i686-w64-mingw32/lib/../lib/libkernel32.a(dgzcs00615.o)
 .idata$4       0x004420ac        0x4 C:/Program Files/ETAS/ISOLAR-EVE3.5.0/plugins/com.etas.evetools.toolsfolder_3.5.5/Tools/MinGW/bin/../lib/gcc/i686-w64-mingw32/8.1.0/../../../../i686-w64-mingw32/lib/../lib/libkernel32.a(dgzcs00638.o)
 .idata$4       0x004420b0        0x4 C:/Program Files/ETAS/ISOLAR-EVE3.5.0/plugins/com.etas.evetools.toolsfolder_3.5.5/Tools/MinGW/bin/../lib/gcc/i686-w64-mingw32/8.1.0/../../../../i686-w64-mingw32/lib/../lib/libkernel32.a(dgzcs00666.o)
 .idata$4       0x004420b4        0x4 C:/Program Files/ETAS/ISOLAR-EVE3.5.0/plugins/com.etas.evetools.toolsfolder_3.5.5/Tools/MinGW/bin/../lib/gcc/i686-w64-mingw32/8.1.0/../../../../i686-w64-mingw32/lib/../lib/libkernel32.a(dgzcs00750.o)
 .idata$4       0x004420b8        0x4 C:/Program Files/ETAS/ISOLAR-EVE3.5.0/plugins/com.etas.evetools.toolsfolder_3.5.5/Tools/MinGW/bin/../lib/gcc/i686-w64-mingw32/8.1.0/../../../../i686-w64-mingw32/lib/../lib/libkernel32.a(dgzcs00836.o)
 .idata$4       0x004420bc        0x4 C:/Program Files/ETAS/ISOLAR-EVE3.5.0/plugins/com.etas.evetools.toolsfolder_3.5.5/Tools/MinGW/bin/../lib/gcc/i686-w64-mingw32/8.1.0/../../../../i686-w64-mingw32/lib/../lib/libkernel32.a(dgzcs00839.o)
 .idata$4       0x004420c0        0x4 C:/Program Files/ETAS/ISOLAR-EVE3.5.0/plugins/com.etas.evetools.toolsfolder_3.5.5/Tools/MinGW/bin/../lib/gcc/i686-w64-mingw32/8.1.0/../../../../i686-w64-mingw32/lib/../lib/libkernel32.a(dgzcs00866.o)
 .idata$4       0x004420c4        0x4 C:/Program Files/ETAS/ISOLAR-EVE3.5.0/plugins/com.etas.evetools.toolsfolder_3.5.5/Tools/MinGW/bin/../lib/gcc/i686-w64-mingw32/8.1.0/../../../../i686-w64-mingw32/lib/../lib/libkernel32.a(dgzcs00949.o)
 .idata$4       0x004420c8        0x4 C:/Program Files/ETAS/ISOLAR-EVE3.5.0/plugins/com.etas.evetools.toolsfolder_3.5.5/Tools/MinGW/bin/../lib/gcc/i686-w64-mingw32/8.1.0/../../../../i686-w64-mingw32/lib/../lib/libkernel32.a(dgzcs00950.o)
 .idata$4       0x004420cc        0x4 C:/Program Files/ETAS/ISOLAR-EVE3.5.0/plugins/com.etas.evetools.toolsfolder_3.5.5/Tools/MinGW/bin/../lib/gcc/i686-w64-mingw32/8.1.0/../../../../i686-w64-mingw32/lib/../lib/libkernel32.a(dgzcs00993.o)
 .idata$4       0x004420d0        0x4 C:/Program Files/ETAS/ISOLAR-EVE3.5.0/plugins/com.etas.evetools.toolsfolder_3.5.5/Tools/MinGW/bin/../lib/gcc/i686-w64-mingw32/8.1.0/../../../../i686-w64-mingw32/lib/../lib/libkernel32.a(dgzcs00997.o)
 .idata$4       0x004420d4        0x4 C:/Program Files/ETAS/ISOLAR-EVE3.5.0/plugins/com.etas.evetools.toolsfolder_3.5.5/Tools/MinGW/bin/../lib/gcc/i686-w64-mingw32/8.1.0/../../../../i686-w64-mingw32/lib/../lib/libkernel32.a(dgzcs01114.o)
 .idata$4       0x004420d8        0x4 C:/Program Files/ETAS/ISOLAR-EVE3.5.0/plugins/com.etas.evetools.toolsfolder_3.5.5/Tools/MinGW/bin/../lib/gcc/i686-w64-mingw32/8.1.0/../../../../i686-w64-mingw32/lib/../lib/libkernel32.a(dgzcs01163.o)
 .idata$4       0x004420dc        0x4 C:/Program Files/ETAS/ISOLAR-EVE3.5.0/plugins/com.etas.evetools.toolsfolder_3.5.5/Tools/MinGW/bin/../lib/gcc/i686-w64-mingw32/8.1.0/../../../../i686-w64-mingw32/lib/../lib/libkernel32.a(dgzcs01176.o)
 .idata$4       0x004420e0        0x4 C:/Program Files/ETAS/ISOLAR-EVE3.5.0/plugins/com.etas.evetools.toolsfolder_3.5.5/Tools/MinGW/bin/../lib/gcc/i686-w64-mingw32/8.1.0/../../../../i686-w64-mingw32/lib/../lib/libkernel32.a(dgzcs01186.o)
 .idata$4       0x004420e4        0x4 C:/Program Files/ETAS/ISOLAR-EVE3.5.0/plugins/com.etas.evetools.toolsfolder_3.5.5/Tools/MinGW/bin/../lib/gcc/i686-w64-mingw32/8.1.0/../../../../i686-w64-mingw32/lib/../lib/libkernel32.a(dgzcs01190.o)
 .idata$4       0x004420e8        0x4 C:/Program Files/ETAS/ISOLAR-EVE3.5.0/plugins/com.etas.evetools.toolsfolder_3.5.5/Tools/MinGW/bin/../lib/gcc/i686-w64-mingw32/8.1.0/../../../../i686-w64-mingw32/lib/../lib/libkernel32.a(dgzcs01195.o)
 .idata$4       0x004420ec        0x4 C:/Program Files/ETAS/ISOLAR-EVE3.5.0/plugins/com.etas.evetools.toolsfolder_3.5.5/Tools/MinGW/bin/../lib/gcc/i686-w64-mingw32/8.1.0/../../../../i686-w64-mingw32/lib/../lib/libkernel32.a(dgzcs01196.o)
 .idata$4       0x004420f0        0x4 C:/Program Files/ETAS/ISOLAR-EVE3.5.0/plugins/com.etas.evetools.toolsfolder_3.5.5/Tools/MinGW/bin/../lib/gcc/i686-w64-mingw32/8.1.0/../../../../i686-w64-mingw32/lib/../lib/libkernel32.a(dgzcs01197.o)
 .idata$4       0x004420f4        0x4 C:/Program Files/ETAS/ISOLAR-EVE3.5.0/plugins/com.etas.evetools.toolsfolder_3.5.5/Tools/MinGW/bin/../lib/gcc/i686-w64-mingw32/8.1.0/../../../../i686-w64-mingw32/lib/../lib/libkernel32.a(dgzcs01198.o)
 .idata$4       0x004420f8        0x4 C:/Program Files/ETAS/ISOLAR-EVE3.5.0/plugins/com.etas.evetools.toolsfolder_3.5.5/Tools/MinGW/bin/../lib/gcc/i686-w64-mingw32/8.1.0/../../../../i686-w64-mingw32/lib/../lib/libkernel32.a(dgzcs01210.o)
 .idata$4       0x004420fc        0x4 C:/Program Files/ETAS/ISOLAR-EVE3.5.0/plugins/com.etas.evetools.toolsfolder_3.5.5/Tools/MinGW/bin/../lib/gcc/i686-w64-mingw32/8.1.0/../../../../i686-w64-mingw32/lib/../lib/libkernel32.a(dgzcs01243.o)
 .idata$4       0x00442100        0x4 C:/Program Files/ETAS/ISOLAR-EVE3.5.0/plugins/com.etas.evetools.toolsfolder_3.5.5/Tools/MinGW/bin/../lib/gcc/i686-w64-mingw32/8.1.0/../../../../i686-w64-mingw32/lib/../lib/libkernel32.a(dgzcs01246.o)
 .idata$4       0x00442104        0x4 C:/Program Files/ETAS/ISOLAR-EVE3.5.0/plugins/com.etas.evetools.toolsfolder_3.5.5/Tools/MinGW/bin/../lib/gcc/i686-w64-mingw32/8.1.0/../../../../i686-w64-mingw32/lib/../lib/libkernel32.a(dgzcs01255.o)
 .idata$4       0x00442108        0x4 C:/Program Files/ETAS/ISOLAR-EVE3.5.0/plugins/com.etas.evetools.toolsfolder_3.5.5/Tools/MinGW/bin/../lib/gcc/i686-w64-mingw32/8.1.0/../../../../i686-w64-mingw32/lib/../lib/libkernel32.a(dgzct.o)
 .idata$4       0x0044210c        0x0 C:/Program Files/ETAS/ISOLAR-EVE3.5.0/plugins/com.etas.evetools.toolsfolder_3.5.5/Tools/MinGW/bin/../lib/gcc/i686-w64-mingw32/8.1.0/../../../../i686-w64-mingw32/lib/../lib/libmsvcrt.a(dwbeh.o)
 .idata$4       0x0044210c        0x4 C:/Program Files/ETAS/ISOLAR-EVE3.5.0/plugins/com.etas.evetools.toolsfolder_3.5.5/Tools/MinGW/bin/../lib/gcc/i686-w64-mingw32/8.1.0/../../../../i686-w64-mingw32/lib/../lib/libmsvcrt.a(dwbes00058.o)
 .idata$4       0x00442110        0x4 C:/Program Files/ETAS/ISOLAR-EVE3.5.0/plugins/com.etas.evetools.toolsfolder_3.5.5/Tools/MinGW/bin/../lib/gcc/i686-w64-mingw32/8.1.0/../../../../i686-w64-mingw32/lib/../lib/libmsvcrt.a(dwbes00059.o)
 .idata$4       0x00442114        0x4 C:/Program Files/ETAS/ISOLAR-EVE3.5.0/plugins/com.etas.evetools.toolsfolder_3.5.5/Tools/MinGW/bin/../lib/gcc/i686-w64-mingw32/8.1.0/../../../../i686-w64-mingw32/lib/../lib/libmsvcrt.a(dwbes00068.o)
 .idata$4       0x00442118        0x4 C:/Program Files/ETAS/ISOLAR-EVE3.5.0/plugins/com.etas.evetools.toolsfolder_3.5.5/Tools/MinGW/bin/../lib/gcc/i686-w64-mingw32/8.1.0/../../../../i686-w64-mingw32/lib/../lib/libmsvcrt.a(dwbes00076.o)
 .idata$4       0x0044211c        0x4 C:/Program Files/ETAS/ISOLAR-EVE3.5.0/plugins/com.etas.evetools.toolsfolder_3.5.5/Tools/MinGW/bin/../lib/gcc/i686-w64-mingw32/8.1.0/../../../../i686-w64-mingw32/lib/../lib/libmsvcrt.a(dwbes00083.o)
 .idata$4       0x00442120        0x4 C:/Program Files/ETAS/ISOLAR-EVE3.5.0/plugins/com.etas.evetools.toolsfolder_3.5.5/Tools/MinGW/bin/../lib/gcc/i686-w64-mingw32/8.1.0/../../../../i686-w64-mingw32/lib/../lib/libmsvcrt.a(dwbes00104.o)
 .idata$4       0x00442124        0x4 C:/Program Files/ETAS/ISOLAR-EVE3.5.0/plugins/com.etas.evetools.toolsfolder_3.5.5/Tools/MinGW/bin/../lib/gcc/i686-w64-mingw32/8.1.0/../../../../i686-w64-mingw32/lib/../lib/libmsvcrt.a(dwbes00107.o)
 .idata$4       0x00442128        0x4 C:/Program Files/ETAS/ISOLAR-EVE3.5.0/plugins/com.etas.evetools.toolsfolder_3.5.5/Tools/MinGW/bin/../lib/gcc/i686-w64-mingw32/8.1.0/../../../../i686-w64-mingw32/lib/../lib/libmsvcrt.a(dwbes00144.o)
 .idata$4       0x0044212c        0x4 C:/Program Files/ETAS/ISOLAR-EVE3.5.0/plugins/com.etas.evetools.toolsfolder_3.5.5/Tools/MinGW/bin/../lib/gcc/i686-w64-mingw32/8.1.0/../../../../i686-w64-mingw32/lib/../lib/libmsvcrt.a(dwbes00161.o)
 .idata$4       0x00442130        0x4 C:/Program Files/ETAS/ISOLAR-EVE3.5.0/plugins/com.etas.evetools.toolsfolder_3.5.5/Tools/MinGW/bin/../lib/gcc/i686-w64-mingw32/8.1.0/../../../../i686-w64-mingw32/lib/../lib/libmsvcrt.a(dwbes00351.o)
 .idata$4       0x00442134        0x4 C:/Program Files/ETAS/ISOLAR-EVE3.5.0/plugins/com.etas.evetools.toolsfolder_3.5.5/Tools/MinGW/bin/../lib/gcc/i686-w64-mingw32/8.1.0/../../../../i686-w64-mingw32/lib/../lib/libmsvcrt.a(dwbes00355.o)
 .idata$4       0x00442138        0x4 C:/Program Files/ETAS/ISOLAR-EVE3.5.0/plugins/com.etas.evetools.toolsfolder_3.5.5/Tools/MinGW/bin/../lib/gcc/i686-w64-mingw32/8.1.0/../../../../i686-w64-mingw32/lib/../lib/libmsvcrt.a(dwbes00629.o)
 .idata$4       0x0044213c        0x4 C:/Program Files/ETAS/ISOLAR-EVE3.5.0/plugins/com.etas.evetools.toolsfolder_3.5.5/Tools/MinGW/bin/../lib/gcc/i686-w64-mingw32/8.1.0/../../../../i686-w64-mingw32/lib/../lib/libmsvcrt.a(dwbes01010.o)
 .idata$4       0x00442140        0x4 C:/Program Files/ETAS/ISOLAR-EVE3.5.0/plugins/com.etas.evetools.toolsfolder_3.5.5/Tools/MinGW/bin/../lib/gcc/i686-w64-mingw32/8.1.0/../../../../i686-w64-mingw32/lib/../lib/libmsvcrt.a(dwbes01057.o)
 .idata$4       0x00442144        0x4 C:/Program Files/ETAS/ISOLAR-EVE3.5.0/plugins/com.etas.evetools.toolsfolder_3.5.5/Tools/MinGW/bin/../lib/gcc/i686-w64-mingw32/8.1.0/../../../../i686-w64-mingw32/lib/../lib/libmsvcrt.a(dwbes01066.o)
 .idata$4       0x00442148        0x4 C:/Program Files/ETAS/ISOLAR-EVE3.5.0/plugins/com.etas.evetools.toolsfolder_3.5.5/Tools/MinGW/bin/../lib/gcc/i686-w64-mingw32/8.1.0/../../../../i686-w64-mingw32/lib/../lib/libmsvcrt.a(dwbes01076.o)
 .idata$4       0x0044214c        0x4 C:/Program Files/ETAS/ISOLAR-EVE3.5.0/plugins/com.etas.evetools.toolsfolder_3.5.5/Tools/MinGW/bin/../lib/gcc/i686-w64-mingw32/8.1.0/../../../../i686-w64-mingw32/lib/../lib/libmsvcrt.a(dwbes01081.o)
 .idata$4       0x00442150        0x4 C:/Program Files/ETAS/ISOLAR-EVE3.5.0/plugins/com.etas.evetools.toolsfolder_3.5.5/Tools/MinGW/bin/../lib/gcc/i686-w64-mingw32/8.1.0/../../../../i686-w64-mingw32/lib/../lib/libmsvcrt.a(dwbes01084.o)
 .idata$4       0x00442154        0x4 C:/Program Files/ETAS/ISOLAR-EVE3.5.0/plugins/com.etas.evetools.toolsfolder_3.5.5/Tools/MinGW/bin/../lib/gcc/i686-w64-mingw32/8.1.0/../../../../i686-w64-mingw32/lib/../lib/libmsvcrt.a(dwbes01087.o)
 .idata$4       0x00442158        0x4 C:/Program Files/ETAS/ISOLAR-EVE3.5.0/plugins/com.etas.evetools.toolsfolder_3.5.5/Tools/MinGW/bin/../lib/gcc/i686-w64-mingw32/8.1.0/../../../../i686-w64-mingw32/lib/../lib/libmsvcrt.a(dwbes01095.o)
 .idata$4       0x0044215c        0x4 C:/Program Files/ETAS/ISOLAR-EVE3.5.0/plugins/com.etas.evetools.toolsfolder_3.5.5/Tools/MinGW/bin/../lib/gcc/i686-w64-mingw32/8.1.0/../../../../i686-w64-mingw32/lib/../lib/libmsvcrt.a(dwbes01097.o)
 .idata$4       0x00442160        0x4 C:/Program Files/ETAS/ISOLAR-EVE3.5.0/plugins/com.etas.evetools.toolsfolder_3.5.5/Tools/MinGW/bin/../lib/gcc/i686-w64-mingw32/8.1.0/../../../../i686-w64-mingw32/lib/../lib/libmsvcrt.a(dwbes01099.o)
 .idata$4       0x00442164        0x4 C:/Program Files/ETAS/ISOLAR-EVE3.5.0/plugins/com.etas.evetools.toolsfolder_3.5.5/Tools/MinGW/bin/../lib/gcc/i686-w64-mingw32/8.1.0/../../../../i686-w64-mingw32/lib/../lib/libmsvcrt.a(dwbes01100.o)
 .idata$4       0x00442168        0x4 C:/Program Files/ETAS/ISOLAR-EVE3.5.0/plugins/com.etas.evetools.toolsfolder_3.5.5/Tools/MinGW/bin/../lib/gcc/i686-w64-mingw32/8.1.0/../../../../i686-w64-mingw32/lib/../lib/libmsvcrt.a(dwbes01104.o)
 .idata$4       0x0044216c        0x4 C:/Program Files/ETAS/ISOLAR-EVE3.5.0/plugins/com.etas.evetools.toolsfolder_3.5.5/Tools/MinGW/bin/../lib/gcc/i686-w64-mingw32/8.1.0/../../../../i686-w64-mingw32/lib/../lib/libmsvcrt.a(dwbes01118.o)
 .idata$4       0x00442170        0x4 C:/Program Files/ETAS/ISOLAR-EVE3.5.0/plugins/com.etas.evetools.toolsfolder_3.5.5/Tools/MinGW/bin/../lib/gcc/i686-w64-mingw32/8.1.0/../../../../i686-w64-mingw32/lib/../lib/libmsvcrt.a(dwbes01163.o)
 .idata$4       0x00442174        0x4 C:/Program Files/ETAS/ISOLAR-EVE3.5.0/plugins/com.etas.evetools.toolsfolder_3.5.5/Tools/MinGW/bin/../lib/gcc/i686-w64-mingw32/8.1.0/../../../../i686-w64-mingw32/lib/../lib/libmsvcrt.a(dwbes01172.o)
 .idata$4       0x00442178        0x4 C:/Program Files/ETAS/ISOLAR-EVE3.5.0/plugins/com.etas.evetools.toolsfolder_3.5.5/Tools/MinGW/bin/../lib/gcc/i686-w64-mingw32/8.1.0/../../../../i686-w64-mingw32/lib/../lib/libmsvcrt.a(dwbes01174.o)
 .idata$4       0x0044217c        0x4 C:/Program Files/ETAS/ISOLAR-EVE3.5.0/plugins/com.etas.evetools.toolsfolder_3.5.5/Tools/MinGW/bin/../lib/gcc/i686-w64-mingw32/8.1.0/../../../../i686-w64-mingw32/lib/../lib/libmsvcrt.a(dwbes01190.o)
 .idata$4       0x00442180        0x4 C:/Program Files/ETAS/ISOLAR-EVE3.5.0/plugins/com.etas.evetools.toolsfolder_3.5.5/Tools/MinGW/bin/../lib/gcc/i686-w64-mingw32/8.1.0/../../../../i686-w64-mingw32/lib/../lib/libmsvcrt.a(dwbes01199.o)
 .idata$4       0x00442184        0x4 C:/Program Files/ETAS/ISOLAR-EVE3.5.0/plugins/com.etas.evetools.toolsfolder_3.5.5/Tools/MinGW/bin/../lib/gcc/i686-w64-mingw32/8.1.0/../../../../i686-w64-mingw32/lib/../lib/libmsvcrt.a(dwbes01202.o)
 .idata$4       0x00442188        0x4 C:/Program Files/ETAS/ISOLAR-EVE3.5.0/plugins/com.etas.evetools.toolsfolder_3.5.5/Tools/MinGW/bin/../lib/gcc/i686-w64-mingw32/8.1.0/../../../../i686-w64-mingw32/lib/../lib/libmsvcrt.a(dwbes01207.o)
 .idata$4       0x0044218c        0x4 C:/Program Files/ETAS/ISOLAR-EVE3.5.0/plugins/com.etas.evetools.toolsfolder_3.5.5/Tools/MinGW/bin/../lib/gcc/i686-w64-mingw32/8.1.0/../../../../i686-w64-mingw32/lib/../lib/libmsvcrt.a(dwbes01210.o)
 .idata$4       0x00442190        0x4 C:/Program Files/ETAS/ISOLAR-EVE3.5.0/plugins/com.etas.evetools.toolsfolder_3.5.5/Tools/MinGW/bin/../lib/gcc/i686-w64-mingw32/8.1.0/../../../../i686-w64-mingw32/lib/../lib/libmsvcrt.a(dwbes01212.o)
 .idata$4       0x00442194        0x4 C:/Program Files/ETAS/ISOLAR-EVE3.5.0/plugins/com.etas.evetools.toolsfolder_3.5.5/Tools/MinGW/bin/../lib/gcc/i686-w64-mingw32/8.1.0/../../../../i686-w64-mingw32/lib/../lib/libmsvcrt.a(dwbes01217.o)
 .idata$4       0x00442198        0x4 C:/Program Files/ETAS/ISOLAR-EVE3.5.0/plugins/com.etas.evetools.toolsfolder_3.5.5/Tools/MinGW/bin/../lib/gcc/i686-w64-mingw32/8.1.0/../../../../i686-w64-mingw32/lib/../lib/libmsvcrt.a(dwbes01220.o)
 .idata$4       0x0044219c        0x4 C:/Program Files/ETAS/ISOLAR-EVE3.5.0/plugins/com.etas.evetools.toolsfolder_3.5.5/Tools/MinGW/bin/../lib/gcc/i686-w64-mingw32/8.1.0/../../../../i686-w64-mingw32/lib/../lib/libmsvcrt.a(dwbes01221.o)
 .idata$4       0x004421a0        0x4 C:/Program Files/ETAS/ISOLAR-EVE3.5.0/plugins/com.etas.evetools.toolsfolder_3.5.5/Tools/MinGW/bin/../lib/gcc/i686-w64-mingw32/8.1.0/../../../../i686-w64-mingw32/lib/../lib/libmsvcrt.a(dwbes01253.o)
 .idata$4       0x004421a4        0x4 C:/Program Files/ETAS/ISOLAR-EVE3.5.0/plugins/com.etas.evetools.toolsfolder_3.5.5/Tools/MinGW/bin/../lib/gcc/i686-w64-mingw32/8.1.0/../../../../i686-w64-mingw32/lib/../lib/libmsvcrt.a(dwbes01258.o)
 .idata$4       0x004421a8        0x4 C:/Program Files/ETAS/ISOLAR-EVE3.5.0/plugins/com.etas.evetools.toolsfolder_3.5.5/Tools/MinGW/bin/../lib/gcc/i686-w64-mingw32/8.1.0/../../../../i686-w64-mingw32/lib/../lib/libmsvcrt.a(dwbet.o)
 .idata$4       0x004421ac        0x0 C:/Program Files/ETAS/ISOLAR-EVE3.5.0/plugins/com.etas.evetools.toolsfolder_3.5.5/Tools/MinGW/bin/../lib/gcc/i686-w64-mingw32/8.1.0/../../../../i686-w64-mingw32/lib/../lib/libuser32.a(dmceh.o)
 .idata$4       0x004421ac        0x4 C:/Program Files/ETAS/ISOLAR-EVE3.5.0/plugins/com.etas.evetools.toolsfolder_3.5.5/Tools/MinGW/bin/../lib/gcc/i686-w64-mingw32/8.1.0/../../../../i686-w64-mingw32/lib/../lib/libuser32.a(dmces00588.o)
 .idata$4       0x004421b0        0x4 C:/Program Files/ETAS/ISOLAR-EVE3.5.0/plugins/com.etas.evetools.toolsfolder_3.5.5/Tools/MinGW/bin/../lib/gcc/i686-w64-mingw32/8.1.0/../../../../i686-w64-mingw32/lib/../lib/libuser32.a(dmcet.o)
 .idata$4       0x004421b4        0x0 C:/Program Files/ETAS/ISOLAR-EVE3.5.0/plugins/com.etas.evetools.toolsfolder_3.5.5/Tools/MinGW/bin/../lib/gcc/i686-w64-mingw32/8.1.0/../../../../i686-w64-mingw32/lib/../lib/libwinmm.a(dcnfh.o)
 .idata$4       0x004421b4        0x4 C:/Program Files/ETAS/ISOLAR-EVE3.5.0/plugins/com.etas.evetools.toolsfolder_3.5.5/Tools/MinGW/bin/../lib/gcc/i686-w64-mingw32/8.1.0/../../../../i686-w64-mingw32/lib/../lib/libwinmm.a(dcnfs00144.o)
 .idata$4       0x004421b8        0x4 C:/Program Files/ETAS/ISOLAR-EVE3.5.0/plugins/com.etas.evetools.toolsfolder_3.5.5/Tools/MinGW/bin/../lib/gcc/i686-w64-mingw32/8.1.0/../../../../i686-w64-mingw32/lib/../lib/libwinmm.a(dcnfs00149.o)
 .idata$4       0x004421bc        0x4 C:/Program Files/ETAS/ISOLAR-EVE3.5.0/plugins/com.etas.evetools.toolsfolder_3.5.5/Tools/MinGW/bin/../lib/gcc/i686-w64-mingw32/8.1.0/../../../../i686-w64-mingw32/lib/../lib/libwinmm.a(dcnfs00150.o)
 .idata$4       0x004421c0        0x4 C:/Program Files/ETAS/ISOLAR-EVE3.5.0/plugins/com.etas.evetools.toolsfolder_3.5.5/Tools/MinGW/bin/../lib/gcc/i686-w64-mingw32/8.1.0/../../../../i686-w64-mingw32/lib/../lib/libwinmm.a(dcnft.o)
                0x004421c4                __IAT_start__ = .
 SORT_BY_NAME(*)(.idata$5)
 .idata$5       0x004421c4        0x0 C:/Program Files/ETAS/ISOLAR-EVE3.5.0/plugins/com.etas.evetools.toolsfolder_3.5.5/Tools/MinGW/bin/../lib/gcc/i686-w64-mingw32/8.1.0/../../../../i686-w64-mingw32/lib/../lib/libkernel32.a(dgzch.o)
 .idata$5       0x004421c4        0x4 C:/Program Files/ETAS/ISOLAR-EVE3.5.0/plugins/com.etas.evetools.toolsfolder_3.5.5/Tools/MinGW/bin/../lib/gcc/i686-w64-mingw32/8.1.0/../../../../i686-w64-mingw32/lib/../lib/libkernel32.a(dgzcs00083.o)
                0x004421c4                _imp__CloseHandle@4
 .idata$5       0x004421c8        0x4 C:/Program Files/ETAS/ISOLAR-EVE3.5.0/plugins/com.etas.evetools.toolsfolder_3.5.5/Tools/MinGW/bin/../lib/gcc/i686-w64-mingw32/8.1.0/../../../../i686-w64-mingw32/lib/../lib/libkernel32.a(dgzcs00140.o)
                0x004421c8                _imp__CreateFileMappingA@24
 .idata$5       0x004421cc        0x4 C:/Program Files/ETAS/ISOLAR-EVE3.5.0/plugins/com.etas.evetools.toolsfolder_3.5.5/Tools/MinGW/bin/../lib/gcc/i686-w64-mingw32/8.1.0/../../../../i686-w64-mingw32/lib/../lib/libkernel32.a(dgzcs00159.o)
                0x004421cc                _imp__CreateMutexA@12
 .idata$5       0x004421d0        0x4 C:/Program Files/ETAS/ISOLAR-EVE3.5.0/plugins/com.etas.evetools.toolsfolder_3.5.5/Tools/MinGW/bin/../lib/gcc/i686-w64-mingw32/8.1.0/../../../../i686-w64-mingw32/lib/../lib/libkernel32.a(dgzcs00175.o)
                0x004421d0                _imp__CreateSemaphoreA@16
 .idata$5       0x004421d4        0x4 C:/Program Files/ETAS/ISOLAR-EVE3.5.0/plugins/com.etas.evetools.toolsfolder_3.5.5/Tools/MinGW/bin/../lib/gcc/i686-w64-mingw32/8.1.0/../../../../i686-w64-mingw32/lib/../lib/libkernel32.a(dgzcs00178.o)
                0x004421d4                _imp__CreateSemaphoreW@16
 .idata$5       0x004421d8        0x4 C:/Program Files/ETAS/ISOLAR-EVE3.5.0/plugins/com.etas.evetools.toolsfolder_3.5.5/Tools/MinGW/bin/../lib/gcc/i686-w64-mingw32/8.1.0/../../../../i686-w64-mingw32/lib/../lib/libkernel32.a(dgzcs00214.o)
                0x004421d8                _imp__DeleteCriticalSection@4
 .idata$5       0x004421dc        0x4 C:/Program Files/ETAS/ISOLAR-EVE3.5.0/plugins/com.etas.evetools.toolsfolder_3.5.5/Tools/MinGW/bin/../lib/gcc/i686-w64-mingw32/8.1.0/../../../../i686-w64-mingw32/lib/../lib/libkernel32.a(dgzcs00242.o)
                0x004421dc                _imp__EnterCriticalSection@4
 .idata$5       0x004421e0        0x4 C:/Program Files/ETAS/ISOLAR-EVE3.5.0/plugins/com.etas.evetools.toolsfolder_3.5.5/Tools/MinGW/bin/../lib/gcc/i686-w64-mingw32/8.1.0/../../../../i686-w64-mingw32/lib/../lib/libkernel32.a(dgzcs00286.o)
                0x004421e0                _imp__ExitThread@4
 .idata$5       0x004421e4        0x4 C:/Program Files/ETAS/ISOLAR-EVE3.5.0/plugins/com.etas.evetools.toolsfolder_3.5.5/Tools/MinGW/bin/../lib/gcc/i686-w64-mingw32/8.1.0/../../../../i686-w64-mingw32/lib/../lib/libkernel32.a(dgzcs00354.o)
                0x004421e4                _imp__FormatMessageA@28
 .idata$5       0x004421e8        0x4 C:/Program Files/ETAS/ISOLAR-EVE3.5.0/plugins/com.etas.evetools.toolsfolder_3.5.5/Tools/MinGW/bin/../lib/gcc/i686-w64-mingw32/8.1.0/../../../../i686-w64-mingw32/lib/../lib/libkernel32.a(dgzcs00359.o)
                0x004421e8                _imp__FreeLibrary@4
 .idata$5       0x004421ec        0x4 C:/Program Files/ETAS/ISOLAR-EVE3.5.0/plugins/com.etas.evetools.toolsfolder_3.5.5/Tools/MinGW/bin/../lib/gcc/i686-w64-mingw32/8.1.0/../../../../i686-w64-mingw32/lib/../lib/libkernel32.a(dgzcs00455.o)
                0x004421ec                _imp__GetCurrentProcess@0
 .idata$5       0x004421f0        0x4 C:/Program Files/ETAS/ISOLAR-EVE3.5.0/plugins/com.etas.evetools.toolsfolder_3.5.5/Tools/MinGW/bin/../lib/gcc/i686-w64-mingw32/8.1.0/../../../../i686-w64-mingw32/lib/../lib/libkernel32.a(dgzcs00456.o)
                0x004421f0                _imp__GetCurrentProcessId@0
 .idata$5       0x004421f4        0x4 C:/Program Files/ETAS/ISOLAR-EVE3.5.0/plugins/com.etas.evetools.toolsfolder_3.5.5/Tools/MinGW/bin/../lib/gcc/i686-w64-mingw32/8.1.0/../../../../i686-w64-mingw32/lib/../lib/libkernel32.a(dgzcs00460.o)
                0x004421f4                _imp__GetCurrentThreadId@0
 .idata$5       0x004421f8        0x4 C:/Program Files/ETAS/ISOLAR-EVE3.5.0/plugins/com.etas.evetools.toolsfolder_3.5.5/Tools/MinGW/bin/../lib/gcc/i686-w64-mingw32/8.1.0/../../../../i686-w64-mingw32/lib/../lib/libkernel32.a(dgzcs00482.o)
                0x004421f8                _imp__GetEnvironmentVariableA@12
 .idata$5       0x004421fc        0x4 C:/Program Files/ETAS/ISOLAR-EVE3.5.0/plugins/com.etas.evetools.toolsfolder_3.5.5/Tools/MinGW/bin/../lib/gcc/i686-w64-mingw32/8.1.0/../../../../i686-w64-mingw32/lib/../lib/libkernel32.a(dgzcs00518.o)
                0x004421fc                _imp__GetLastError@0
 .idata$5       0x00442200        0x4 C:/Program Files/ETAS/ISOLAR-EVE3.5.0/plugins/com.etas.evetools.toolsfolder_3.5.5/Tools/MinGW/bin/../lib/gcc/i686-w64-mingw32/8.1.0/../../../../i686-w64-mingw32/lib/../lib/libkernel32.a(dgzcs00536.o)
                0x00442200                _imp__GetModuleHandleA@4
 .idata$5       0x00442204        0x4 C:/Program Files/ETAS/ISOLAR-EVE3.5.0/plugins/com.etas.evetools.toolsfolder_3.5.5/Tools/MinGW/bin/../lib/gcc/i686-w64-mingw32/8.1.0/../../../../i686-w64-mingw32/lib/../lib/libkernel32.a(dgzcs00584.o)
                0x00442204                _imp__GetProcAddress@8
 .idata$5       0x00442208        0x4 C:/Program Files/ETAS/ISOLAR-EVE3.5.0/plugins/com.etas.evetools.toolsfolder_3.5.5/Tools/MinGW/bin/../lib/gcc/i686-w64-mingw32/8.1.0/../../../../i686-w64-mingw32/lib/../lib/libkernel32.a(dgzcs00615.o)
                0x00442208                _imp__GetStartupInfoA@4
 .idata$5       0x0044220c        0x4 C:/Program Files/ETAS/ISOLAR-EVE3.5.0/plugins/com.etas.evetools.toolsfolder_3.5.5/Tools/MinGW/bin/../lib/gcc/i686-w64-mingw32/8.1.0/../../../../i686-w64-mingw32/lib/../lib/libkernel32.a(dgzcs00638.o)
                0x0044220c                _imp__GetSystemTimeAsFileTime@4
 .idata$5       0x00442210        0x4 C:/Program Files/ETAS/ISOLAR-EVE3.5.0/plugins/com.etas.evetools.toolsfolder_3.5.5/Tools/MinGW/bin/../lib/gcc/i686-w64-mingw32/8.1.0/../../../../i686-w64-mingw32/lib/../lib/libkernel32.a(dgzcs00666.o)
                0x00442210                _imp__GetTickCount@0
 .idata$5       0x00442214        0x4 C:/Program Files/ETAS/ISOLAR-EVE3.5.0/plugins/com.etas.evetools.toolsfolder_3.5.5/Tools/MinGW/bin/../lib/gcc/i686-w64-mingw32/8.1.0/../../../../i686-w64-mingw32/lib/../lib/libkernel32.a(dgzcs00750.o)
                0x00442214                _imp__InitializeCriticalSection@4
 .idata$5       0x00442218        0x4 C:/Program Files/ETAS/ISOLAR-EVE3.5.0/plugins/com.etas.evetools.toolsfolder_3.5.5/Tools/MinGW/bin/../lib/gcc/i686-w64-mingw32/8.1.0/../../../../i686-w64-mingw32/lib/../lib/libkernel32.a(dgzcs00836.o)
                0x00442218                _imp__LeaveCriticalSection@4
 .idata$5       0x0044221c        0x4 C:/Program Files/ETAS/ISOLAR-EVE3.5.0/plugins/com.etas.evetools.toolsfolder_3.5.5/Tools/MinGW/bin/../lib/gcc/i686-w64-mingw32/8.1.0/../../../../i686-w64-mingw32/lib/../lib/libkernel32.a(dgzcs00839.o)
                0x0044221c                _imp__LoadLibraryA@4
 .idata$5       0x00442220        0x4 C:/Program Files/ETAS/ISOLAR-EVE3.5.0/plugins/com.etas.evetools.toolsfolder_3.5.5/Tools/MinGW/bin/../lib/gcc/i686-w64-mingw32/8.1.0/../../../../i686-w64-mingw32/lib/../lib/libkernel32.a(dgzcs00866.o)
                0x00442220                _imp__MapViewOfFile@20
 .idata$5       0x00442224        0x4 C:/Program Files/ETAS/ISOLAR-EVE3.5.0/plugins/com.etas.evetools.toolsfolder_3.5.5/Tools/MinGW/bin/../lib/gcc/i686-w64-mingw32/8.1.0/../../../../i686-w64-mingw32/lib/../lib/libkernel32.a(dgzcs00949.o)
                0x00442224                _imp__QueryPerformanceCounter@4
 .idata$5       0x00442228        0x4 C:/Program Files/ETAS/ISOLAR-EVE3.5.0/plugins/com.etas.evetools.toolsfolder_3.5.5/Tools/MinGW/bin/../lib/gcc/i686-w64-mingw32/8.1.0/../../../../i686-w64-mingw32/lib/../lib/libkernel32.a(dgzcs00950.o)
                0x00442228                _imp__QueryPerformanceFrequency@4
 .idata$5       0x0044222c        0x4 C:/Program Files/ETAS/ISOLAR-EVE3.5.0/plugins/com.etas.evetools.toolsfolder_3.5.5/Tools/MinGW/bin/../lib/gcc/i686-w64-mingw32/8.1.0/../../../../i686-w64-mingw32/lib/../lib/libkernel32.a(dgzcs00993.o)
                0x0044222c                _imp__ReleaseMutex@4
 .idata$5       0x00442230        0x4 C:/Program Files/ETAS/ISOLAR-EVE3.5.0/plugins/com.etas.evetools.toolsfolder_3.5.5/Tools/MinGW/bin/../lib/gcc/i686-w64-mingw32/8.1.0/../../../../i686-w64-mingw32/lib/../lib/libkernel32.a(dgzcs00997.o)
                0x00442230                _imp__ReleaseSemaphore@12
 .idata$5       0x00442234        0x4 C:/Program Files/ETAS/ISOLAR-EVE3.5.0/plugins/com.etas.evetools.toolsfolder_3.5.5/Tools/MinGW/bin/../lib/gcc/i686-w64-mingw32/8.1.0/../../../../i686-w64-mingw32/lib/../lib/libkernel32.a(dgzcs01114.o)
                0x00442234                _imp__SetLastError@4
 .idata$5       0x00442238        0x4 C:/Program Files/ETAS/ISOLAR-EVE3.5.0/plugins/com.etas.evetools.toolsfolder_3.5.5/Tools/MinGW/bin/../lib/gcc/i686-w64-mingw32/8.1.0/../../../../i686-w64-mingw32/lib/../lib/libkernel32.a(dgzcs01163.o)
                0x00442238                _imp__SetUnhandledExceptionFilter@4
 .idata$5       0x0044223c        0x4 C:/Program Files/ETAS/ISOLAR-EVE3.5.0/plugins/com.etas.evetools.toolsfolder_3.5.5/Tools/MinGW/bin/../lib/gcc/i686-w64-mingw32/8.1.0/../../../../i686-w64-mingw32/lib/../lib/libkernel32.a(dgzcs01176.o)
                0x0044223c                _imp__Sleep@4
 .idata$5       0x00442240        0x4 C:/Program Files/ETAS/ISOLAR-EVE3.5.0/plugins/com.etas.evetools.toolsfolder_3.5.5/Tools/MinGW/bin/../lib/gcc/i686-w64-mingw32/8.1.0/../../../../i686-w64-mingw32/lib/../lib/libkernel32.a(dgzcs01186.o)
                0x00442240                _imp__SwitchToThread@0
 .idata$5       0x00442244        0x4 C:/Program Files/ETAS/ISOLAR-EVE3.5.0/plugins/com.etas.evetools.toolsfolder_3.5.5/Tools/MinGW/bin/../lib/gcc/i686-w64-mingw32/8.1.0/../../../../i686-w64-mingw32/lib/../lib/libkernel32.a(dgzcs01190.o)
                0x00442244                _imp__TerminateProcess@8
 .idata$5       0x00442248        0x4 C:/Program Files/ETAS/ISOLAR-EVE3.5.0/plugins/com.etas.evetools.toolsfolder_3.5.5/Tools/MinGW/bin/../lib/gcc/i686-w64-mingw32/8.1.0/../../../../i686-w64-mingw32/lib/../lib/libkernel32.a(dgzcs01195.o)
                0x00442248                _imp__TlsAlloc@0
 .idata$5       0x0044224c        0x4 C:/Program Files/ETAS/ISOLAR-EVE3.5.0/plugins/com.etas.evetools.toolsfolder_3.5.5/Tools/MinGW/bin/../lib/gcc/i686-w64-mingw32/8.1.0/../../../../i686-w64-mingw32/lib/../lib/libkernel32.a(dgzcs01196.o)
                0x0044224c                _imp__TlsFree@4
 .idata$5       0x00442250        0x4 C:/Program Files/ETAS/ISOLAR-EVE3.5.0/plugins/com.etas.evetools.toolsfolder_3.5.5/Tools/MinGW/bin/../lib/gcc/i686-w64-mingw32/8.1.0/../../../../i686-w64-mingw32/lib/../lib/libkernel32.a(dgzcs01197.o)
                0x00442250                _imp__TlsGetValue@4
 .idata$5       0x00442254        0x4 C:/Program Files/ETAS/ISOLAR-EVE3.5.0/plugins/com.etas.evetools.toolsfolder_3.5.5/Tools/MinGW/bin/../lib/gcc/i686-w64-mingw32/8.1.0/../../../../i686-w64-mingw32/lib/../lib/libkernel32.a(dgzcs01198.o)
                0x00442254                _imp__TlsSetValue@8
 .idata$5       0x00442258        0x4 C:/Program Files/ETAS/ISOLAR-EVE3.5.0/plugins/com.etas.evetools.toolsfolder_3.5.5/Tools/MinGW/bin/../lib/gcc/i686-w64-mingw32/8.1.0/../../../../i686-w64-mingw32/lib/../lib/libkernel32.a(dgzcs01210.o)
                0x00442258                _imp__UnhandledExceptionFilter@4
 .idata$5       0x0044225c        0x4 C:/Program Files/ETAS/ISOLAR-EVE3.5.0/plugins/com.etas.evetools.toolsfolder_3.5.5/Tools/MinGW/bin/../lib/gcc/i686-w64-mingw32/8.1.0/../../../../i686-w64-mingw32/lib/../lib/libkernel32.a(dgzcs01243.o)
                0x0044225c                _imp__VirtualProtect@16
 .idata$5       0x00442260        0x4 C:/Program Files/ETAS/ISOLAR-EVE3.5.0/plugins/com.etas.evetools.toolsfolder_3.5.5/Tools/MinGW/bin/../lib/gcc/i686-w64-mingw32/8.1.0/../../../../i686-w64-mingw32/lib/../lib/libkernel32.a(dgzcs01246.o)
                0x00442260                _imp__VirtualQuery@12
 .idata$5       0x00442264        0x4 C:/Program Files/ETAS/ISOLAR-EVE3.5.0/plugins/com.etas.evetools.toolsfolder_3.5.5/Tools/MinGW/bin/../lib/gcc/i686-w64-mingw32/8.1.0/../../../../i686-w64-mingw32/lib/../lib/libkernel32.a(dgzcs01255.o)
                0x00442264                _imp__WaitForSingleObject@8
 .idata$5       0x00442268        0x4 C:/Program Files/ETAS/ISOLAR-EVE3.5.0/plugins/com.etas.evetools.toolsfolder_3.5.5/Tools/MinGW/bin/../lib/gcc/i686-w64-mingw32/8.1.0/../../../../i686-w64-mingw32/lib/../lib/libkernel32.a(dgzct.o)
 .idata$5       0x0044226c        0x0 C:/Program Files/ETAS/ISOLAR-EVE3.5.0/plugins/com.etas.evetools.toolsfolder_3.5.5/Tools/MinGW/bin/../lib/gcc/i686-w64-mingw32/8.1.0/../../../../i686-w64-mingw32/lib/../lib/libmsvcrt.a(dwbeh.o)
 .idata$5       0x0044226c        0x4 C:/Program Files/ETAS/ISOLAR-EVE3.5.0/plugins/com.etas.evetools.toolsfolder_3.5.5/Tools/MinGW/bin/../lib/gcc/i686-w64-mingw32/8.1.0/../../../../i686-w64-mingw32/lib/../lib/libmsvcrt.a(dwbes00058.o)
                0x0044226c                _imp____getmainargs
 .idata$5       0x00442270        0x4 C:/Program Files/ETAS/ISOLAR-EVE3.5.0/plugins/com.etas.evetools.toolsfolder_3.5.5/Tools/MinGW/bin/../lib/gcc/i686-w64-mingw32/8.1.0/../../../../i686-w64-mingw32/lib/../lib/libmsvcrt.a(dwbes00059.o)
                0x00442270                _imp____initenv
 .idata$5       0x00442274        0x4 C:/Program Files/ETAS/ISOLAR-EVE3.5.0/plugins/com.etas.evetools.toolsfolder_3.5.5/Tools/MinGW/bin/../lib/gcc/i686-w64-mingw32/8.1.0/../../../../i686-w64-mingw32/lib/../lib/libmsvcrt.a(dwbes00068.o)
                0x00442274                _imp____lconv_init
 .idata$5       0x00442278        0x4 C:/Program Files/ETAS/ISOLAR-EVE3.5.0/plugins/com.etas.evetools.toolsfolder_3.5.5/Tools/MinGW/bin/../lib/gcc/i686-w64-mingw32/8.1.0/../../../../i686-w64-mingw32/lib/../lib/libmsvcrt.a(dwbes00076.o)
                0x00442278                _imp____p__acmdln
 .idata$5       0x0044227c        0x4 C:/Program Files/ETAS/ISOLAR-EVE3.5.0/plugins/com.etas.evetools.toolsfolder_3.5.5/Tools/MinGW/bin/../lib/gcc/i686-w64-mingw32/8.1.0/../../../../i686-w64-mingw32/lib/../lib/libmsvcrt.a(dwbes00083.o)
                0x0044227c                _imp____p__fmode
 .idata$5       0x00442280        0x4 C:/Program Files/ETAS/ISOLAR-EVE3.5.0/plugins/com.etas.evetools.toolsfolder_3.5.5/Tools/MinGW/bin/../lib/gcc/i686-w64-mingw32/8.1.0/../../../../i686-w64-mingw32/lib/../lib/libmsvcrt.a(dwbes00104.o)
                0x00442280                _imp____set_app_type
 .idata$5       0x00442284        0x4 C:/Program Files/ETAS/ISOLAR-EVE3.5.0/plugins/com.etas.evetools.toolsfolder_3.5.5/Tools/MinGW/bin/../lib/gcc/i686-w64-mingw32/8.1.0/../../../../i686-w64-mingw32/lib/../lib/libmsvcrt.a(dwbes00107.o)
                0x00442284                _imp____setusermatherr
 .idata$5       0x00442288        0x4 C:/Program Files/ETAS/ISOLAR-EVE3.5.0/plugins/com.etas.evetools.toolsfolder_3.5.5/Tools/MinGW/bin/../lib/gcc/i686-w64-mingw32/8.1.0/../../../../i686-w64-mingw32/lib/../lib/libmsvcrt.a(dwbes00144.o)
                0x00442288                _imp___amsg_exit
 .idata$5       0x0044228c        0x4 C:/Program Files/ETAS/ISOLAR-EVE3.5.0/plugins/com.etas.evetools.toolsfolder_3.5.5/Tools/MinGW/bin/../lib/gcc/i686-w64-mingw32/8.1.0/../../../../i686-w64-mingw32/lib/../lib/libmsvcrt.a(dwbes00161.o)
                0x0044228c                _imp___cexit
 .idata$5       0x00442290        0x4 C:/Program Files/ETAS/ISOLAR-EVE3.5.0/plugins/com.etas.evetools.toolsfolder_3.5.5/Tools/MinGW/bin/../lib/gcc/i686-w64-mingw32/8.1.0/../../../../i686-w64-mingw32/lib/../lib/libmsvcrt.a(dwbes00351.o)
                0x00442290                _imp___initterm
 .idata$5       0x00442294        0x4 C:/Program Files/ETAS/ISOLAR-EVE3.5.0/plugins/com.etas.evetools.toolsfolder_3.5.5/Tools/MinGW/bin/../lib/gcc/i686-w64-mingw32/8.1.0/../../../../i686-w64-mingw32/lib/../lib/libmsvcrt.a(dwbes00355.o)
                0x00442294                _imp___iob
 .idata$5       0x00442298        0x4 C:/Program Files/ETAS/ISOLAR-EVE3.5.0/plugins/com.etas.evetools.toolsfolder_3.5.5/Tools/MinGW/bin/../lib/gcc/i686-w64-mingw32/8.1.0/../../../../i686-w64-mingw32/lib/../lib/libmsvcrt.a(dwbes00629.o)
                0x00442298                _imp___onexit
 .idata$5       0x0044229c        0x4 C:/Program Files/ETAS/ISOLAR-EVE3.5.0/plugins/com.etas.evetools.toolsfolder_3.5.5/Tools/MinGW/bin/../lib/gcc/i686-w64-mingw32/8.1.0/../../../../i686-w64-mingw32/lib/../lib/libmsvcrt.a(dwbes01010.o)
                0x0044229c                _imp__write
 .idata$5       0x004422a0        0x4 C:/Program Files/ETAS/ISOLAR-EVE3.5.0/plugins/com.etas.evetools.toolsfolder_3.5.5/Tools/MinGW/bin/../lib/gcc/i686-w64-mingw32/8.1.0/../../../../i686-w64-mingw32/lib/../lib/libmsvcrt.a(dwbes01057.o)
                0x004422a0                _imp__abort
 .idata$5       0x004422a4        0x4 C:/Program Files/ETAS/ISOLAR-EVE3.5.0/plugins/com.etas.evetools.toolsfolder_3.5.5/Tools/MinGW/bin/../lib/gcc/i686-w64-mingw32/8.1.0/../../../../i686-w64-mingw32/lib/../lib/libmsvcrt.a(dwbes01066.o)
                0x004422a4                _imp__atoi
 .idata$5       0x004422a8        0x4 C:/Program Files/ETAS/ISOLAR-EVE3.5.0/plugins/com.etas.evetools.toolsfolder_3.5.5/Tools/MinGW/bin/../lib/gcc/i686-w64-mingw32/8.1.0/../../../../i686-w64-mingw32/lib/../lib/libmsvcrt.a(dwbes01076.o)
                0x004422a8                _imp__calloc
 .idata$5       0x004422ac        0x4 C:/Program Files/ETAS/ISOLAR-EVE3.5.0/plugins/com.etas.evetools.toolsfolder_3.5.5/Tools/MinGW/bin/../lib/gcc/i686-w64-mingw32/8.1.0/../../../../i686-w64-mingw32/lib/../lib/libmsvcrt.a(dwbes01081.o)
                0x004422ac                _imp__exit
 .idata$5       0x004422b0        0x4 C:/Program Files/ETAS/ISOLAR-EVE3.5.0/plugins/com.etas.evetools.toolsfolder_3.5.5/Tools/MinGW/bin/../lib/gcc/i686-w64-mingw32/8.1.0/../../../../i686-w64-mingw32/lib/../lib/libmsvcrt.a(dwbes01084.o)
                0x004422b0                _imp__fclose
 .idata$5       0x004422b4        0x4 C:/Program Files/ETAS/ISOLAR-EVE3.5.0/plugins/com.etas.evetools.toolsfolder_3.5.5/Tools/MinGW/bin/../lib/gcc/i686-w64-mingw32/8.1.0/../../../../i686-w64-mingw32/lib/../lib/libmsvcrt.a(dwbes01087.o)
                0x004422b4                _imp__fflush
 .idata$5       0x004422b8        0x4 C:/Program Files/ETAS/ISOLAR-EVE3.5.0/plugins/com.etas.evetools.toolsfolder_3.5.5/Tools/MinGW/bin/../lib/gcc/i686-w64-mingw32/8.1.0/../../../../i686-w64-mingw32/lib/../lib/libmsvcrt.a(dwbes01095.o)
                0x004422b8                _imp__fopen
 .idata$5       0x004422bc        0x4 C:/Program Files/ETAS/ISOLAR-EVE3.5.0/plugins/com.etas.evetools.toolsfolder_3.5.5/Tools/MinGW/bin/../lib/gcc/i686-w64-mingw32/8.1.0/../../../../i686-w64-mingw32/lib/../lib/libmsvcrt.a(dwbes01097.o)
                0x004422bc                _imp__fprintf
 .idata$5       0x004422c0        0x4 C:/Program Files/ETAS/ISOLAR-EVE3.5.0/plugins/com.etas.evetools.toolsfolder_3.5.5/Tools/MinGW/bin/../lib/gcc/i686-w64-mingw32/8.1.0/../../../../i686-w64-mingw32/lib/../lib/libmsvcrt.a(dwbes01099.o)
                0x004422c0                _imp__fputc
 .idata$5       0x004422c4        0x4 C:/Program Files/ETAS/ISOLAR-EVE3.5.0/plugins/com.etas.evetools.toolsfolder_3.5.5/Tools/MinGW/bin/../lib/gcc/i686-w64-mingw32/8.1.0/../../../../i686-w64-mingw32/lib/../lib/libmsvcrt.a(dwbes01100.o)
                0x004422c4                _imp__fputs
 .idata$5       0x004422c8        0x4 C:/Program Files/ETAS/ISOLAR-EVE3.5.0/plugins/com.etas.evetools.toolsfolder_3.5.5/Tools/MinGW/bin/../lib/gcc/i686-w64-mingw32/8.1.0/../../../../i686-w64-mingw32/lib/../lib/libmsvcrt.a(dwbes01104.o)
                0x004422c8                _imp__free
 .idata$5       0x004422cc        0x4 C:/Program Files/ETAS/ISOLAR-EVE3.5.0/plugins/com.etas.evetools.toolsfolder_3.5.5/Tools/MinGW/bin/../lib/gcc/i686-w64-mingw32/8.1.0/../../../../i686-w64-mingw32/lib/../lib/libmsvcrt.a(dwbes01118.o)
                0x004422cc                _imp__fwrite
 .idata$5       0x004422d0        0x4 C:/Program Files/ETAS/ISOLAR-EVE3.5.0/plugins/com.etas.evetools.toolsfolder_3.5.5/Tools/MinGW/bin/../lib/gcc/i686-w64-mingw32/8.1.0/../../../../i686-w64-mingw32/lib/../lib/libmsvcrt.a(dwbes01163.o)
                0x004422d0                _imp__malloc
 .idata$5       0x004422d4        0x4 C:/Program Files/ETAS/ISOLAR-EVE3.5.0/plugins/com.etas.evetools.toolsfolder_3.5.5/Tools/MinGW/bin/../lib/gcc/i686-w64-mingw32/8.1.0/../../../../i686-w64-mingw32/lib/../lib/libmsvcrt.a(dwbes01172.o)
                0x004422d4                _imp__memcpy
 .idata$5       0x004422d8        0x4 C:/Program Files/ETAS/ISOLAR-EVE3.5.0/plugins/com.etas.evetools.toolsfolder_3.5.5/Tools/MinGW/bin/../lib/gcc/i686-w64-mingw32/8.1.0/../../../../i686-w64-mingw32/lib/../lib/libmsvcrt.a(dwbes01174.o)
                0x004422d8                _imp__memset
 .idata$5       0x004422dc        0x4 C:/Program Files/ETAS/ISOLAR-EVE3.5.0/plugins/com.etas.evetools.toolsfolder_3.5.5/Tools/MinGW/bin/../lib/gcc/i686-w64-mingw32/8.1.0/../../../../i686-w64-mingw32/lib/../lib/libmsvcrt.a(dwbes01190.o)
                0x004422dc                _imp__realloc
 .idata$5       0x004422e0        0x4 C:/Program Files/ETAS/ISOLAR-EVE3.5.0/plugins/com.etas.evetools.toolsfolder_3.5.5/Tools/MinGW/bin/../lib/gcc/i686-w64-mingw32/8.1.0/../../../../i686-w64-mingw32/lib/../lib/libmsvcrt.a(dwbes01199.o)
                0x004422e0                _imp__signal
 .idata$5       0x004422e4        0x4 C:/Program Files/ETAS/ISOLAR-EVE3.5.0/plugins/com.etas.evetools.toolsfolder_3.5.5/Tools/MinGW/bin/../lib/gcc/i686-w64-mingw32/8.1.0/../../../../i686-w64-mingw32/lib/../lib/libmsvcrt.a(dwbes01202.o)
                0x004422e4                _imp__sprintf
 .idata$5       0x004422e8        0x4 C:/Program Files/ETAS/ISOLAR-EVE3.5.0/plugins/com.etas.evetools.toolsfolder_3.5.5/Tools/MinGW/bin/../lib/gcc/i686-w64-mingw32/8.1.0/../../../../i686-w64-mingw32/lib/../lib/libmsvcrt.a(dwbes01207.o)
                0x004422e8                _imp__strcat
 .idata$5       0x004422ec        0x4 C:/Program Files/ETAS/ISOLAR-EVE3.5.0/plugins/com.etas.evetools.toolsfolder_3.5.5/Tools/MinGW/bin/../lib/gcc/i686-w64-mingw32/8.1.0/../../../../i686-w64-mingw32/lib/../lib/libmsvcrt.a(dwbes01210.o)
                0x004422ec                _imp__strcmp
 .idata$5       0x004422f0        0x4 C:/Program Files/ETAS/ISOLAR-EVE3.5.0/plugins/com.etas.evetools.toolsfolder_3.5.5/Tools/MinGW/bin/../lib/gcc/i686-w64-mingw32/8.1.0/../../../../i686-w64-mingw32/lib/../lib/libmsvcrt.a(dwbes01212.o)
                0x004422f0                _imp__strcpy
 .idata$5       0x004422f4        0x4 C:/Program Files/ETAS/ISOLAR-EVE3.5.0/plugins/com.etas.evetools.toolsfolder_3.5.5/Tools/MinGW/bin/../lib/gcc/i686-w64-mingw32/8.1.0/../../../../i686-w64-mingw32/lib/../lib/libmsvcrt.a(dwbes01217.o)
                0x004422f4                _imp__strlen
 .idata$5       0x004422f8        0x4 C:/Program Files/ETAS/ISOLAR-EVE3.5.0/plugins/com.etas.evetools.toolsfolder_3.5.5/Tools/MinGW/bin/../lib/gcc/i686-w64-mingw32/8.1.0/../../../../i686-w64-mingw32/lib/../lib/libmsvcrt.a(dwbes01220.o)
                0x004422f8                _imp__strncmp
 .idata$5       0x004422fc        0x4 C:/Program Files/ETAS/ISOLAR-EVE3.5.0/plugins/com.etas.evetools.toolsfolder_3.5.5/Tools/MinGW/bin/../lib/gcc/i686-w64-mingw32/8.1.0/../../../../i686-w64-mingw32/lib/../lib/libmsvcrt.a(dwbes01221.o)
                0x004422fc                _imp__strncpy
 .idata$5       0x00442300        0x4 C:/Program Files/ETAS/ISOLAR-EVE3.5.0/plugins/com.etas.evetools.toolsfolder_3.5.5/Tools/MinGW/bin/../lib/gcc/i686-w64-mingw32/8.1.0/../../../../i686-w64-mingw32/lib/../lib/libmsvcrt.a(dwbes01253.o)
                0x00442300                _imp__vfprintf
 .idata$5       0x00442304        0x4 C:/Program Files/ETAS/ISOLAR-EVE3.5.0/plugins/com.etas.evetools.toolsfolder_3.5.5/Tools/MinGW/bin/../lib/gcc/i686-w64-mingw32/8.1.0/../../../../i686-w64-mingw32/lib/../lib/libmsvcrt.a(dwbes01258.o)
                0x00442304                _imp__vsprintf
 .idata$5       0x00442308        0x4 C:/Program Files/ETAS/ISOLAR-EVE3.5.0/plugins/com.etas.evetools.toolsfolder_3.5.5/Tools/MinGW/bin/../lib/gcc/i686-w64-mingw32/8.1.0/../../../../i686-w64-mingw32/lib/../lib/libmsvcrt.a(dwbet.o)
 .idata$5       0x0044230c        0x0 C:/Program Files/ETAS/ISOLAR-EVE3.5.0/plugins/com.etas.evetools.toolsfolder_3.5.5/Tools/MinGW/bin/../lib/gcc/i686-w64-mingw32/8.1.0/../../../../i686-w64-mingw32/lib/../lib/libuser32.a(dmceh.o)
 .idata$5       0x0044230c        0x4 C:/Program Files/ETAS/ISOLAR-EVE3.5.0/plugins/com.etas.evetools.toolsfolder_3.5.5/Tools/MinGW/bin/../lib/gcc/i686-w64-mingw32/8.1.0/../../../../i686-w64-mingw32/lib/../lib/libuser32.a(dmces00588.o)
                0x0044230c                _imp__MessageBoxA@16
 .idata$5       0x00442310        0x4 C:/Program Files/ETAS/ISOLAR-EVE3.5.0/plugins/com.etas.evetools.toolsfolder_3.5.5/Tools/MinGW/bin/../lib/gcc/i686-w64-mingw32/8.1.0/../../../../i686-w64-mingw32/lib/../lib/libuser32.a(dmcet.o)
 .idata$5       0x00442314        0x0 C:/Program Files/ETAS/ISOLAR-EVE3.5.0/plugins/com.etas.evetools.toolsfolder_3.5.5/Tools/MinGW/bin/../lib/gcc/i686-w64-mingw32/8.1.0/../../../../i686-w64-mingw32/lib/../lib/libwinmm.a(dcnfh.o)
 .idata$5       0x00442314        0x4 C:/Program Files/ETAS/ISOLAR-EVE3.5.0/plugins/com.etas.evetools.toolsfolder_3.5.5/Tools/MinGW/bin/../lib/gcc/i686-w64-mingw32/8.1.0/../../../../i686-w64-mingw32/lib/../lib/libwinmm.a(dcnfs00144.o)
                0x00442314                _imp__timeBeginPeriod@4
 .idata$5       0x00442318        0x4 C:/Program Files/ETAS/ISOLAR-EVE3.5.0/plugins/com.etas.evetools.toolsfolder_3.5.5/Tools/MinGW/bin/../lib/gcc/i686-w64-mingw32/8.1.0/../../../../i686-w64-mingw32/lib/../lib/libwinmm.a(dcnfs00149.o)
                0x00442318                _imp__timeKillEvent@4
 .idata$5       0x0044231c        0x4 C:/Program Files/ETAS/ISOLAR-EVE3.5.0/plugins/com.etas.evetools.toolsfolder_3.5.5/Tools/MinGW/bin/../lib/gcc/i686-w64-mingw32/8.1.0/../../../../i686-w64-mingw32/lib/../lib/libwinmm.a(dcnfs00150.o)
                0x0044231c                _imp__timeSetEvent@20
 .idata$5       0x00442320        0x4 C:/Program Files/ETAS/ISOLAR-EVE3.5.0/plugins/com.etas.evetools.toolsfolder_3.5.5/Tools/MinGW/bin/../lib/gcc/i686-w64-mingw32/8.1.0/../../../../i686-w64-mingw32/lib/../lib/libwinmm.a(dcnft.o)
                0x00442324                __IAT_end__ = .
 SORT_BY_NAME(*)(.idata$6)
 .idata$6       0x00442324        0xe C:/Program Files/ETAS/ISOLAR-EVE3.5.0/plugins/com.etas.evetools.toolsfolder_3.5.5/Tools/MinGW/bin/../lib/gcc/i686-w64-mingw32/8.1.0/../../../../i686-w64-mingw32/lib/../lib/libkernel32.a(dgzcs00083.o)
 .idata$6       0x00442332       0x16 C:/Program Files/ETAS/ISOLAR-EVE3.5.0/plugins/com.etas.evetools.toolsfolder_3.5.5/Tools/MinGW/bin/../lib/gcc/i686-w64-mingw32/8.1.0/../../../../i686-w64-mingw32/lib/../lib/libkernel32.a(dgzcs00140.o)
 .idata$6       0x00442348       0x10 C:/Program Files/ETAS/ISOLAR-EVE3.5.0/plugins/com.etas.evetools.toolsfolder_3.5.5/Tools/MinGW/bin/../lib/gcc/i686-w64-mingw32/8.1.0/../../../../i686-w64-mingw32/lib/../lib/libkernel32.a(dgzcs00159.o)
 .idata$6       0x00442358       0x14 C:/Program Files/ETAS/ISOLAR-EVE3.5.0/plugins/com.etas.evetools.toolsfolder_3.5.5/Tools/MinGW/bin/../lib/gcc/i686-w64-mingw32/8.1.0/../../../../i686-w64-mingw32/lib/../lib/libkernel32.a(dgzcs00175.o)
 .idata$6       0x0044236c       0x14 C:/Program Files/ETAS/ISOLAR-EVE3.5.0/plugins/com.etas.evetools.toolsfolder_3.5.5/Tools/MinGW/bin/../lib/gcc/i686-w64-mingw32/8.1.0/../../../../i686-w64-mingw32/lib/../lib/libkernel32.a(dgzcs00178.o)
 .idata$6       0x00442380       0x18 C:/Program Files/ETAS/ISOLAR-EVE3.5.0/plugins/com.etas.evetools.toolsfolder_3.5.5/Tools/MinGW/bin/../lib/gcc/i686-w64-mingw32/8.1.0/../../../../i686-w64-mingw32/lib/../lib/libkernel32.a(dgzcs00214.o)
 .idata$6       0x00442398       0x18 C:/Program Files/ETAS/ISOLAR-EVE3.5.0/plugins/com.etas.evetools.toolsfolder_3.5.5/Tools/MinGW/bin/../lib/gcc/i686-w64-mingw32/8.1.0/../../../../i686-w64-mingw32/lib/../lib/libkernel32.a(dgzcs00242.o)
 .idata$6       0x004423b0        0xe C:/Program Files/ETAS/ISOLAR-EVE3.5.0/plugins/com.etas.evetools.toolsfolder_3.5.5/Tools/MinGW/bin/../lib/gcc/i686-w64-mingw32/8.1.0/../../../../i686-w64-mingw32/lib/../lib/libkernel32.a(dgzcs00286.o)
 .idata$6       0x004423be       0x12 C:/Program Files/ETAS/ISOLAR-EVE3.5.0/plugins/com.etas.evetools.toolsfolder_3.5.5/Tools/MinGW/bin/../lib/gcc/i686-w64-mingw32/8.1.0/../../../../i686-w64-mingw32/lib/../lib/libkernel32.a(dgzcs00354.o)
 .idata$6       0x004423d0        0xe C:/Program Files/ETAS/ISOLAR-EVE3.5.0/plugins/com.etas.evetools.toolsfolder_3.5.5/Tools/MinGW/bin/../lib/gcc/i686-w64-mingw32/8.1.0/../../../../i686-w64-mingw32/lib/../lib/libkernel32.a(dgzcs00359.o)
 .idata$6       0x004423de       0x14 C:/Program Files/ETAS/ISOLAR-EVE3.5.0/plugins/com.etas.evetools.toolsfolder_3.5.5/Tools/MinGW/bin/../lib/gcc/i686-w64-mingw32/8.1.0/../../../../i686-w64-mingw32/lib/../lib/libkernel32.a(dgzcs00455.o)
 .idata$6       0x004423f2       0x16 C:/Program Files/ETAS/ISOLAR-EVE3.5.0/plugins/com.etas.evetools.toolsfolder_3.5.5/Tools/MinGW/bin/../lib/gcc/i686-w64-mingw32/8.1.0/../../../../i686-w64-mingw32/lib/../lib/libkernel32.a(dgzcs00456.o)
 .idata$6       0x00442408       0x16 C:/Program Files/ETAS/ISOLAR-EVE3.5.0/plugins/com.etas.evetools.toolsfolder_3.5.5/Tools/MinGW/bin/../lib/gcc/i686-w64-mingw32/8.1.0/../../../../i686-w64-mingw32/lib/../lib/libkernel32.a(dgzcs00460.o)
 .idata$6       0x0044241e       0x1a C:/Program Files/ETAS/ISOLAR-EVE3.5.0/plugins/com.etas.evetools.toolsfolder_3.5.5/Tools/MinGW/bin/../lib/gcc/i686-w64-mingw32/8.1.0/../../../../i686-w64-mingw32/lib/../lib/libkernel32.a(dgzcs00482.o)
 .idata$6       0x00442438       0x10 C:/Program Files/ETAS/ISOLAR-EVE3.5.0/plugins/com.etas.evetools.toolsfolder_3.5.5/Tools/MinGW/bin/../lib/gcc/i686-w64-mingw32/8.1.0/../../../../i686-w64-mingw32/lib/../lib/libkernel32.a(dgzcs00518.o)
 .idata$6       0x00442448       0x14 C:/Program Files/ETAS/ISOLAR-EVE3.5.0/plugins/com.etas.evetools.toolsfolder_3.5.5/Tools/MinGW/bin/../lib/gcc/i686-w64-mingw32/8.1.0/../../../../i686-w64-mingw32/lib/../lib/libkernel32.a(dgzcs00536.o)
 .idata$6       0x0044245c       0x12 C:/Program Files/ETAS/ISOLAR-EVE3.5.0/plugins/com.etas.evetools.toolsfolder_3.5.5/Tools/MinGW/bin/../lib/gcc/i686-w64-mingw32/8.1.0/../../../../i686-w64-mingw32/lib/../lib/libkernel32.a(dgzcs00584.o)
 .idata$6       0x0044246e       0x12 C:/Program Files/ETAS/ISOLAR-EVE3.5.0/plugins/com.etas.evetools.toolsfolder_3.5.5/Tools/MinGW/bin/../lib/gcc/i686-w64-mingw32/8.1.0/../../../../i686-w64-mingw32/lib/../lib/libkernel32.a(dgzcs00615.o)
 .idata$6       0x00442480       0x1a C:/Program Files/ETAS/ISOLAR-EVE3.5.0/plugins/com.etas.evetools.toolsfolder_3.5.5/Tools/MinGW/bin/../lib/gcc/i686-w64-mingw32/8.1.0/../../../../i686-w64-mingw32/lib/../lib/libkernel32.a(dgzcs00638.o)
 .idata$6       0x0044249a       0x10 C:/Program Files/ETAS/ISOLAR-EVE3.5.0/plugins/com.etas.evetools.toolsfolder_3.5.5/Tools/MinGW/bin/../lib/gcc/i686-w64-mingw32/8.1.0/../../../../i686-w64-mingw32/lib/../lib/libkernel32.a(dgzcs00666.o)
 .idata$6       0x004424aa       0x1c C:/Program Files/ETAS/ISOLAR-EVE3.5.0/plugins/com.etas.evetools.toolsfolder_3.5.5/Tools/MinGW/bin/../lib/gcc/i686-w64-mingw32/8.1.0/../../../../i686-w64-mingw32/lib/../lib/libkernel32.a(dgzcs00750.o)
 .idata$6       0x004424c6       0x18 C:/Program Files/ETAS/ISOLAR-EVE3.5.0/plugins/com.etas.evetools.toolsfolder_3.5.5/Tools/MinGW/bin/../lib/gcc/i686-w64-mingw32/8.1.0/../../../../i686-w64-mingw32/lib/../lib/libkernel32.a(dgzcs00836.o)
 .idata$6       0x004424de       0x10 C:/Program Files/ETAS/ISOLAR-EVE3.5.0/plugins/com.etas.evetools.toolsfolder_3.5.5/Tools/MinGW/bin/../lib/gcc/i686-w64-mingw32/8.1.0/../../../../i686-w64-mingw32/lib/../lib/libkernel32.a(dgzcs00839.o)
 .idata$6       0x004424ee       0x10 C:/Program Files/ETAS/ISOLAR-EVE3.5.0/plugins/com.etas.evetools.toolsfolder_3.5.5/Tools/MinGW/bin/../lib/gcc/i686-w64-mingw32/8.1.0/../../../../i686-w64-mingw32/lib/../lib/libkernel32.a(dgzcs00866.o)
 .idata$6       0x004424fe       0x1a C:/Program Files/ETAS/ISOLAR-EVE3.5.0/plugins/com.etas.evetools.toolsfolder_3.5.5/Tools/MinGW/bin/../lib/gcc/i686-w64-mingw32/8.1.0/../../../../i686-w64-mingw32/lib/../lib/libkernel32.a(dgzcs00949.o)
 .idata$6       0x00442518       0x1c C:/Program Files/ETAS/ISOLAR-EVE3.5.0/plugins/com.etas.evetools.toolsfolder_3.5.5/Tools/MinGW/bin/../lib/gcc/i686-w64-mingw32/8.1.0/../../../../i686-w64-mingw32/lib/../lib/libkernel32.a(dgzcs00950.o)
 .idata$6       0x00442534       0x10 C:/Program Files/ETAS/ISOLAR-EVE3.5.0/plugins/com.etas.evetools.toolsfolder_3.5.5/Tools/MinGW/bin/../lib/gcc/i686-w64-mingw32/8.1.0/../../../../i686-w64-mingw32/lib/../lib/libkernel32.a(dgzcs00993.o)
 .idata$6       0x00442544       0x14 C:/Program Files/ETAS/ISOLAR-EVE3.5.0/plugins/com.etas.evetools.toolsfolder_3.5.5/Tools/MinGW/bin/../lib/gcc/i686-w64-mingw32/8.1.0/../../../../i686-w64-mingw32/lib/../lib/libkernel32.a(dgzcs00997.o)
 .idata$6       0x00442558       0x10 C:/Program Files/ETAS/ISOLAR-EVE3.5.0/plugins/com.etas.evetools.toolsfolder_3.5.5/Tools/MinGW/bin/../lib/gcc/i686-w64-mingw32/8.1.0/../../../../i686-w64-mingw32/lib/../lib/libkernel32.a(dgzcs01114.o)
 .idata$6       0x00442568       0x1e C:/Program Files/ETAS/ISOLAR-EVE3.5.0/plugins/com.etas.evetools.toolsfolder_3.5.5/Tools/MinGW/bin/../lib/gcc/i686-w64-mingw32/8.1.0/../../../../i686-w64-mingw32/lib/../lib/libkernel32.a(dgzcs01163.o)
 .idata$6       0x00442586        0x8 C:/Program Files/ETAS/ISOLAR-EVE3.5.0/plugins/com.etas.evetools.toolsfolder_3.5.5/Tools/MinGW/bin/../lib/gcc/i686-w64-mingw32/8.1.0/../../../../i686-w64-mingw32/lib/../lib/libkernel32.a(dgzcs01176.o)
 .idata$6       0x0044258e       0x12 C:/Program Files/ETAS/ISOLAR-EVE3.5.0/plugins/com.etas.evetools.toolsfolder_3.5.5/Tools/MinGW/bin/../lib/gcc/i686-w64-mingw32/8.1.0/../../../../i686-w64-mingw32/lib/../lib/libkernel32.a(dgzcs01186.o)
 .idata$6       0x004425a0       0x14 C:/Program Files/ETAS/ISOLAR-EVE3.5.0/plugins/com.etas.evetools.toolsfolder_3.5.5/Tools/MinGW/bin/../lib/gcc/i686-w64-mingw32/8.1.0/../../../../i686-w64-mingw32/lib/../lib/libkernel32.a(dgzcs01190.o)
 .idata$6       0x004425b4        0xc C:/Program Files/ETAS/ISOLAR-EVE3.5.0/plugins/com.etas.evetools.toolsfolder_3.5.5/Tools/MinGW/bin/../lib/gcc/i686-w64-mingw32/8.1.0/../../../../i686-w64-mingw32/lib/../lib/libkernel32.a(dgzcs01195.o)
 .idata$6       0x004425c0        0xa C:/Program Files/ETAS/ISOLAR-EVE3.5.0/plugins/com.etas.evetools.toolsfolder_3.5.5/Tools/MinGW/bin/../lib/gcc/i686-w64-mingw32/8.1.0/../../../../i686-w64-mingw32/lib/../lib/libkernel32.a(dgzcs01196.o)
 .idata$6       0x004425ca        0xe C:/Program Files/ETAS/ISOLAR-EVE3.5.0/plugins/com.etas.evetools.toolsfolder_3.5.5/Tools/MinGW/bin/../lib/gcc/i686-w64-mingw32/8.1.0/../../../../i686-w64-mingw32/lib/../lib/libkernel32.a(dgzcs01197.o)
 .idata$6       0x004425d8        0xe C:/Program Files/ETAS/ISOLAR-EVE3.5.0/plugins/com.etas.evetools.toolsfolder_3.5.5/Tools/MinGW/bin/../lib/gcc/i686-w64-mingw32/8.1.0/../../../../i686-w64-mingw32/lib/../lib/libkernel32.a(dgzcs01198.o)
 .idata$6       0x004425e6       0x1c C:/Program Files/ETAS/ISOLAR-EVE3.5.0/plugins/com.etas.evetools.toolsfolder_3.5.5/Tools/MinGW/bin/../lib/gcc/i686-w64-mingw32/8.1.0/../../../../i686-w64-mingw32/lib/../lib/libkernel32.a(dgzcs01210.o)
 .idata$6       0x00442602       0x12 C:/Program Files/ETAS/ISOLAR-EVE3.5.0/plugins/com.etas.evetools.toolsfolder_3.5.5/Tools/MinGW/bin/../lib/gcc/i686-w64-mingw32/8.1.0/../../../../i686-w64-mingw32/lib/../lib/libkernel32.a(dgzcs01243.o)
 .idata$6       0x00442614       0x10 C:/Program Files/ETAS/ISOLAR-EVE3.5.0/plugins/com.etas.evetools.toolsfolder_3.5.5/Tools/MinGW/bin/../lib/gcc/i686-w64-mingw32/8.1.0/../../../../i686-w64-mingw32/lib/../lib/libkernel32.a(dgzcs01246.o)
 .idata$6       0x00442624       0x16 C:/Program Files/ETAS/ISOLAR-EVE3.5.0/plugins/com.etas.evetools.toolsfolder_3.5.5/Tools/MinGW/bin/../lib/gcc/i686-w64-mingw32/8.1.0/../../../../i686-w64-mingw32/lib/../lib/libkernel32.a(dgzcs01255.o)
 .idata$6       0x0044263a       0x10 C:/Program Files/ETAS/ISOLAR-EVE3.5.0/plugins/com.etas.evetools.toolsfolder_3.5.5/Tools/MinGW/bin/../lib/gcc/i686-w64-mingw32/8.1.0/../../../../i686-w64-mingw32/lib/../lib/libmsvcrt.a(dwbes00058.o)
 .idata$6       0x0044264a        0xc C:/Program Files/ETAS/ISOLAR-EVE3.5.0/plugins/com.etas.evetools.toolsfolder_3.5.5/Tools/MinGW/bin/../lib/gcc/i686-w64-mingw32/8.1.0/../../../../i686-w64-mingw32/lib/../lib/libmsvcrt.a(dwbes00059.o)
 .idata$6       0x00442656       0x10 C:/Program Files/ETAS/ISOLAR-EVE3.5.0/plugins/com.etas.evetools.toolsfolder_3.5.5/Tools/MinGW/bin/../lib/gcc/i686-w64-mingw32/8.1.0/../../../../i686-w64-mingw32/lib/../lib/libmsvcrt.a(dwbes00068.o)
 .idata$6       0x00442666        0xe C:/Program Files/ETAS/ISOLAR-EVE3.5.0/plugins/com.etas.evetools.toolsfolder_3.5.5/Tools/MinGW/bin/../lib/gcc/i686-w64-mingw32/8.1.0/../../../../i686-w64-mingw32/lib/../lib/libmsvcrt.a(dwbes00076.o)
 .idata$6       0x00442674        0xe C:/Program Files/ETAS/ISOLAR-EVE3.5.0/plugins/com.etas.evetools.toolsfolder_3.5.5/Tools/MinGW/bin/../lib/gcc/i686-w64-mingw32/8.1.0/../../../../i686-w64-mingw32/lib/../lib/libmsvcrt.a(dwbes00083.o)
 .idata$6       0x00442682       0x12 C:/Program Files/ETAS/ISOLAR-EVE3.5.0/plugins/com.etas.evetools.toolsfolder_3.5.5/Tools/MinGW/bin/../lib/gcc/i686-w64-mingw32/8.1.0/../../../../i686-w64-mingw32/lib/../lib/libmsvcrt.a(dwbes00104.o)
 .idata$6       0x00442694       0x14 C:/Program Files/ETAS/ISOLAR-EVE3.5.0/plugins/com.etas.evetools.toolsfolder_3.5.5/Tools/MinGW/bin/../lib/gcc/i686-w64-mingw32/8.1.0/../../../../i686-w64-mingw32/lib/../lib/libmsvcrt.a(dwbes00107.o)
 .idata$6       0x004426a8        0xe C:/Program Files/ETAS/ISOLAR-EVE3.5.0/plugins/com.etas.evetools.toolsfolder_3.5.5/Tools/MinGW/bin/../lib/gcc/i686-w64-mingw32/8.1.0/../../../../i686-w64-mingw32/lib/../lib/libmsvcrt.a(dwbes00144.o)
 .idata$6       0x004426b6        0xa C:/Program Files/ETAS/ISOLAR-EVE3.5.0/plugins/com.etas.evetools.toolsfolder_3.5.5/Tools/MinGW/bin/../lib/gcc/i686-w64-mingw32/8.1.0/../../../../i686-w64-mingw32/lib/../lib/libmsvcrt.a(dwbes00161.o)
 .idata$6       0x004426c0        0xc C:/Program Files/ETAS/ISOLAR-EVE3.5.0/plugins/com.etas.evetools.toolsfolder_3.5.5/Tools/MinGW/bin/../lib/gcc/i686-w64-mingw32/8.1.0/../../../../i686-w64-mingw32/lib/../lib/libmsvcrt.a(dwbes00351.o)
 .idata$6       0x004426cc        0x8 C:/Program Files/ETAS/ISOLAR-EVE3.5.0/plugins/com.etas.evetools.toolsfolder_3.5.5/Tools/MinGW/bin/../lib/gcc/i686-w64-mingw32/8.1.0/../../../../i686-w64-mingw32/lib/../lib/libmsvcrt.a(dwbes00355.o)
 .idata$6       0x004426d4        0xa C:/Program Files/ETAS/ISOLAR-EVE3.5.0/plugins/com.etas.evetools.toolsfolder_3.5.5/Tools/MinGW/bin/../lib/gcc/i686-w64-mingw32/8.1.0/../../../../i686-w64-mingw32/lib/../lib/libmsvcrt.a(dwbes00629.o)
 .idata$6       0x004426de        0xa C:/Program Files/ETAS/ISOLAR-EVE3.5.0/plugins/com.etas.evetools.toolsfolder_3.5.5/Tools/MinGW/bin/../lib/gcc/i686-w64-mingw32/8.1.0/../../../../i686-w64-mingw32/lib/../lib/libmsvcrt.a(dwbes01010.o)
 .idata$6       0x004426e8        0x8 C:/Program Files/ETAS/ISOLAR-EVE3.5.0/plugins/com.etas.evetools.toolsfolder_3.5.5/Tools/MinGW/bin/../lib/gcc/i686-w64-mingw32/8.1.0/../../../../i686-w64-mingw32/lib/../lib/libmsvcrt.a(dwbes01057.o)
 .idata$6       0x004426f0        0x8 C:/Program Files/ETAS/ISOLAR-EVE3.5.0/plugins/com.etas.evetools.toolsfolder_3.5.5/Tools/MinGW/bin/../lib/gcc/i686-w64-mingw32/8.1.0/../../../../i686-w64-mingw32/lib/../lib/libmsvcrt.a(dwbes01066.o)
 .idata$6       0x004426f8        0xa C:/Program Files/ETAS/ISOLAR-EVE3.5.0/plugins/com.etas.evetools.toolsfolder_3.5.5/Tools/MinGW/bin/../lib/gcc/i686-w64-mingw32/8.1.0/../../../../i686-w64-mingw32/lib/../lib/libmsvcrt.a(dwbes01076.o)
 .idata$6       0x00442702        0x8 C:/Program Files/ETAS/ISOLAR-EVE3.5.0/plugins/com.etas.evetools.toolsfolder_3.5.5/Tools/MinGW/bin/../lib/gcc/i686-w64-mingw32/8.1.0/../../../../i686-w64-mingw32/lib/../lib/libmsvcrt.a(dwbes01081.o)
 .idata$6       0x0044270a        0xa C:/Program Files/ETAS/ISOLAR-EVE3.5.0/plugins/com.etas.evetools.toolsfolder_3.5.5/Tools/MinGW/bin/../lib/gcc/i686-w64-mingw32/8.1.0/../../../../i686-w64-mingw32/lib/../lib/libmsvcrt.a(dwbes01084.o)
 .idata$6       0x00442714        0xa C:/Program Files/ETAS/ISOLAR-EVE3.5.0/plugins/com.etas.evetools.toolsfolder_3.5.5/Tools/MinGW/bin/../lib/gcc/i686-w64-mingw32/8.1.0/../../../../i686-w64-mingw32/lib/../lib/libmsvcrt.a(dwbes01087.o)
 .idata$6       0x0044271e        0x8 C:/Program Files/ETAS/ISOLAR-EVE3.5.0/plugins/com.etas.evetools.toolsfolder_3.5.5/Tools/MinGW/bin/../lib/gcc/i686-w64-mingw32/8.1.0/../../../../i686-w64-mingw32/lib/../lib/libmsvcrt.a(dwbes01095.o)
 .idata$6       0x00442726        0xa C:/Program Files/ETAS/ISOLAR-EVE3.5.0/plugins/com.etas.evetools.toolsfolder_3.5.5/Tools/MinGW/bin/../lib/gcc/i686-w64-mingw32/8.1.0/../../../../i686-w64-mingw32/lib/../lib/libmsvcrt.a(dwbes01097.o)
 .idata$6       0x00442730        0x8 C:/Program Files/ETAS/ISOLAR-EVE3.5.0/plugins/com.etas.evetools.toolsfolder_3.5.5/Tools/MinGW/bin/../lib/gcc/i686-w64-mingw32/8.1.0/../../../../i686-w64-mingw32/lib/../lib/libmsvcrt.a(dwbes01099.o)
 .idata$6       0x00442738        0x8 C:/Program Files/ETAS/ISOLAR-EVE3.5.0/plugins/com.etas.evetools.toolsfolder_3.5.5/Tools/MinGW/bin/../lib/gcc/i686-w64-mingw32/8.1.0/../../../../i686-w64-mingw32/lib/../lib/libmsvcrt.a(dwbes01100.o)
 .idata$6       0x00442740        0x8 C:/Program Files/ETAS/ISOLAR-EVE3.5.0/plugins/com.etas.evetools.toolsfolder_3.5.5/Tools/MinGW/bin/../lib/gcc/i686-w64-mingw32/8.1.0/../../../../i686-w64-mingw32/lib/../lib/libmsvcrt.a(dwbes01104.o)
 .idata$6       0x00442748        0xa C:/Program Files/ETAS/ISOLAR-EVE3.5.0/plugins/com.etas.evetools.toolsfolder_3.5.5/Tools/MinGW/bin/../lib/gcc/i686-w64-mingw32/8.1.0/../../../../i686-w64-mingw32/lib/../lib/libmsvcrt.a(dwbes01118.o)
 .idata$6       0x00442752        0xa C:/Program Files/ETAS/ISOLAR-EVE3.5.0/plugins/com.etas.evetools.toolsfolder_3.5.5/Tools/MinGW/bin/../lib/gcc/i686-w64-mingw32/8.1.0/../../../../i686-w64-mingw32/lib/../lib/libmsvcrt.a(dwbes01163.o)
 .idata$6       0x0044275c        0xa C:/Program Files/ETAS/ISOLAR-EVE3.5.0/plugins/com.etas.evetools.toolsfolder_3.5.5/Tools/MinGW/bin/../lib/gcc/i686-w64-mingw32/8.1.0/../../../../i686-w64-mingw32/lib/../lib/libmsvcrt.a(dwbes01172.o)
 .idata$6       0x00442766        0xa C:/Program Files/ETAS/ISOLAR-EVE3.5.0/plugins/com.etas.evetools.toolsfolder_3.5.5/Tools/MinGW/bin/../lib/gcc/i686-w64-mingw32/8.1.0/../../../../i686-w64-mingw32/lib/../lib/libmsvcrt.a(dwbes01174.o)
 .idata$6       0x00442770        0xa C:/Program Files/ETAS/ISOLAR-EVE3.5.0/plugins/com.etas.evetools.toolsfolder_3.5.5/Tools/MinGW/bin/../lib/gcc/i686-w64-mingw32/8.1.0/../../../../i686-w64-mingw32/lib/../lib/libmsvcrt.a(dwbes01190.o)
 .idata$6       0x0044277a        0xa C:/Program Files/ETAS/ISOLAR-EVE3.5.0/plugins/com.etas.evetools.toolsfolder_3.5.5/Tools/MinGW/bin/../lib/gcc/i686-w64-mingw32/8.1.0/../../../../i686-w64-mingw32/lib/../lib/libmsvcrt.a(dwbes01199.o)
 .idata$6       0x00442784        0xa C:/Program Files/ETAS/ISOLAR-EVE3.5.0/plugins/com.etas.evetools.toolsfolder_3.5.5/Tools/MinGW/bin/../lib/gcc/i686-w64-mingw32/8.1.0/../../../../i686-w64-mingw32/lib/../lib/libmsvcrt.a(dwbes01202.o)
 .idata$6       0x0044278e        0xa C:/Program Files/ETAS/ISOLAR-EVE3.5.0/plugins/com.etas.evetools.toolsfolder_3.5.5/Tools/MinGW/bin/../lib/gcc/i686-w64-mingw32/8.1.0/../../../../i686-w64-mingw32/lib/../lib/libmsvcrt.a(dwbes01207.o)
 .idata$6       0x00442798        0xa C:/Program Files/ETAS/ISOLAR-EVE3.5.0/plugins/com.etas.evetools.toolsfolder_3.5.5/Tools/MinGW/bin/../lib/gcc/i686-w64-mingw32/8.1.0/../../../../i686-w64-mingw32/lib/../lib/libmsvcrt.a(dwbes01210.o)
 .idata$6       0x004427a2        0xa C:/Program Files/ETAS/ISOLAR-EVE3.5.0/plugins/com.etas.evetools.toolsfolder_3.5.5/Tools/MinGW/bin/../lib/gcc/i686-w64-mingw32/8.1.0/../../../../i686-w64-mingw32/lib/../lib/libmsvcrt.a(dwbes01212.o)
 .idata$6       0x004427ac        0xa C:/Program Files/ETAS/ISOLAR-EVE3.5.0/plugins/com.etas.evetools.toolsfolder_3.5.5/Tools/MinGW/bin/../lib/gcc/i686-w64-mingw32/8.1.0/../../../../i686-w64-mingw32/lib/../lib/libmsvcrt.a(dwbes01217.o)
 .idata$6       0x004427b6        0xa C:/Program Files/ETAS/ISOLAR-EVE3.5.0/plugins/com.etas.evetools.toolsfolder_3.5.5/Tools/MinGW/bin/../lib/gcc/i686-w64-mingw32/8.1.0/../../../../i686-w64-mingw32/lib/../lib/libmsvcrt.a(dwbes01220.o)
 .idata$6       0x004427c0        0xa C:/Program Files/ETAS/ISOLAR-EVE3.5.0/plugins/com.etas.evetools.toolsfolder_3.5.5/Tools/MinGW/bin/../lib/gcc/i686-w64-mingw32/8.1.0/../../../../i686-w64-mingw32/lib/../lib/libmsvcrt.a(dwbes01221.o)
 .idata$6       0x004427ca        0xc C:/Program Files/ETAS/ISOLAR-EVE3.5.0/plugins/com.etas.evetools.toolsfolder_3.5.5/Tools/MinGW/bin/../lib/gcc/i686-w64-mingw32/8.1.0/../../../../i686-w64-mingw32/lib/../lib/libmsvcrt.a(dwbes01253.o)
 .idata$6       0x004427d6        0xc C:/Program Files/ETAS/ISOLAR-EVE3.5.0/plugins/com.etas.evetools.toolsfolder_3.5.5/Tools/MinGW/bin/../lib/gcc/i686-w64-mingw32/8.1.0/../../../../i686-w64-mingw32/lib/../lib/libmsvcrt.a(dwbes01258.o)
 .idata$6       0x004427e2        0xe C:/Program Files/ETAS/ISOLAR-EVE3.5.0/plugins/com.etas.evetools.toolsfolder_3.5.5/Tools/MinGW/bin/../lib/gcc/i686-w64-mingw32/8.1.0/../../../../i686-w64-mingw32/lib/../lib/libuser32.a(dmces00588.o)
 .idata$6       0x004427f0       0x12 C:/Program Files/ETAS/ISOLAR-EVE3.5.0/plugins/com.etas.evetools.toolsfolder_3.5.5/Tools/MinGW/bin/../lib/gcc/i686-w64-mingw32/8.1.0/../../../../i686-w64-mingw32/lib/../lib/libwinmm.a(dcnfs00144.o)
 .idata$6       0x00442802       0x10 C:/Program Files/ETAS/ISOLAR-EVE3.5.0/plugins/com.etas.evetools.toolsfolder_3.5.5/Tools/MinGW/bin/../lib/gcc/i686-w64-mingw32/8.1.0/../../../../i686-w64-mingw32/lib/../lib/libwinmm.a(dcnfs00149.o)
 .idata$6       0x00442812       0x10 C:/Program Files/ETAS/ISOLAR-EVE3.5.0/plugins/com.etas.evetools.toolsfolder_3.5.5/Tools/MinGW/bin/../lib/gcc/i686-w64-mingw32/8.1.0/../../../../i686-w64-mingw32/lib/../lib/libwinmm.a(dcnfs00150.o)
 SORT_BY_NAME(*)(.idata$7)
 *fill*         0x00442822        0x2 
 .idata$7       0x00442824        0x4 C:/Program Files/ETAS/ISOLAR-EVE3.5.0/plugins/com.etas.evetools.toolsfolder_3.5.5/Tools/MinGW/bin/../lib/gcc/i686-w64-mingw32/8.1.0/../../../../i686-w64-mingw32/lib/../lib/libkernel32.a(dgzcs00083.o)
 .idata$7       0x00442828        0x4 C:/Program Files/ETAS/ISOLAR-EVE3.5.0/plugins/com.etas.evetools.toolsfolder_3.5.5/Tools/MinGW/bin/../lib/gcc/i686-w64-mingw32/8.1.0/../../../../i686-w64-mingw32/lib/../lib/libkernel32.a(dgzcs00140.o)
 .idata$7       0x0044282c        0x4 C:/Program Files/ETAS/ISOLAR-EVE3.5.0/plugins/com.etas.evetools.toolsfolder_3.5.5/Tools/MinGW/bin/../lib/gcc/i686-w64-mingw32/8.1.0/../../../../i686-w64-mingw32/lib/../lib/libkernel32.a(dgzcs00159.o)
 .idata$7       0x00442830        0x4 C:/Program Files/ETAS/ISOLAR-EVE3.5.0/plugins/com.etas.evetools.toolsfolder_3.5.5/Tools/MinGW/bin/../lib/gcc/i686-w64-mingw32/8.1.0/../../../../i686-w64-mingw32/lib/../lib/libkernel32.a(dgzcs00175.o)
 .idata$7       0x00442834        0x4 C:/Program Files/ETAS/ISOLAR-EVE3.5.0/plugins/com.etas.evetools.toolsfolder_3.5.5/Tools/MinGW/bin/../lib/gcc/i686-w64-mingw32/8.1.0/../../../../i686-w64-mingw32/lib/../lib/libkernel32.a(dgzcs00178.o)
 .idata$7       0x00442838        0x4 C:/Program Files/ETAS/ISOLAR-EVE3.5.0/plugins/com.etas.evetools.toolsfolder_3.5.5/Tools/MinGW/bin/../lib/gcc/i686-w64-mingw32/8.1.0/../../../../i686-w64-mingw32/lib/../lib/libkernel32.a(dgzcs00214.o)
 .idata$7       0x0044283c        0x4 C:/Program Files/ETAS/ISOLAR-EVE3.5.0/plugins/com.etas.evetools.toolsfolder_3.5.5/Tools/MinGW/bin/../lib/gcc/i686-w64-mingw32/8.1.0/../../../../i686-w64-mingw32/lib/../lib/libkernel32.a(dgzcs00242.o)
 .idata$7       0x00442840        0x4 C:/Program Files/ETAS/ISOLAR-EVE3.5.0/plugins/com.etas.evetools.toolsfolder_3.5.5/Tools/MinGW/bin/../lib/gcc/i686-w64-mingw32/8.1.0/../../../../i686-w64-mingw32/lib/../lib/libkernel32.a(dgzcs00286.o)
 .idata$7       0x00442844        0x4 C:/Program Files/ETAS/ISOLAR-EVE3.5.0/plugins/com.etas.evetools.toolsfolder_3.5.5/Tools/MinGW/bin/../lib/gcc/i686-w64-mingw32/8.1.0/../../../../i686-w64-mingw32/lib/../lib/libkernel32.a(dgzcs00354.o)
 .idata$7       0x00442848        0x4 C:/Program Files/ETAS/ISOLAR-EVE3.5.0/plugins/com.etas.evetools.toolsfolder_3.5.5/Tools/MinGW/bin/../lib/gcc/i686-w64-mingw32/8.1.0/../../../../i686-w64-mingw32/lib/../lib/libkernel32.a(dgzcs00359.o)
 .idata$7       0x0044284c        0x4 C:/Program Files/ETAS/ISOLAR-EVE3.5.0/plugins/com.etas.evetools.toolsfolder_3.5.5/Tools/MinGW/bin/../lib/gcc/i686-w64-mingw32/8.1.0/../../../../i686-w64-mingw32/lib/../lib/libkernel32.a(dgzcs00455.o)
 .idata$7       0x00442850        0x4 C:/Program Files/ETAS/ISOLAR-EVE3.5.0/plugins/com.etas.evetools.toolsfolder_3.5.5/Tools/MinGW/bin/../lib/gcc/i686-w64-mingw32/8.1.0/../../../../i686-w64-mingw32/lib/../lib/libkernel32.a(dgzcs00456.o)
 .idata$7       0x00442854        0x4 C:/Program Files/ETAS/ISOLAR-EVE3.5.0/plugins/com.etas.evetools.toolsfolder_3.5.5/Tools/MinGW/bin/../lib/gcc/i686-w64-mingw32/8.1.0/../../../../i686-w64-mingw32/lib/../lib/libkernel32.a(dgzcs00460.o)
 .idata$7       0x00442858        0x4 C:/Program Files/ETAS/ISOLAR-EVE3.5.0/plugins/com.etas.evetools.toolsfolder_3.5.5/Tools/MinGW/bin/../lib/gcc/i686-w64-mingw32/8.1.0/../../../../i686-w64-mingw32/lib/../lib/libkernel32.a(dgzcs00482.o)
 .idata$7       0x0044285c        0x4 C:/Program Files/ETAS/ISOLAR-EVE3.5.0/plugins/com.etas.evetools.toolsfolder_3.5.5/Tools/MinGW/bin/../lib/gcc/i686-w64-mingw32/8.1.0/../../../../i686-w64-mingw32/lib/../lib/libkernel32.a(dgzcs00518.o)
 .idata$7       0x00442860        0x4 C:/Program Files/ETAS/ISOLAR-EVE3.5.0/plugins/com.etas.evetools.toolsfolder_3.5.5/Tools/MinGW/bin/../lib/gcc/i686-w64-mingw32/8.1.0/../../../../i686-w64-mingw32/lib/../lib/libkernel32.a(dgzcs00536.o)
 .idata$7       0x00442864        0x4 C:/Program Files/ETAS/ISOLAR-EVE3.5.0/plugins/com.etas.evetools.toolsfolder_3.5.5/Tools/MinGW/bin/../lib/gcc/i686-w64-mingw32/8.1.0/../../../../i686-w64-mingw32/lib/../lib/libkernel32.a(dgzcs00584.o)
 .idata$7       0x00442868        0x4 C:/Program Files/ETAS/ISOLAR-EVE3.5.0/plugins/com.etas.evetools.toolsfolder_3.5.5/Tools/MinGW/bin/../lib/gcc/i686-w64-mingw32/8.1.0/../../../../i686-w64-mingw32/lib/../lib/libkernel32.a(dgzcs00615.o)
 .idata$7       0x0044286c        0x4 C:/Program Files/ETAS/ISOLAR-EVE3.5.0/plugins/com.etas.evetools.toolsfolder_3.5.5/Tools/MinGW/bin/../lib/gcc/i686-w64-mingw32/8.1.0/../../../../i686-w64-mingw32/lib/../lib/libkernel32.a(dgzcs00638.o)
 .idata$7       0x00442870        0x4 C:/Program Files/ETAS/ISOLAR-EVE3.5.0/plugins/com.etas.evetools.toolsfolder_3.5.5/Tools/MinGW/bin/../lib/gcc/i686-w64-mingw32/8.1.0/../../../../i686-w64-mingw32/lib/../lib/libkernel32.a(dgzcs00666.o)
 .idata$7       0x00442874        0x4 C:/Program Files/ETAS/ISOLAR-EVE3.5.0/plugins/com.etas.evetools.toolsfolder_3.5.5/Tools/MinGW/bin/../lib/gcc/i686-w64-mingw32/8.1.0/../../../../i686-w64-mingw32/lib/../lib/libkernel32.a(dgzcs00750.o)
 .idata$7       0x00442878        0x4 C:/Program Files/ETAS/ISOLAR-EVE3.5.0/plugins/com.etas.evetools.toolsfolder_3.5.5/Tools/MinGW/bin/../lib/gcc/i686-w64-mingw32/8.1.0/../../../../i686-w64-mingw32/lib/../lib/libkernel32.a(dgzcs00836.o)
 .idata$7       0x0044287c        0x4 C:/Program Files/ETAS/ISOLAR-EVE3.5.0/plugins/com.etas.evetools.toolsfolder_3.5.5/Tools/MinGW/bin/../lib/gcc/i686-w64-mingw32/8.1.0/../../../../i686-w64-mingw32/lib/../lib/libkernel32.a(dgzcs00839.o)
 .idata$7       0x00442880        0x4 C:/Program Files/ETAS/ISOLAR-EVE3.5.0/plugins/com.etas.evetools.toolsfolder_3.5.5/Tools/MinGW/bin/../lib/gcc/i686-w64-mingw32/8.1.0/../../../../i686-w64-mingw32/lib/../lib/libkernel32.a(dgzcs00866.o)
 .idata$7       0x00442884        0x4 C:/Program Files/ETAS/ISOLAR-EVE3.5.0/plugins/com.etas.evetools.toolsfolder_3.5.5/Tools/MinGW/bin/../lib/gcc/i686-w64-mingw32/8.1.0/../../../../i686-w64-mingw32/lib/../lib/libkernel32.a(dgzcs00949.o)
 .idata$7       0x00442888        0x4 C:/Program Files/ETAS/ISOLAR-EVE3.5.0/plugins/com.etas.evetools.toolsfolder_3.5.5/Tools/MinGW/bin/../lib/gcc/i686-w64-mingw32/8.1.0/../../../../i686-w64-mingw32/lib/../lib/libkernel32.a(dgzcs00950.o)
 .idata$7       0x0044288c        0x4 C:/Program Files/ETAS/ISOLAR-EVE3.5.0/plugins/com.etas.evetools.toolsfolder_3.5.5/Tools/MinGW/bin/../lib/gcc/i686-w64-mingw32/8.1.0/../../../../i686-w64-mingw32/lib/../lib/libkernel32.a(dgzcs00993.o)
 .idata$7       0x00442890        0x4 C:/Program Files/ETAS/ISOLAR-EVE3.5.0/plugins/com.etas.evetools.toolsfolder_3.5.5/Tools/MinGW/bin/../lib/gcc/i686-w64-mingw32/8.1.0/../../../../i686-w64-mingw32/lib/../lib/libkernel32.a(dgzcs00997.o)
 .idata$7       0x00442894        0x4 C:/Program Files/ETAS/ISOLAR-EVE3.5.0/plugins/com.etas.evetools.toolsfolder_3.5.5/Tools/MinGW/bin/../lib/gcc/i686-w64-mingw32/8.1.0/../../../../i686-w64-mingw32/lib/../lib/libkernel32.a(dgzcs01114.o)
 .idata$7       0x00442898        0x4 C:/Program Files/ETAS/ISOLAR-EVE3.5.0/plugins/com.etas.evetools.toolsfolder_3.5.5/Tools/MinGW/bin/../lib/gcc/i686-w64-mingw32/8.1.0/../../../../i686-w64-mingw32/lib/../lib/libkernel32.a(dgzcs01163.o)
 .idata$7       0x0044289c        0x4 C:/Program Files/ETAS/ISOLAR-EVE3.5.0/plugins/com.etas.evetools.toolsfolder_3.5.5/Tools/MinGW/bin/../lib/gcc/i686-w64-mingw32/8.1.0/../../../../i686-w64-mingw32/lib/../lib/libkernel32.a(dgzcs01176.o)
 .idata$7       0x004428a0        0x4 C:/Program Files/ETAS/ISOLAR-EVE3.5.0/plugins/com.etas.evetools.toolsfolder_3.5.5/Tools/MinGW/bin/../lib/gcc/i686-w64-mingw32/8.1.0/../../../../i686-w64-mingw32/lib/../lib/libkernel32.a(dgzcs01186.o)
 .idata$7       0x004428a4        0x4 C:/Program Files/ETAS/ISOLAR-EVE3.5.0/plugins/com.etas.evetools.toolsfolder_3.5.5/Tools/MinGW/bin/../lib/gcc/i686-w64-mingw32/8.1.0/../../../../i686-w64-mingw32/lib/../lib/libkernel32.a(dgzcs01190.o)
 .idata$7       0x004428a8        0x4 C:/Program Files/ETAS/ISOLAR-EVE3.5.0/plugins/com.etas.evetools.toolsfolder_3.5.5/Tools/MinGW/bin/../lib/gcc/i686-w64-mingw32/8.1.0/../../../../i686-w64-mingw32/lib/../lib/libkernel32.a(dgzcs01195.o)
 .idata$7       0x004428ac        0x4 C:/Program Files/ETAS/ISOLAR-EVE3.5.0/plugins/com.etas.evetools.toolsfolder_3.5.5/Tools/MinGW/bin/../lib/gcc/i686-w64-mingw32/8.1.0/../../../../i686-w64-mingw32/lib/../lib/libkernel32.a(dgzcs01196.o)
 .idata$7       0x004428b0        0x4 C:/Program Files/ETAS/ISOLAR-EVE3.5.0/plugins/com.etas.evetools.toolsfolder_3.5.5/Tools/MinGW/bin/../lib/gcc/i686-w64-mingw32/8.1.0/../../../../i686-w64-mingw32/lib/../lib/libkernel32.a(dgzcs01197.o)
 .idata$7       0x004428b4        0x4 C:/Program Files/ETAS/ISOLAR-EVE3.5.0/plugins/com.etas.evetools.toolsfolder_3.5.5/Tools/MinGW/bin/../lib/gcc/i686-w64-mingw32/8.1.0/../../../../i686-w64-mingw32/lib/../lib/libkernel32.a(dgzcs01198.o)
 .idata$7       0x004428b8        0x4 C:/Program Files/ETAS/ISOLAR-EVE3.5.0/plugins/com.etas.evetools.toolsfolder_3.5.5/Tools/MinGW/bin/../lib/gcc/i686-w64-mingw32/8.1.0/../../../../i686-w64-mingw32/lib/../lib/libkernel32.a(dgzcs01210.o)
 .idata$7       0x004428bc        0x4 C:/Program Files/ETAS/ISOLAR-EVE3.5.0/plugins/com.etas.evetools.toolsfolder_3.5.5/Tools/MinGW/bin/../lib/gcc/i686-w64-mingw32/8.1.0/../../../../i686-w64-mingw32/lib/../lib/libkernel32.a(dgzcs01243.o)
 .idata$7       0x004428c0        0x4 C:/Program Files/ETAS/ISOLAR-EVE3.5.0/plugins/com.etas.evetools.toolsfolder_3.5.5/Tools/MinGW/bin/../lib/gcc/i686-w64-mingw32/8.1.0/../../../../i686-w64-mingw32/lib/../lib/libkernel32.a(dgzcs01246.o)
 .idata$7       0x004428c4        0x4 C:/Program Files/ETAS/ISOLAR-EVE3.5.0/plugins/com.etas.evetools.toolsfolder_3.5.5/Tools/MinGW/bin/../lib/gcc/i686-w64-mingw32/8.1.0/../../../../i686-w64-mingw32/lib/../lib/libkernel32.a(dgzcs01255.o)
 .idata$7       0x004428c8       0x10 C:/Program Files/ETAS/ISOLAR-EVE3.5.0/plugins/com.etas.evetools.toolsfolder_3.5.5/Tools/MinGW/bin/../lib/gcc/i686-w64-mingw32/8.1.0/../../../../i686-w64-mingw32/lib/../lib/libkernel32.a(dgzct.o)
                0x004428c8                _lib32_libkernel32_a_iname
 .idata$7       0x004428d8        0x4 C:/Program Files/ETAS/ISOLAR-EVE3.5.0/plugins/com.etas.evetools.toolsfolder_3.5.5/Tools/MinGW/bin/../lib/gcc/i686-w64-mingw32/8.1.0/../../../../i686-w64-mingw32/lib/../lib/libmsvcrt.a(dwbes00058.o)
 .idata$7       0x004428dc        0x4 C:/Program Files/ETAS/ISOLAR-EVE3.5.0/plugins/com.etas.evetools.toolsfolder_3.5.5/Tools/MinGW/bin/../lib/gcc/i686-w64-mingw32/8.1.0/../../../../i686-w64-mingw32/lib/../lib/libmsvcrt.a(dwbes00059.o)
 .idata$7       0x004428e0        0x4 C:/Program Files/ETAS/ISOLAR-EVE3.5.0/plugins/com.etas.evetools.toolsfolder_3.5.5/Tools/MinGW/bin/../lib/gcc/i686-w64-mingw32/8.1.0/../../../../i686-w64-mingw32/lib/../lib/libmsvcrt.a(dwbes00068.o)
 .idata$7       0x004428e4        0x4 C:/Program Files/ETAS/ISOLAR-EVE3.5.0/plugins/com.etas.evetools.toolsfolder_3.5.5/Tools/MinGW/bin/../lib/gcc/i686-w64-mingw32/8.1.0/../../../../i686-w64-mingw32/lib/../lib/libmsvcrt.a(dwbes00076.o)
 .idata$7       0x004428e8        0x4 C:/Program Files/ETAS/ISOLAR-EVE3.5.0/plugins/com.etas.evetools.toolsfolder_3.5.5/Tools/MinGW/bin/../lib/gcc/i686-w64-mingw32/8.1.0/../../../../i686-w64-mingw32/lib/../lib/libmsvcrt.a(dwbes00083.o)
 .idata$7       0x004428ec        0x4 C:/Program Files/ETAS/ISOLAR-EVE3.5.0/plugins/com.etas.evetools.toolsfolder_3.5.5/Tools/MinGW/bin/../lib/gcc/i686-w64-mingw32/8.1.0/../../../../i686-w64-mingw32/lib/../lib/libmsvcrt.a(dwbes00104.o)
 .idata$7       0x004428f0        0x4 C:/Program Files/ETAS/ISOLAR-EVE3.5.0/plugins/com.etas.evetools.toolsfolder_3.5.5/Tools/MinGW/bin/../lib/gcc/i686-w64-mingw32/8.1.0/../../../../i686-w64-mingw32/lib/../lib/libmsvcrt.a(dwbes00107.o)
 .idata$7       0x004428f4        0x4 C:/Program Files/ETAS/ISOLAR-EVE3.5.0/plugins/com.etas.evetools.toolsfolder_3.5.5/Tools/MinGW/bin/../lib/gcc/i686-w64-mingw32/8.1.0/../../../../i686-w64-mingw32/lib/../lib/libmsvcrt.a(dwbes00144.o)
 .idata$7       0x004428f8        0x4 C:/Program Files/ETAS/ISOLAR-EVE3.5.0/plugins/com.etas.evetools.toolsfolder_3.5.5/Tools/MinGW/bin/../lib/gcc/i686-w64-mingw32/8.1.0/../../../../i686-w64-mingw32/lib/../lib/libmsvcrt.a(dwbes00161.o)
 .idata$7       0x004428fc        0x4 C:/Program Files/ETAS/ISOLAR-EVE3.5.0/plugins/com.etas.evetools.toolsfolder_3.5.5/Tools/MinGW/bin/../lib/gcc/i686-w64-mingw32/8.1.0/../../../../i686-w64-mingw32/lib/../lib/libmsvcrt.a(dwbes00351.o)
 .idata$7       0x00442900        0x4 C:/Program Files/ETAS/ISOLAR-EVE3.5.0/plugins/com.etas.evetools.toolsfolder_3.5.5/Tools/MinGW/bin/../lib/gcc/i686-w64-mingw32/8.1.0/../../../../i686-w64-mingw32/lib/../lib/libmsvcrt.a(dwbes00355.o)
 .idata$7       0x00442904        0x4 C:/Program Files/ETAS/ISOLAR-EVE3.5.0/plugins/com.etas.evetools.toolsfolder_3.5.5/Tools/MinGW/bin/../lib/gcc/i686-w64-mingw32/8.1.0/../../../../i686-w64-mingw32/lib/../lib/libmsvcrt.a(dwbes00629.o)
 .idata$7       0x00442908        0x4 C:/Program Files/ETAS/ISOLAR-EVE3.5.0/plugins/com.etas.evetools.toolsfolder_3.5.5/Tools/MinGW/bin/../lib/gcc/i686-w64-mingw32/8.1.0/../../../../i686-w64-mingw32/lib/../lib/libmsvcrt.a(dwbes01010.o)
 .idata$7       0x0044290c        0x4 C:/Program Files/ETAS/ISOLAR-EVE3.5.0/plugins/com.etas.evetools.toolsfolder_3.5.5/Tools/MinGW/bin/../lib/gcc/i686-w64-mingw32/8.1.0/../../../../i686-w64-mingw32/lib/../lib/libmsvcrt.a(dwbes01057.o)
 .idata$7       0x00442910        0x4 C:/Program Files/ETAS/ISOLAR-EVE3.5.0/plugins/com.etas.evetools.toolsfolder_3.5.5/Tools/MinGW/bin/../lib/gcc/i686-w64-mingw32/8.1.0/../../../../i686-w64-mingw32/lib/../lib/libmsvcrt.a(dwbes01066.o)
 .idata$7       0x00442914        0x4 C:/Program Files/ETAS/ISOLAR-EVE3.5.0/plugins/com.etas.evetools.toolsfolder_3.5.5/Tools/MinGW/bin/../lib/gcc/i686-w64-mingw32/8.1.0/../../../../i686-w64-mingw32/lib/../lib/libmsvcrt.a(dwbes01076.o)
 .idata$7       0x00442918        0x4 C:/Program Files/ETAS/ISOLAR-EVE3.5.0/plugins/com.etas.evetools.toolsfolder_3.5.5/Tools/MinGW/bin/../lib/gcc/i686-w64-mingw32/8.1.0/../../../../i686-w64-mingw32/lib/../lib/libmsvcrt.a(dwbes01081.o)
 .idata$7       0x0044291c        0x4 C:/Program Files/ETAS/ISOLAR-EVE3.5.0/plugins/com.etas.evetools.toolsfolder_3.5.5/Tools/MinGW/bin/../lib/gcc/i686-w64-mingw32/8.1.0/../../../../i686-w64-mingw32/lib/../lib/libmsvcrt.a(dwbes01084.o)
 .idata$7       0x00442920        0x4 C:/Program Files/ETAS/ISOLAR-EVE3.5.0/plugins/com.etas.evetools.toolsfolder_3.5.5/Tools/MinGW/bin/../lib/gcc/i686-w64-mingw32/8.1.0/../../../../i686-w64-mingw32/lib/../lib/libmsvcrt.a(dwbes01087.o)
 .idata$7       0x00442924        0x4 C:/Program Files/ETAS/ISOLAR-EVE3.5.0/plugins/com.etas.evetools.toolsfolder_3.5.5/Tools/MinGW/bin/../lib/gcc/i686-w64-mingw32/8.1.0/../../../../i686-w64-mingw32/lib/../lib/libmsvcrt.a(dwbes01095.o)
 .idata$7       0x00442928        0x4 C:/Program Files/ETAS/ISOLAR-EVE3.5.0/plugins/com.etas.evetools.toolsfolder_3.5.5/Tools/MinGW/bin/../lib/gcc/i686-w64-mingw32/8.1.0/../../../../i686-w64-mingw32/lib/../lib/libmsvcrt.a(dwbes01097.o)
 .idata$7       0x0044292c        0x4 C:/Program Files/ETAS/ISOLAR-EVE3.5.0/plugins/com.etas.evetools.toolsfolder_3.5.5/Tools/MinGW/bin/../lib/gcc/i686-w64-mingw32/8.1.0/../../../../i686-w64-mingw32/lib/../lib/libmsvcrt.a(dwbes01099.o)
 .idata$7       0x00442930        0x4 C:/Program Files/ETAS/ISOLAR-EVE3.5.0/plugins/com.etas.evetools.toolsfolder_3.5.5/Tools/MinGW/bin/../lib/gcc/i686-w64-mingw32/8.1.0/../../../../i686-w64-mingw32/lib/../lib/libmsvcrt.a(dwbes01100.o)
 .idata$7       0x00442934        0x4 C:/Program Files/ETAS/ISOLAR-EVE3.5.0/plugins/com.etas.evetools.toolsfolder_3.5.5/Tools/MinGW/bin/../lib/gcc/i686-w64-mingw32/8.1.0/../../../../i686-w64-mingw32/lib/../lib/libmsvcrt.a(dwbes01104.o)
 .idata$7       0x00442938        0x4 C:/Program Files/ETAS/ISOLAR-EVE3.5.0/plugins/com.etas.evetools.toolsfolder_3.5.5/Tools/MinGW/bin/../lib/gcc/i686-w64-mingw32/8.1.0/../../../../i686-w64-mingw32/lib/../lib/libmsvcrt.a(dwbes01118.o)
 .idata$7       0x0044293c        0x4 C:/Program Files/ETAS/ISOLAR-EVE3.5.0/plugins/com.etas.evetools.toolsfolder_3.5.5/Tools/MinGW/bin/../lib/gcc/i686-w64-mingw32/8.1.0/../../../../i686-w64-mingw32/lib/../lib/libmsvcrt.a(dwbes01163.o)
 .idata$7       0x00442940        0x4 C:/Program Files/ETAS/ISOLAR-EVE3.5.0/plugins/com.etas.evetools.toolsfolder_3.5.5/Tools/MinGW/bin/../lib/gcc/i686-w64-mingw32/8.1.0/../../../../i686-w64-mingw32/lib/../lib/libmsvcrt.a(dwbes01172.o)
 .idata$7       0x00442944        0x4 C:/Program Files/ETAS/ISOLAR-EVE3.5.0/plugins/com.etas.evetools.toolsfolder_3.5.5/Tools/MinGW/bin/../lib/gcc/i686-w64-mingw32/8.1.0/../../../../i686-w64-mingw32/lib/../lib/libmsvcrt.a(dwbes01174.o)
 .idata$7       0x00442948        0x4 C:/Program Files/ETAS/ISOLAR-EVE3.5.0/plugins/com.etas.evetools.toolsfolder_3.5.5/Tools/MinGW/bin/../lib/gcc/i686-w64-mingw32/8.1.0/../../../../i686-w64-mingw32/lib/../lib/libmsvcrt.a(dwbes01190.o)
 .idata$7       0x0044294c        0x4 C:/Program Files/ETAS/ISOLAR-EVE3.5.0/plugins/com.etas.evetools.toolsfolder_3.5.5/Tools/MinGW/bin/../lib/gcc/i686-w64-mingw32/8.1.0/../../../../i686-w64-mingw32/lib/../lib/libmsvcrt.a(dwbes01199.o)
 .idata$7       0x00442950        0x4 C:/Program Files/ETAS/ISOLAR-EVE3.5.0/plugins/com.etas.evetools.toolsfolder_3.5.5/Tools/MinGW/bin/../lib/gcc/i686-w64-mingw32/8.1.0/../../../../i686-w64-mingw32/lib/../lib/libmsvcrt.a(dwbes01202.o)
 .idata$7       0x00442954        0x4 C:/Program Files/ETAS/ISOLAR-EVE3.5.0/plugins/com.etas.evetools.toolsfolder_3.5.5/Tools/MinGW/bin/../lib/gcc/i686-w64-mingw32/8.1.0/../../../../i686-w64-mingw32/lib/../lib/libmsvcrt.a(dwbes01207.o)
 .idata$7       0x00442958        0x4 C:/Program Files/ETAS/ISOLAR-EVE3.5.0/plugins/com.etas.evetools.toolsfolder_3.5.5/Tools/MinGW/bin/../lib/gcc/i686-w64-mingw32/8.1.0/../../../../i686-w64-mingw32/lib/../lib/libmsvcrt.a(dwbes01210.o)
 .idata$7       0x0044295c        0x4 C:/Program Files/ETAS/ISOLAR-EVE3.5.0/plugins/com.etas.evetools.toolsfolder_3.5.5/Tools/MinGW/bin/../lib/gcc/i686-w64-mingw32/8.1.0/../../../../i686-w64-mingw32/lib/../lib/libmsvcrt.a(dwbes01212.o)
 .idata$7       0x00442960        0x4 C:/Program Files/ETAS/ISOLAR-EVE3.5.0/plugins/com.etas.evetools.toolsfolder_3.5.5/Tools/MinGW/bin/../lib/gcc/i686-w64-mingw32/8.1.0/../../../../i686-w64-mingw32/lib/../lib/libmsvcrt.a(dwbes01217.o)
 .idata$7       0x00442964        0x4 C:/Program Files/ETAS/ISOLAR-EVE3.5.0/plugins/com.etas.evetools.toolsfolder_3.5.5/Tools/MinGW/bin/../lib/gcc/i686-w64-mingw32/8.1.0/../../../../i686-w64-mingw32/lib/../lib/libmsvcrt.a(dwbes01220.o)
 .idata$7       0x00442968        0x4 C:/Program Files/ETAS/ISOLAR-EVE3.5.0/plugins/com.etas.evetools.toolsfolder_3.5.5/Tools/MinGW/bin/../lib/gcc/i686-w64-mingw32/8.1.0/../../../../i686-w64-mingw32/lib/../lib/libmsvcrt.a(dwbes01221.o)
 .idata$7       0x0044296c        0x4 C:/Program Files/ETAS/ISOLAR-EVE3.5.0/plugins/com.etas.evetools.toolsfolder_3.5.5/Tools/MinGW/bin/../lib/gcc/i686-w64-mingw32/8.1.0/../../../../i686-w64-mingw32/lib/../lib/libmsvcrt.a(dwbes01253.o)
 .idata$7       0x00442970        0x4 C:/Program Files/ETAS/ISOLAR-EVE3.5.0/plugins/com.etas.evetools.toolsfolder_3.5.5/Tools/MinGW/bin/../lib/gcc/i686-w64-mingw32/8.1.0/../../../../i686-w64-mingw32/lib/../lib/libmsvcrt.a(dwbes01258.o)
 .idata$7       0x00442974        0xc C:/Program Files/ETAS/ISOLAR-EVE3.5.0/plugins/com.etas.evetools.toolsfolder_3.5.5/Tools/MinGW/bin/../lib/gcc/i686-w64-mingw32/8.1.0/../../../../i686-w64-mingw32/lib/../lib/libmsvcrt.a(dwbet.o)
                0x00442974                _lib32_libmsvcrt_os_a_iname
 .idata$7       0x00442980        0x4 C:/Program Files/ETAS/ISOLAR-EVE3.5.0/plugins/com.etas.evetools.toolsfolder_3.5.5/Tools/MinGW/bin/../lib/gcc/i686-w64-mingw32/8.1.0/../../../../i686-w64-mingw32/lib/../lib/libuser32.a(dmces00588.o)
 .idata$7       0x00442984        0xc C:/Program Files/ETAS/ISOLAR-EVE3.5.0/plugins/com.etas.evetools.toolsfolder_3.5.5/Tools/MinGW/bin/../lib/gcc/i686-w64-mingw32/8.1.0/../../../../i686-w64-mingw32/lib/../lib/libuser32.a(dmcet.o)
                0x00442984                _lib32_libuser32_a_iname
 .idata$7       0x00442990        0x4 C:/Program Files/ETAS/ISOLAR-EVE3.5.0/plugins/com.etas.evetools.toolsfolder_3.5.5/Tools/MinGW/bin/../lib/gcc/i686-w64-mingw32/8.1.0/../../../../i686-w64-mingw32/lib/../lib/libwinmm.a(dcnfs00144.o)
 .idata$7       0x00442994        0x4 C:/Program Files/ETAS/ISOLAR-EVE3.5.0/plugins/com.etas.evetools.toolsfolder_3.5.5/Tools/MinGW/bin/../lib/gcc/i686-w64-mingw32/8.1.0/../../../../i686-w64-mingw32/lib/../lib/libwinmm.a(dcnfs00149.o)
 .idata$7       0x00442998        0x4 C:/Program Files/ETAS/ISOLAR-EVE3.5.0/plugins/com.etas.evetools.toolsfolder_3.5.5/Tools/MinGW/bin/../lib/gcc/i686-w64-mingw32/8.1.0/../../../../i686-w64-mingw32/lib/../lib/libwinmm.a(dcnfs00150.o)
 .idata$7       0x0044299c        0xc C:/Program Files/ETAS/ISOLAR-EVE3.5.0/plugins/com.etas.evetools.toolsfolder_3.5.5/Tools/MinGW/bin/../lib/gcc/i686-w64-mingw32/8.1.0/../../../../i686-w64-mingw32/lib/../lib/libwinmm.a(dcnft.o)
                0x0044299c                _lib32_libwinmm_a_iname

.CRT            0x00443000      0x200
                0x00443000                ___crt_xc_start__ = .
 *(SORT_BY_NAME(.CRT$XC*))
 .CRT$XCA       0x00443000        0x4 C:/Program Files/ETAS/ISOLAR-EVE3.5.0/plugins/com.etas.evetools.toolsfolder_3.5.5/Tools/MinGW/bin/../lib/gcc/i686-w64-mingw32/8.1.0/../../../../i686-w64-mingw32/lib/../lib/libmingw32.a(lib32_libmingw32_a-cinitexe.o)
                0x00443000                __xc_a
 .CRT$XCAA      0x00443004        0x4 C:/Program Files/ETAS/ISOLAR-EVE3.5.0/plugins/com.etas.evetools.toolsfolder_3.5.5/Tools/MinGW/bin/../lib/gcc/i686-w64-mingw32/8.1.0/../../../../i686-w64-mingw32/lib/../lib/crt2.o
                0x00443004                mingw_pcppinit
 .CRT$XCZ       0x00443008        0x4 C:/Program Files/ETAS/ISOLAR-EVE3.5.0/plugins/com.etas.evetools.toolsfolder_3.5.5/Tools/MinGW/bin/../lib/gcc/i686-w64-mingw32/8.1.0/../../../../i686-w64-mingw32/lib/../lib/libmingw32.a(lib32_libmingw32_a-cinitexe.o)
                0x00443008                __xc_z
                0x0044300c                ___crt_xc_end__ = .
                0x0044300c                ___crt_xi_start__ = .
 *(SORT_BY_NAME(.CRT$XI*))
 .CRT$XIA       0x0044300c        0x4 C:/Program Files/ETAS/ISOLAR-EVE3.5.0/plugins/com.etas.evetools.toolsfolder_3.5.5/Tools/MinGW/bin/../lib/gcc/i686-w64-mingw32/8.1.0/../../../../i686-w64-mingw32/lib/../lib/libmingw32.a(lib32_libmingw32_a-cinitexe.o)
                0x0044300c                __xi_a
 .CRT$XIAA      0x00443010        0x4 C:/Program Files/ETAS/ISOLAR-EVE3.5.0/plugins/com.etas.evetools.toolsfolder_3.5.5/Tools/MinGW/bin/../lib/gcc/i686-w64-mingw32/8.1.0/../../../../i686-w64-mingw32/lib/../lib/crt2.o
                0x00443010                mingw_pcinit
 .CRT$XIC       0x00443014        0x4 C:/Program Files/ETAS/ISOLAR-EVE3.5.0/plugins/com.etas.evetools.toolsfolder_3.5.5/Tools/MinGW/bin/../lib/gcc/i686-w64-mingw32/8.1.0/../../../../i686-w64-mingw32/lib/../lib/libmingw32.a(lib32_libmingw32_a-charmax.o)
                0x00443014                __mingw_pinit
 .CRT$XIZ       0x00443018        0x4 C:/Program Files/ETAS/ISOLAR-EVE3.5.0/plugins/com.etas.evetools.toolsfolder_3.5.5/Tools/MinGW/bin/../lib/gcc/i686-w64-mingw32/8.1.0/../../../../i686-w64-mingw32/lib/../lib/libmingw32.a(lib32_libmingw32_a-cinitexe.o)
                0x00443018                __xi_z
                0x0044301c                ___crt_xi_end__ = .
                0x0044301c                ___crt_xl_start__ = .
 *(SORT_BY_NAME(.CRT$XL*))
 .CRT$XLA       0x0044301c        0x4 C:/Program Files/ETAS/ISOLAR-EVE3.5.0/plugins/com.etas.evetools.toolsfolder_3.5.5/Tools/MinGW/bin/../lib/gcc/i686-w64-mingw32/8.1.0/../../../../i686-w64-mingw32/lib/../lib/libmingw32.a(lib32_libmingw32_a-tlssup.o)
                0x0044301c                __xl_a
 .CRT$XLC       0x00443020        0x4 C:/Program Files/ETAS/ISOLAR-EVE3.5.0/plugins/com.etas.evetools.toolsfolder_3.5.5/Tools/MinGW/bin/../lib/gcc/i686-w64-mingw32/8.1.0/../../../../i686-w64-mingw32/lib/../lib/libmingw32.a(lib32_libmingw32_a-tlssup.o)
                0x00443020                __xl_c
 .CRT$XLD       0x00443024        0x4 C:/Program Files/ETAS/ISOLAR-EVE3.5.0/plugins/com.etas.evetools.toolsfolder_3.5.5/Tools/MinGW/bin/../lib/gcc/i686-w64-mingw32/8.1.0/../../../../i686-w64-mingw32/lib/../lib/libmingw32.a(lib32_libmingw32_a-tlssup.o)
                0x00443024                __xl_d
 .CRT$XLZ       0x00443028        0x4 C:/Program Files/ETAS/ISOLAR-EVE3.5.0/plugins/com.etas.evetools.toolsfolder_3.5.5/Tools/MinGW/bin/../lib/gcc/i686-w64-mingw32/8.1.0/../../../../i686-w64-mingw32/lib/../lib/libmingw32.a(lib32_libmingw32_a-tlssup.o)
                0x00443028                __xl_z
                0x0044302c                ___crt_xp_start__ = .
 *(SORT_BY_NAME(.CRT$XP*))
                0x0044302c                ___crt_xp_end__ = .
                0x0044302c                ___crt_xt_start__ = .
 *(SORT_BY_NAME(.CRT$XT*))
                0x0044302c                ___crt_xt_end__ = .
 .CRT$XDA       0x0044302c        0x4 C:/Program Files/ETAS/ISOLAR-EVE3.5.0/plugins/com.etas.evetools.toolsfolder_3.5.5/Tools/MinGW/bin/../lib/gcc/i686-w64-mingw32/8.1.0/../../../../i686-w64-mingw32/lib/../lib/libmingw32.a(lib32_libmingw32_a-tlssup.o)
 .CRT$XDZ       0x00443030        0x4 C:/Program Files/ETAS/ISOLAR-EVE3.5.0/plugins/com.etas.evetools.toolsfolder_3.5.5/Tools/MinGW/bin/../lib/gcc/i686-w64-mingw32/8.1.0/../../../../i686-w64-mingw32/lib/../lib/libmingw32.a(lib32_libmingw32_a-tlssup.o)

.tls            0x00444000      0x200
                0x00444000                ___tls_start__ = .
 *(.tls$AAA)
 *(.tls)
 .tls           0x00444000        0x4 C:/Program Files/ETAS/ISOLAR-EVE3.5.0/plugins/com.etas.evetools.toolsfolder_3.5.5/Tools/MinGW/bin/../lib/gcc/i686-w64-mingw32/8.1.0/../../../../i686-w64-mingw32/lib/../lib/libmingw32.a(lib32_libmingw32_a-tlssup.o)
                0x00444000                _tls_start
 *(.tls$)
 *(SORT_BY_NAME(.tls$*))
 .tls$ZZZ       0x00444004        0x4 C:/Program Files/ETAS/ISOLAR-EVE3.5.0/plugins/com.etas.evetools.toolsfolder_3.5.5/Tools/MinGW/bin/../lib/gcc/i686-w64-mingw32/8.1.0/../../../../i686-w64-mingw32/lib/../lib/libmingw32.a(lib32_libmingw32_a-tlssup.o)
                0x00444004                _tls_end
 *(.tls$ZZZ)
                0x00444008                ___tls_end__ = .

.endjunk        0x00445000        0x0
                [!provide]                PROVIDE (end = .)
                [!provide]                PROVIDE (_end = .)
                0x00445000                __end__ = .

.rsrc
 *(.rsrc)
 *(.rsrc$*)

.reloc
 *(.reloc)

.stab
 *(.stab)

.stabstr
 *(.stabstr)

.debug_aranges  0x00445000     0x1200
 *(.debug_aranges)
 .debug_aranges
                0x00445000       0x18 BswTasks.o
 .debug_aranges
                0x00445018       0x40 EVE_SystemClock.o
 .debug_aranges
                0x00445058       0x20 main.o
 .debug_aranges
                0x00445078       0x20 Os_ErrorHook.o
 .debug_aranges
                0x00445098       0x20 Os_Hooks.o
 .debug_aranges
                0x004450b8       0x20 OsTask_0.o
 .debug_aranges
                0x004450d8       0x20 OsTask_04.o
 .debug_aranges
                0x004450f8       0x20 OsTask_1.o
 .debug_aranges
                0x00445118       0x20 OsTask_10.o
 .debug_aranges
                0x00445138       0x20 OsTask_11.o
 .debug_aranges
                0x00445158       0x20 OsTask_12.o
 .debug_aranges
                0x00445178       0x20 OsTask_13.o
 .debug_aranges
                0x00445198       0x20 OsTask_14.o
 .debug_aranges
                0x004451b8       0x20 OsTask_15.o
 .debug_aranges
                0x004451d8       0x20 OsTask_16.o
 .debug_aranges
                0x004451f8       0x20 OsTask_18.o
 .debug_aranges
                0x00445218       0x20 OsTask_19.o
 .debug_aranges
                0x00445238       0x20 OsTask_2.o
 .debug_aranges
                0x00445258       0x20 OsTask_20.o
 .debug_aranges
                0x00445278       0x20 OsTask_21.o
 .debug_aranges
                0x00445298       0x20 OsTask_22.o
 .debug_aranges
                0x004452b8       0x20 OsTask_23.o
 .debug_aranges
                0x004452d8       0x20 OsTask_24.o
 .debug_aranges
                0x004452f8       0x20 OsTask_25.o
 .debug_aranges
                0x00445318       0x20 OsTask_26.o
 .debug_aranges
                0x00445338       0x20 OsTask_3.o
 .debug_aranges
                0x00445358       0x20 OsTask_5.o
 .debug_aranges
                0x00445378       0x20 OsTask_6.o
 .debug_aranges
                0x00445398       0x20 OsTask_7.o
 .debug_aranges
                0x004453b8       0x20 OsTask_8.o
 .debug_aranges
                0x004453d8       0x20 Rte.o
 .debug_aranges
                0x004453f8       0x20 Rte_AccelControlAPP.o
 .debug_aranges
                0x00445418       0x20 Rte_AccelPedalSen.o
 .debug_aranges
                0x00445438       0x20 Rte_ACT_HYDRAULIC_MODULATOR_FRONTL_COMP.o
 .debug_aranges
                0x00445458       0x20 Rte_ACT_HYDRAULIC_MODULATOR_FRONTR_COMP.o
 .debug_aranges
                0x00445478       0x20 Rte_ACT_HYDRAULIC_MODULATOR_REARL_COMP.o
 .debug_aranges
                0x00445498       0x20 Rte_ACT_HYDRAULIC_MODULATOR_REARR_COMP.o
 .debug_aranges
                0x004454b8       0x20 Rte_ACT_MOTOR_COMP.o
 .debug_aranges
                0x004454d8       0x20 Rte_APP_BRAKE_CONTROLL_COMP.o
 .debug_aranges
                0x004454f8       0x20 Rte_APP_MOTOR_COMP.o
 .debug_aranges
                0x00445518       0x20 Rte_AvgSpeed.o
 .debug_aranges
                0x00445538       0x20 Rte_BrakePedalSen.o
 .debug_aranges
                0x00445558       0x20 Rte_Cylinder_Sen.o
 .debug_aranges
                0x00445578       0x20 Rte_ECU_ABS.o
 .debug_aranges
                0x00445598       0x20 Rte_Engine_Cycle_ACT.o
 .debug_aranges
                0x004455b8       0x20 Rte_Engine_Gear_ACT.o
 .debug_aranges
                0x004455d8       0x20 Rte_EngineApp.o
 .debug_aranges
                0x004455f8       0x20 Rte_GearModeSen.o
 .debug_aranges
                0x00445618       0x20 Rte_Lib.o
 .debug_aranges
                0x00445638       0x20 Rte_SEN_BATT_COMP.o
 .debug_aranges
                0x00445658       0x20 Rte_SpeedSen.o
 .debug_aranges
                0x00445678       0x20 startVecu.o
 .debug_aranges
                0x00445698       0x20 target.o
 .debug_aranges
                0x004456b8       0x20 VECU_SystemClock_ISR.o
 .debug_aranges
                0x004456d8       0x30 virtualdevices.o
 .debug_aranges
                0x00445708       0x20 Vrta_Cfg.o
 .debug_aranges
                0x00445728       0x20 RTAOS.lib(ActivateTask.o)
 .debug_aranges
                0x00445748       0x20 RTAOS.lib(CancelAlarm.o)
 .debug_aranges
                0x00445768       0x20 RTAOS.lib(ClearEvent.o)
 .debug_aranges
                0x00445788       0x20 RTAOS.lib(DispatchTask.o)
 .debug_aranges
                0x004457a8       0x20 RTAOS.lib(GetEvent.o)
 .debug_aranges
                0x004457c8       0x20 RTAOS.lib(GetISRID.o)
 .debug_aranges
                0x004457e8       0x20 RTAOS.lib(GetResource.o)
 .debug_aranges
                0x00445808       0x20 RTAOS.lib(GetTaskID.o)
 .debug_aranges
                0x00445828       0x20 RTAOS.lib(Os_Cfg.o)
 .debug_aranges
                0x00445848       0x20 RTAOS.lib(Os_Cfg_Counters.o)
 .debug_aranges
                0x00445868       0x20 RTAOS.lib(Os_Cfg_KL.o)
 .debug_aranges
                0x00445888       0x20 RTAOS.lib(Os_fsb.o)
 .debug_aranges
                0x004458a8       0x18 RTAOS.lib(Os_SetJmp.o)
 .debug_aranges
                0x004458c0       0x20 RTAOS.lib(Os_Stack.o)
 .debug_aranges
                0x004458e0       0x20 RTAOS.lib(ReleaseResource.o)
 .debug_aranges
                0x00445900       0x20 RTAOS.lib(ResumeOSInterrupts.o)
 .debug_aranges
                0x00445920       0x20 RTAOS.lib(SetEvent.o)
 .debug_aranges
                0x00445940       0x20 RTAOS.lib(SetRelAlarm.o)
 .debug_aranges
                0x00445960       0x20 RTAOS.lib(StartOS.o)
 .debug_aranges
                0x00445980       0x20 RTAOS.lib(StartScheduleTableRel.o)
 .debug_aranges
                0x004459a0       0x20 RTAOS.lib(StopScheduleTable.o)
 .debug_aranges
                0x004459c0       0x20 RTAOS.lib(SuspendOSInterrupts.o)
 .debug_aranges
                0x004459e0       0x20 RTAOS.lib(TerminateTask.o)
 .debug_aranges
                0x00445a00       0x28 RTAOS.lib(vrtaAppMain.o)
 .debug_aranges
                0x00445a28       0x48 RTAOS.lib(vrtaCore.o)
 .debug_aranges
                0x00445a70       0x20 RTAOS.lib(vrtaIdleHandling.o)
 .debug_aranges
                0x00445a90       0x20 RTAOS.lib(vrtaLoggerDevice.o)
 .debug_aranges
                0x00445ab0      0x228 RTAOS.lib(vrtaOSMonitorDevice.o)
 .debug_aranges
                0x00445cd8       0xf8 RTAOS.lib(vrtaSampleDevices.o)
 .debug_aranges
                0x00445dd0       0x50 RTAOS.lib(vrtaSystemClock.o)
 .debug_aranges
                0x00445e20      0x130 RTAOS.lib(vrtaSystemClockDevice.o)
 .debug_aranges
                0x00445f50       0x20 RTAOS.lib(WaitEvent.o)
 .debug_aranges
                0x00445f70       0x20 RTAOS.lib(DispatchECC.o)
 .debug_aranges
                0x00445f90       0x20 RTAOS.lib(GetStackValue.o)
 .debug_aranges
                0x00445fb0       0x18 RTAOS.lib(Os_vectors.o)
 .debug_aranges
                0x00445fc8       0x20 RTAOS.lib(Os_wrapper.o)
 .debug_aranges
                0x00445fe8       0x20 RTAOS.lib(StackOverrunHook.o)
 .debug_aranges
                0x00446008       0x68 RTAOS.lib(virtualDevice.o)
 .debug_aranges
                0x00446070       0x20 RTAOS.lib(ShutdownOS.o)
 .debug_aranges
                0x00446090       0x20 RTAOS.lib(InShutdown.o)
 .debug_aranges
                0x004460b0       0x20 C:/Program Files/ETAS/ISOLAR-EVE3.5.0/plugins/com.etas.evetools.toolsfolder_3.5.5/Tools/MinGW/bin/../lib/gcc/i686-w64-mingw32/8.1.0/libgcc.a(_chkstk_ms.o)
 .debug_aranges
                0x004460d0       0x18 C:/Program Files/ETAS/ISOLAR-EVE3.5.0/plugins/com.etas.evetools.toolsfolder_3.5.5/Tools/MinGW/bin/../lib/gcc/i686-w64-mingw32/8.1.0/libgcc.a(_ctors.o)
 .debug_aranges
                0x004460e8       0x20 C:/Program Files/ETAS/ISOLAR-EVE3.5.0/plugins/com.etas.evetools.toolsfolder_3.5.5/Tools/MinGW/bin/../lib/gcc/i686-w64-mingw32/8.1.0/libgcc.a(_divdi3.o)
 .debug_aranges
                0x00446108       0x20 C:/Program Files/ETAS/ISOLAR-EVE3.5.0/plugins/com.etas.evetools.toolsfolder_3.5.5/Tools/MinGW/bin/../lib/gcc/i686-w64-mingw32/8.1.0/libgcc.a(gthr-win32.o)
 .debug_aranges
                0x00446128       0x28 C:/Program Files/ETAS/ISOLAR-EVE3.5.0/plugins/com.etas.evetools.toolsfolder_3.5.5/Tools/MinGW/bin/../lib/gcc/i686-w64-mingw32/8.1.0/libgcc_eh.a(unwind-dw2.o)
 .debug_aranges
                0x00446150       0x28 C:/Program Files/ETAS/ISOLAR-EVE3.5.0/plugins/com.etas.evetools.toolsfolder_3.5.5/Tools/MinGW/bin/../lib/gcc/i686-w64-mingw32/8.1.0/libgcc_eh.a(unwind-dw2-fde.o)
 .debug_aranges
                0x00446178       0x28 C:/Program Files/ETAS/ISOLAR-EVE3.5.0/plugins/com.etas.evetools.toolsfolder_3.5.5/Tools/MinGW/bin/../lib/gcc/i686-w64-mingw32/8.1.0/libgcc_eh.a(emutls.o)

.zdebug_aranges
 *(.zdebug_aranges)

.debug_pubnames
 *(.debug_pubnames)

.zdebug_pubnames
 *(.zdebug_pubnames)

.debug_pubtypes
 *(.debug_pubtypes)

.zdebug_pubtypes
 *(.zdebug_pubtypes)

.debug_info     0x00447000    0xe3200
 *(.debug_info .gnu.linkonce.wi.*)
 .debug_info    0x00447000     0x11b3 BswTasks.o
 .debug_info    0x004481b3      0xe1a EVE_SystemClock.o
 .debug_info    0x00448fcd     0x11ee main.o
 .debug_info    0x0044a1bb     0x1216 Os_ErrorHook.o
 .debug_info    0x0044b3d1     0x14e6 Os_Hooks.o
 .debug_info    0x0044c8b7     0x244c OsTask_0.o
 .debug_info    0x0044ed03     0x1344 OsTask_04.o
 .debug_info    0x00450047     0x1342 OsTask_1.o
 .debug_info    0x00451389     0x1344 OsTask_10.o
 .debug_info    0x004526cd     0x1344 OsTask_11.o
 .debug_info    0x00453a11     0x1344 OsTask_12.o
 .debug_info    0x00454d55     0x1344 OsTask_13.o
 .debug_info    0x00456099     0x1344 OsTask_14.o
 .debug_info    0x004573dd     0x1344 OsTask_15.o
 .debug_info    0x00458721     0x13a6 OsTask_16.o
 .debug_info    0x00459ac7     0x1344 OsTask_18.o
 .debug_info    0x0045ae0b     0x1344 OsTask_19.o
 .debug_info    0x0045c14f     0x1342 OsTask_2.o
 .debug_info    0x0045d491     0x1344 OsTask_20.o
 .debug_info    0x0045e7d5     0x1344 OsTask_21.o
 .debug_info    0x0045fb19     0x13a6 OsTask_22.o
 .debug_info    0x00460ebf     0x1344 OsTask_23.o
 .debug_info    0x00462203     0x13a6 OsTask_24.o
 .debug_info    0x004635a9     0x13a6 OsTask_25.o
 .debug_info    0x0046494f     0x1344 OsTask_26.o
 .debug_info    0x00465c93     0x1342 OsTask_3.o
 .debug_info    0x00466fd5     0x13a7 OsTask_5.o
 .debug_info    0x0046837c     0x1342 OsTask_6.o
 .debug_info    0x004696be     0x1342 OsTask_7.o
 .debug_info    0x0046aa00     0x13a7 OsTask_8.o
 .debug_info    0x0046bda7     0x6efe Rte.o
 .debug_info    0x00472ca5     0x151e Rte_AccelControlAPP.o
 .debug_info    0x004741c3     0x1403 Rte_AccelPedalSen.o
 .debug_info    0x004755c6     0x1427 Rte_ACT_HYDRAULIC_MODULATOR_FRONTL_COMP.o
 .debug_info    0x004769ed     0x1427 Rte_ACT_HYDRAULIC_MODULATOR_FRONTR_COMP.o
 .debug_info    0x00477e14     0x1424 Rte_ACT_HYDRAULIC_MODULATOR_REARL_COMP.o
 .debug_info    0x00479238     0x1424 Rte_ACT_HYDRAULIC_MODULATOR_REARR_COMP.o
 .debug_info    0x0047a65c     0x13ea Rte_ACT_MOTOR_COMP.o
 .debug_info    0x0047ba46     0x1aa6 Rte_APP_BRAKE_CONTROLL_COMP.o
 .debug_info    0x0047d4ec     0x14ea Rte_APP_MOTOR_COMP.o
 .debug_info    0x0047e9d6     0x1434 Rte_AvgSpeed.o
 .debug_info    0x0047fe0a     0x1403 Rte_BrakePedalSen.o
 .debug_info    0x0048120d     0x144e Rte_Cylinder_Sen.o
 .debug_info    0x0048265b     0x173d Rte_ECU_ABS.o
 .debug_info    0x00483d98     0x145e Rte_Engine_Cycle_ACT.o
 .debug_info    0x004851f6     0x13f1 Rte_Engine_Gear_ACT.o
 .debug_info    0x004865e7     0x14a7 Rte_EngineApp.o
 .debug_info    0x00487a8e     0x13f7 Rte_GearModeSen.o
 .debug_info    0x00488e85     0x1d1f Rte_Lib.o
 .debug_info    0x0048aba4     0x1482 Rte_SEN_BATT_COMP.o
 .debug_info    0x0048c026     0x1427 Rte_SpeedSen.o
 .debug_info    0x0048d44d      0x304 startVecu.o
 .debug_info    0x0048d751      0x552 target.o
 .debug_info    0x0048dca3     0x12a1 VECU_SystemClock_ISR.o
 .debug_info    0x0048ef44     0x62a9 virtualdevices.o
 .debug_info    0x004951ed      0x39c Vrta_Cfg.o
 .debug_info    0x00495589     0x1509 RTAOS.lib(ActivateTask.o)
 .debug_info    0x00496a92     0x14d4 RTAOS.lib(CancelAlarm.o)
 .debug_info    0x00497f66     0x148e RTAOS.lib(ClearEvent.o)
 .debug_info    0x004993f4     0x14fa RTAOS.lib(DispatchTask.o)
 .debug_info    0x0049a8ee     0x14bd RTAOS.lib(GetEvent.o)
 .debug_info    0x0049bdab     0x1440 RTAOS.lib(GetISRID.o)
 .debug_info    0x0049d1eb     0x14ad RTAOS.lib(GetResource.o)
 .debug_info    0x0049e698     0x1455 RTAOS.lib(GetTaskID.o)
 .debug_info    0x0049faed     0x1aff RTAOS.lib(Os_Cfg.o)
 .debug_info    0x004a15ec     0x182e RTAOS.lib(Os_Cfg_Counters.o)
 .debug_info    0x004a2e1a     0x1446 RTAOS.lib(Os_Cfg_KL.o)
 .debug_info    0x004a4260     0x1445 RTAOS.lib(Os_fsb.o)
 .debug_info    0x004a56a5     0x13eb RTAOS.lib(Os_SetJmp.o)
 .debug_info    0x004a6a90     0x1500 RTAOS.lib(Os_Stack.o)
 .debug_info    0x004a7f90     0x14ea RTAOS.lib(ReleaseResource.o)
 .debug_info    0x004a947a     0x1455 RTAOS.lib(ResumeOSInterrupts.o)
 .debug_info    0x004aa8cf     0x1526 RTAOS.lib(SetEvent.o)
 .debug_info    0x004abdf5     0x153e RTAOS.lib(SetRelAlarm.o)
 .debug_info    0x004ad333     0x14ea RTAOS.lib(StartOS.o)
 .debug_info    0x004ae81d     0x150e RTAOS.lib(StartScheduleTableRel.o)
 .debug_info    0x004afd2b     0x14d5 RTAOS.lib(StopScheduleTable.o)
 .debug_info    0x004b1200     0x14c3 RTAOS.lib(SuspendOSInterrupts.o)
 .debug_info    0x004b26c3     0x1456 RTAOS.lib(TerminateTask.o)
 .debug_info    0x004b3b19     0x5509 RTAOS.lib(vrtaAppMain.o)
 .debug_info    0x004b9022     0x952e RTAOS.lib(vrtaCore.o)
 .debug_info    0x004c2550     0x14bb RTAOS.lib(vrtaIdleHandling.o)
 .debug_info    0x004c3a0b     0x771f RTAOS.lib(vrtaLoggerDevice.o)
 .debug_info    0x004cb12a     0xae5d RTAOS.lib(vrtaOSMonitorDevice.o)
 .debug_info    0x004d5f87     0x8be3 RTAOS.lib(vrtaSampleDevices.o)
 .debug_info    0x004deb6a     0x8b0d RTAOS.lib(vrtaSystemClock.o)
 .debug_info    0x004e7677     0xa452 RTAOS.lib(vrtaSystemClockDevice.o)
 .debug_info    0x004f1ac9     0x1617 RTAOS.lib(WaitEvent.o)
 .debug_info    0x004f30e0     0x15fa RTAOS.lib(DispatchECC.o)
 .debug_info    0x004f46da     0x1464 RTAOS.lib(GetStackValue.o)
 .debug_info    0x004f5b3e     0x1520 RTAOS.lib(Os_vectors.o)
 .debug_info    0x004f705e     0x14b7 RTAOS.lib(Os_wrapper.o)
 .debug_info    0x004f8515     0x14d5 RTAOS.lib(StackOverrunHook.o)
 .debug_info    0x004f99ea     0x725c RTAOS.lib(virtualDevice.o)
 .debug_info    0x00500c46     0x14aa RTAOS.lib(ShutdownOS.o)
 .debug_info    0x005020f0     0x1415 RTAOS.lib(InShutdown.o)
 .debug_info    0x00503505       0x26 C:/Program Files/ETAS/ISOLAR-EVE3.5.0/plugins/com.etas.evetools.toolsfolder_3.5.5/Tools/MinGW/bin/../lib/gcc/i686-w64-mingw32/8.1.0/libgcc.a(_chkstk_ms.o)
 .debug_info    0x0050352b     0x1f70 C:/Program Files/ETAS/ISOLAR-EVE3.5.0/plugins/com.etas.evetools.toolsfolder_3.5.5/Tools/MinGW/bin/../lib/gcc/i686-w64-mingw32/8.1.0/libgcc.a(_ctors.o)
 .debug_info    0x0050549b     0x178d C:/Program Files/ETAS/ISOLAR-EVE3.5.0/plugins/com.etas.evetools.toolsfolder_3.5.5/Tools/MinGW/bin/../lib/gcc/i686-w64-mingw32/8.1.0/libgcc.a(_divdi3.o)
 .debug_info    0x00506c28     0x5580 C:/Program Files/ETAS/ISOLAR-EVE3.5.0/plugins/com.etas.evetools.toolsfolder_3.5.5/Tools/MinGW/bin/../lib/gcc/i686-w64-mingw32/8.1.0/libgcc.a(gthr-win32.o)
 .debug_info    0x0050c1a8     0xcd45 C:/Program Files/ETAS/ISOLAR-EVE3.5.0/plugins/com.etas.evetools.toolsfolder_3.5.5/Tools/MinGW/bin/../lib/gcc/i686-w64-mingw32/8.1.0/libgcc_eh.a(unwind-dw2.o)
 .debug_info    0x00518eed     0x9d19 C:/Program Files/ETAS/ISOLAR-EVE3.5.0/plugins/com.etas.evetools.toolsfolder_3.5.5/Tools/MinGW/bin/../lib/gcc/i686-w64-mingw32/8.1.0/libgcc_eh.a(unwind-dw2-fde.o)
 .debug_info    0x00522c06     0x744c C:/Program Files/ETAS/ISOLAR-EVE3.5.0/plugins/com.etas.evetools.toolsfolder_3.5.5/Tools/MinGW/bin/../lib/gcc/i686-w64-mingw32/8.1.0/libgcc_eh.a(emutls.o)

.zdebug_info
 *(.zdebug_info .zdebug.gnu.linkonce.wi.*)

.debug_abbrev   0x0052b000     0xe800
 *(.debug_abbrev)
 .debug_abbrev  0x0052b000      0x15d BswTasks.o
 .debug_abbrev  0x0052b15d      0x280 EVE_SystemClock.o
 .debug_abbrev  0x0052b3dd      0x193 main.o
 .debug_abbrev  0x0052b570      0x19d Os_ErrorHook.o
 .debug_abbrev  0x0052b70d      0x221 Os_Hooks.o
 .debug_abbrev  0x0052b92e      0x23c OsTask_0.o
 .debug_abbrev  0x0052bb6a      0x17b OsTask_04.o
 .debug_abbrev  0x0052bce5      0x17b OsTask_1.o
 .debug_abbrev  0x0052be60      0x17b OsTask_10.o
 .debug_abbrev  0x0052bfdb      0x17b OsTask_11.o
 .debug_abbrev  0x0052c156      0x17b OsTask_12.o
 .debug_abbrev  0x0052c2d1      0x17b OsTask_13.o
 .debug_abbrev  0x0052c44c      0x17b OsTask_14.o
 .debug_abbrev  0x0052c5c7      0x17b OsTask_15.o
 .debug_abbrev  0x0052c742      0x17b OsTask_16.o
 .debug_abbrev  0x0052c8bd      0x17b OsTask_18.o
 .debug_abbrev  0x0052ca38      0x17b OsTask_19.o
 .debug_abbrev  0x0052cbb3      0x17b OsTask_2.o
 .debug_abbrev  0x0052cd2e      0x17b OsTask_20.o
 .debug_abbrev  0x0052cea9      0x17b OsTask_21.o
 .debug_abbrev  0x0052d024      0x17b OsTask_22.o
 .debug_abbrev  0x0052d19f      0x17b OsTask_23.o
 .debug_abbrev  0x0052d31a      0x17b OsTask_24.o
 .debug_abbrev  0x0052d495      0x17b OsTask_25.o
 .debug_abbrev  0x0052d610      0x17b OsTask_26.o
 .debug_abbrev  0x0052d78b      0x17b OsTask_3.o
 .debug_abbrev  0x0052d906      0x17b OsTask_5.o
 .debug_abbrev  0x0052da81      0x17b OsTask_6.o
 .debug_abbrev  0x0052dbfc      0x17b OsTask_7.o
 .debug_abbrev  0x0052dd77      0x17b OsTask_8.o
 .debug_abbrev  0x0052def2      0x2b5 Rte.o
 .debug_abbrev  0x0052e1a7      0x1bb Rte_AccelControlAPP.o
 .debug_abbrev  0x0052e362      0x18c Rte_AccelPedalSen.o
 .debug_abbrev  0x0052e4ee      0x18c Rte_ACT_HYDRAULIC_MODULATOR_FRONTL_COMP.o
 .debug_abbrev  0x0052e67a      0x18c Rte_ACT_HYDRAULIC_MODULATOR_FRONTR_COMP.o
 .debug_abbrev  0x0052e806      0x18c Rte_ACT_HYDRAULIC_MODULATOR_REARL_COMP.o
 .debug_abbrev  0x0052e992      0x18c Rte_ACT_HYDRAULIC_MODULATOR_REARR_COMP.o
 .debug_abbrev  0x0052eb1e      0x18c Rte_ACT_MOTOR_COMP.o
 .debug_abbrev  0x0052ecaa      0x221 Rte_APP_BRAKE_CONTROLL_COMP.o
 .debug_abbrev  0x0052eecb      0x1c2 Rte_APP_MOTOR_COMP.o
 .debug_abbrev  0x0052f08d      0x18c Rte_AvgSpeed.o
 .debug_abbrev  0x0052f219      0x18c Rte_BrakePedalSen.o
 .debug_abbrev  0x0052f3a5      0x18c Rte_Cylinder_Sen.o
 .debug_abbrev  0x0052f531      0x1b9 Rte_ECU_ABS.o
 .debug_abbrev  0x0052f6ea      0x18c Rte_Engine_Cycle_ACT.o
 .debug_abbrev  0x0052f876      0x17b Rte_Engine_Gear_ACT.o
 .debug_abbrev  0x0052f9f1      0x1a6 Rte_EngineApp.o
 .debug_abbrev  0x0052fb97      0x18c Rte_GearModeSen.o
 .debug_abbrev  0x0052fd23      0x307 Rte_Lib.o
 .debug_abbrev  0x0053002a      0x1b3 Rte_SEN_BATT_COMP.o
 .debug_abbrev  0x005301dd      0x18c Rte_SpeedSen.o
 .debug_abbrev  0x00530369       0x8e startVecu.o
 .debug_abbrev  0x005303f7      0x12a target.o
 .debug_abbrev  0x00530521      0x1b8 VECU_SystemClock_ISR.o
 .debug_abbrev  0x005306d9      0x3b3 virtualdevices.o
 .debug_abbrev  0x00530a8c       0x81 Vrta_Cfg.o
 .debug_abbrev  0x00530b0d      0x1b8 RTAOS.lib(ActivateTask.o)
 .debug_abbrev  0x00530cc5      0x1a4 RTAOS.lib(CancelAlarm.o)
 .debug_abbrev  0x00530e69      0x195 RTAOS.lib(ClearEvent.o)
 .debug_abbrev  0x00530ffe      0x1a0 RTAOS.lib(DispatchTask.o)
 .debug_abbrev  0x0053119e      0x195 RTAOS.lib(GetEvent.o)
 .debug_abbrev  0x00531333      0x14b RTAOS.lib(GetISRID.o)
 .debug_abbrev  0x0053147e      0x195 RTAOS.lib(GetResource.o)
 .debug_abbrev  0x00531613      0x148 RTAOS.lib(GetTaskID.o)
 .debug_abbrev  0x0053175b      0x1d4 RTAOS.lib(Os_Cfg.o)
 .debug_abbrev  0x0053192f      0x219 RTAOS.lib(Os_Cfg_Counters.o)
 .debug_abbrev  0x00531b48      0x149 RTAOS.lib(Os_Cfg_KL.o)
 .debug_abbrev  0x00531c91      0x167 RTAOS.lib(Os_fsb.o)
 .debug_abbrev  0x00531df8      0x117 RTAOS.lib(Os_SetJmp.o)
 .debug_abbrev  0x00531f0f      0x1f1 RTAOS.lib(Os_Stack.o)
 .debug_abbrev  0x00532100      0x195 RTAOS.lib(ReleaseResource.o)
 .debug_abbrev  0x00532295      0x155 RTAOS.lib(ResumeOSInterrupts.o)
 .debug_abbrev  0x005323ea      0x1bc RTAOS.lib(SetEvent.o)
 .debug_abbrev  0x005325a6      0x1c5 RTAOS.lib(SetRelAlarm.o)
 .debug_abbrev  0x0053276b      0x195 RTAOS.lib(StartOS.o)
 .debug_abbrev  0x00532900      0x1af RTAOS.lib(StartScheduleTableRel.o)
 .debug_abbrev  0x00532aaf      0x1a4 RTAOS.lib(StopScheduleTable.o)
 .debug_abbrev  0x00532c53      0x196 RTAOS.lib(SuspendOSInterrupts.o)
 .debug_abbrev  0x00532de9      0x163 RTAOS.lib(TerminateTask.o)
 .debug_abbrev  0x00532f4c      0x2bd RTAOS.lib(vrtaAppMain.o)
 .debug_abbrev  0x00533209      0xa48 RTAOS.lib(vrtaCore.o)
 .debug_abbrev  0x00533c51      0x300 RTAOS.lib(vrtaIdleHandling.o)
 .debug_abbrev  0x00533f51      0x65c RTAOS.lib(vrtaLoggerDevice.o)
 .debug_abbrev  0x005345ad      0x6f8 RTAOS.lib(vrtaOSMonitorDevice.o)
 .debug_abbrev  0x00534ca5      0x82d RTAOS.lib(vrtaSampleDevices.o)
 .debug_abbrev  0x005354d2      0x8ab RTAOS.lib(vrtaSystemClock.o)
 .debug_abbrev  0x00535d7d      0x8d6 RTAOS.lib(vrtaSystemClockDevice.o)
 .debug_abbrev  0x00536653      0x1e0 RTAOS.lib(WaitEvent.o)
 .debug_abbrev  0x00536833      0x1a9 RTAOS.lib(DispatchECC.o)
 .debug_abbrev  0x005369dc      0x16b RTAOS.lib(GetStackValue.o)
 .debug_abbrev  0x00536b47      0x168 RTAOS.lib(Os_vectors.o)
 .debug_abbrev  0x00536caf      0x1a2 RTAOS.lib(Os_wrapper.o)
 .debug_abbrev  0x00536e51      0x19c RTAOS.lib(StackOverrunHook.o)
 .debug_abbrev  0x00536fed      0x839 RTAOS.lib(virtualDevice.o)
 .debug_abbrev  0x00537826      0x18a RTAOS.lib(ShutdownOS.o)
 .debug_abbrev  0x005379b0      0x135 RTAOS.lib(InShutdown.o)
 .debug_abbrev  0x00537ae5       0x14 C:/Program Files/ETAS/ISOLAR-EVE3.5.0/plugins/com.etas.evetools.toolsfolder_3.5.5/Tools/MinGW/bin/../lib/gcc/i686-w64-mingw32/8.1.0/libgcc.a(_chkstk_ms.o)
 .debug_abbrev  0x00537af9      0x135 C:/Program Files/ETAS/ISOLAR-EVE3.5.0/plugins/com.etas.evetools.toolsfolder_3.5.5/Tools/MinGW/bin/../lib/gcc/i686-w64-mingw32/8.1.0/libgcc.a(_ctors.o)
 .debug_abbrev  0x00537c2e      0x228 C:/Program Files/ETAS/ISOLAR-EVE3.5.0/plugins/com.etas.evetools.toolsfolder_3.5.5/Tools/MinGW/bin/../lib/gcc/i686-w64-mingw32/8.1.0/libgcc.a(_divdi3.o)
 .debug_abbrev  0x00537e56      0x34d C:/Program Files/ETAS/ISOLAR-EVE3.5.0/plugins/com.etas.evetools.toolsfolder_3.5.5/Tools/MinGW/bin/../lib/gcc/i686-w64-mingw32/8.1.0/libgcc.a(gthr-win32.o)
 .debug_abbrev  0x005381a3      0x832 C:/Program Files/ETAS/ISOLAR-EVE3.5.0/plugins/com.etas.evetools.toolsfolder_3.5.5/Tools/MinGW/bin/../lib/gcc/i686-w64-mingw32/8.1.0/libgcc_eh.a(unwind-dw2.o)
 .debug_abbrev  0x005389d5      0x7a3 C:/Program Files/ETAS/ISOLAR-EVE3.5.0/plugins/com.etas.evetools.toolsfolder_3.5.5/Tools/MinGW/bin/../lib/gcc/i686-w64-mingw32/8.1.0/libgcc_eh.a(unwind-dw2-fde.o)
 .debug_abbrev  0x00539178      0x4c2 C:/Program Files/ETAS/ISOLAR-EVE3.5.0/plugins/com.etas.evetools.toolsfolder_3.5.5/Tools/MinGW/bin/../lib/gcc/i686-w64-mingw32/8.1.0/libgcc_eh.a(emutls.o)

.zdebug_abbrev
 *(.zdebug_abbrev)

.debug_line     0x0053a000    0x1ae00
 *(.debug_line)
 .debug_line    0x0053a000       0xab BswTasks.o
 .debug_line    0x0053a0ab      0x1cf EVE_SystemClock.o
 .debug_line    0x0053a27a      0x11e main.o
 .debug_line    0x0053a398      0x125 Os_ErrorHook.o
 .debug_line    0x0053a4bd      0x1a2 Os_Hooks.o
 .debug_line    0x0053a65f      0x2b3 OsTask_0.o
 .debug_line    0x0053a912      0x142 OsTask_04.o
 .debug_line    0x0053aa54      0x141 OsTask_1.o
 .debug_line    0x0053ab95      0x142 OsTask_10.o
 .debug_line    0x0053acd7      0x142 OsTask_11.o
 .debug_line    0x0053ae19      0x142 OsTask_12.o
 .debug_line    0x0053af5b      0x12f OsTask_13.o
 .debug_line    0x0053b08a      0x142 OsTask_14.o
 .debug_line    0x0053b1cc      0x14c OsTask_15.o
 .debug_line    0x0053b318      0x138 OsTask_16.o
 .debug_line    0x0053b450      0x12f OsTask_18.o
 .debug_line    0x0053b57f      0x142 OsTask_19.o
 .debug_line    0x0053b6c1      0x12e OsTask_2.o
 .debug_line    0x0053b7ef      0x142 OsTask_20.o
 .debug_line    0x0053b931      0x142 OsTask_21.o
 .debug_line    0x0053ba73      0x138 OsTask_22.o
 .debug_line    0x0053bbab      0x142 OsTask_23.o
 .debug_line    0x0053bced      0x138 OsTask_24.o
 .debug_line    0x0053be25      0x138 OsTask_25.o
 .debug_line    0x0053bf5d      0x12f OsTask_26.o
 .debug_line    0x0053c08c      0x141 OsTask_3.o
 .debug_line    0x0053c1cd      0x137 OsTask_5.o
 .debug_line    0x0053c304      0x141 OsTask_6.o
 .debug_line    0x0053c445      0x141 OsTask_7.o
 .debug_line    0x0053c586      0x137 OsTask_8.o
 .debug_line    0x0053c6bd      0x754 Rte.o
 .debug_line    0x0053ce11      0x255 Rte_AccelControlAPP.o
 .debug_line    0x0053d066      0x14c Rte_AccelPedalSen.o
 .debug_line    0x0053d1b2      0x18f Rte_ACT_HYDRAULIC_MODULATOR_FRONTL_COMP.o
 .debug_line    0x0053d341      0x18f Rte_ACT_HYDRAULIC_MODULATOR_FRONTR_COMP.o
 .debug_line    0x0053d4d0      0x18d Rte_ACT_HYDRAULIC_MODULATOR_REARL_COMP.o
 .debug_line    0x0053d65d      0x18d Rte_ACT_HYDRAULIC_MODULATOR_REARR_COMP.o
 .debug_line    0x0053d7ea      0x150 Rte_ACT_MOTOR_COMP.o
 .debug_line    0x0053d93a      0xa12 Rte_APP_BRAKE_CONTROLL_COMP.o
 .debug_line    0x0053e34c      0x1ba Rte_APP_MOTOR_COMP.o
 .debug_line    0x0053e506      0x210 Rte_AvgSpeed.o
 .debug_line    0x0053e716      0x14c Rte_BrakePedalSen.o
 .debug_line    0x0053e862      0x15a Rte_Cylinder_Sen.o
 .debug_line    0x0053e9bc      0x1cd Rte_ECU_ABS.o
 .debug_line    0x0053eb89      0x191 Rte_Engine_Cycle_ACT.o
 .debug_line    0x0053ed1a      0x15d Rte_Engine_Gear_ACT.o
 .debug_line    0x0053ee77      0x185 Rte_EngineApp.o
 .debug_line    0x0053effc      0x148 Rte_GearModeSen.o
 .debug_line    0x0053f144      0x44a Rte_Lib.o
 .debug_line    0x0053f58e      0x1c8 Rte_SEN_BATT_COMP.o
 .debug_line    0x0053f756      0x16c Rte_SpeedSen.o
 .debug_line    0x0053f8c2       0xe6 startVecu.o
 .debug_line    0x0053f9a8      0x11e target.o
 .debug_line    0x0053fac6      0x13a VECU_SystemClock_ISR.o
 .debug_line    0x0053fc00      0x618 virtualdevices.o
 .debug_line    0x00540218       0xfc Vrta_Cfg.o
 .debug_line    0x00540314      0x174 RTAOS.lib(ActivateTask.o)
 .debug_line    0x00540488      0x108 RTAOS.lib(CancelAlarm.o)
 .debug_line    0x00540590       0xf8 RTAOS.lib(ClearEvent.o)
 .debug_line    0x00540688      0x31f RTAOS.lib(DispatchTask.o)
 .debug_line    0x005409a7       0xee RTAOS.lib(GetEvent.o)
 .debug_line    0x00540a95       0xd5 RTAOS.lib(GetISRID.o)
 .debug_line    0x00540b6a      0x153 RTAOS.lib(GetResource.o)
 .debug_line    0x00540cbd       0xd8 RTAOS.lib(GetTaskID.o)
 .debug_line    0x00540d95      0x1a1 RTAOS.lib(Os_Cfg.o)
 .debug_line    0x00540f36      0x41d RTAOS.lib(Os_Cfg_Counters.o)
 .debug_line    0x00541353      0x128 RTAOS.lib(Os_Cfg_KL.o)
 .debug_line    0x0054147b       0xbf RTAOS.lib(Os_fsb.o)
 .debug_line    0x0054153a       0xa4 RTAOS.lib(Os_SetJmp.o)
 .debug_line    0x005415de      0x188 RTAOS.lib(Os_Stack.o)
 .debug_line    0x00541766      0x122 RTAOS.lib(ReleaseResource.o)
 .debug_line    0x00541888      0x109 RTAOS.lib(ResumeOSInterrupts.o)
 .debug_line    0x00541991      0x1de RTAOS.lib(SetEvent.o)
 .debug_line    0x00541b6f      0x145 RTAOS.lib(SetRelAlarm.o)
 .debug_line    0x00541cb4      0x138 RTAOS.lib(StartOS.o)
 .debug_line    0x00541dec      0x12d RTAOS.lib(StartScheduleTableRel.o)
 .debug_line    0x00541f19      0x108 RTAOS.lib(StopScheduleTable.o)
 .debug_line    0x00542021      0x113 RTAOS.lib(SuspendOSInterrupts.o)
 .debug_line    0x00542134       0xf8 RTAOS.lib(TerminateTask.o)
 .debug_line    0x0054222c      0x43d RTAOS.lib(vrtaAppMain.o)
 .debug_line    0x00542669     0x10aa RTAOS.lib(vrtaCore.o)
 .debug_line    0x00543713      0x195 RTAOS.lib(vrtaIdleHandling.o)
 .debug_line    0x005438a8      0xdb9 RTAOS.lib(vrtaLoggerDevice.o)
 .debug_line    0x00544661     0x2bb6 RTAOS.lib(vrtaOSMonitorDevice.o)
 .debug_line    0x00547217     0x2504 RTAOS.lib(vrtaSampleDevices.o)
 .debug_line    0x0054971b     0x1371 RTAOS.lib(vrtaSystemClock.o)
 .debug_line    0x0054aa8c     0x15fa RTAOS.lib(vrtaSystemClockDevice.o)
 .debug_line    0x0054c086      0x253 RTAOS.lib(WaitEvent.o)
 .debug_line    0x0054c2d9      0x1c4 RTAOS.lib(DispatchECC.o)
 .debug_line    0x0054c49d       0xdc RTAOS.lib(GetStackValue.o)
 .debug_line    0x0054c579       0xa5 RTAOS.lib(Os_vectors.o)
 .debug_line    0x0054c61e      0x126 RTAOS.lib(Os_wrapper.o)
 .debug_line    0x0054c744       0xc2 RTAOS.lib(StackOverrunHook.o)
 .debug_line    0x0054c806     0x1ec3 RTAOS.lib(virtualDevice.o)
 .debug_line    0x0054e6c9      0x11c RTAOS.lib(ShutdownOS.o)
 .debug_line    0x0054e7e5       0xbc RTAOS.lib(InShutdown.o)
 .debug_line    0x0054e8a1       0x77 C:/Program Files/ETAS/ISOLAR-EVE3.5.0/plugins/com.etas.evetools.toolsfolder_3.5.5/Tools/MinGW/bin/../lib/gcc/i686-w64-mingw32/8.1.0/libgcc.a(_chkstk_ms.o)
 .debug_line    0x0054e918      0x1b2 C:/Program Files/ETAS/ISOLAR-EVE3.5.0/plugins/com.etas.evetools.toolsfolder_3.5.5/Tools/MinGW/bin/../lib/gcc/i686-w64-mingw32/8.1.0/libgcc.a(_ctors.o)
 .debug_line    0x0054eaca      0x30b C:/Program Files/ETAS/ISOLAR-EVE3.5.0/plugins/com.etas.evetools.toolsfolder_3.5.5/Tools/MinGW/bin/../lib/gcc/i686-w64-mingw32/8.1.0/libgcc.a(_divdi3.o)
 .debug_line    0x0054edd5      0x6cd C:/Program Files/ETAS/ISOLAR-EVE3.5.0/plugins/com.etas.evetools.toolsfolder_3.5.5/Tools/MinGW/bin/../lib/gcc/i686-w64-mingw32/8.1.0/libgcc.a(gthr-win32.o)
 .debug_line    0x0054f4a2     0x3284 C:/Program Files/ETAS/ISOLAR-EVE3.5.0/plugins/com.etas.evetools.toolsfolder_3.5.5/Tools/MinGW/bin/../lib/gcc/i686-w64-mingw32/8.1.0/libgcc_eh.a(unwind-dw2.o)
 .debug_line    0x00552726     0x1cc1 C:/Program Files/ETAS/ISOLAR-EVE3.5.0/plugins/com.etas.evetools.toolsfolder_3.5.5/Tools/MinGW/bin/../lib/gcc/i686-w64-mingw32/8.1.0/libgcc_eh.a(unwind-dw2-fde.o)
 .debug_line    0x005543e7      0x849 C:/Program Files/ETAS/ISOLAR-EVE3.5.0/plugins/com.etas.evetools.toolsfolder_3.5.5/Tools/MinGW/bin/../lib/gcc/i686-w64-mingw32/8.1.0/libgcc_eh.a(emutls.o)

.zdebug_line
 *(.zdebug_line)

.debug_frame    0x00555000      0x200
 *(.debug_frame*)
 .debug_frame   0x00555000       0x38 C:/Program Files/ETAS/ISOLAR-EVE3.5.0/plugins/com.etas.evetools.toolsfolder_3.5.5/Tools/MinGW/bin/../lib/gcc/i686-w64-mingw32/8.1.0/libgcc.a(_chkstk_ms.o)

.zdebug_frame
 *(.zdebug_frame*)

.debug_str      0x00556000     0x2c00
 *(.debug_str)
 .debug_str     0x00556000       0x42 BswTasks.o
 .debug_str     0x00556042       0x36 EVE_SystemClock.o
 .debug_str     0x00556078       0x42 main.o
 .debug_str     0x005560ba       0x42 Os_ErrorHook.o
 .debug_str     0x005560fc       0x42 Os_Hooks.o
 .debug_str     0x0055613e       0x7d OsTask_0.o
 .debug_str     0x005561bb       0x42 OsTask_04.o
 .debug_str     0x005561fd       0x42 OsTask_1.o
 .debug_str     0x0055623f       0x42 OsTask_10.o
 .debug_str     0x00556281       0x42 OsTask_11.o
 .debug_str     0x005562c3       0x42 OsTask_12.o
 .debug_str     0x00556305       0x42 OsTask_13.o
 .debug_str     0x00556347       0x42 OsTask_14.o
 .debug_str     0x00556389       0x42 OsTask_15.o
 .debug_str     0x005563cb       0x42 OsTask_16.o
 .debug_str     0x0055640d       0x42 OsTask_18.o
 .debug_str     0x0055644f       0x42 OsTask_19.o
 .debug_str     0x00556491       0x42 OsTask_2.o
 .debug_str     0x005564d3       0x42 OsTask_20.o
 .debug_str     0x00556515       0x42 OsTask_21.o
 .debug_str     0x00556557       0x42 OsTask_22.o
 .debug_str     0x00556599       0x42 OsTask_23.o
 .debug_str     0x005565db       0x42 OsTask_24.o
 .debug_str     0x0055661d       0x42 OsTask_25.o
 .debug_str     0x0055665f       0x42 OsTask_26.o
 .debug_str     0x005566a1       0x42 OsTask_3.o
 .debug_str     0x005566e3       0x42 OsTask_5.o
 .debug_str     0x00556725       0x42 OsTask_6.o
 .debug_str     0x00556767       0x42 OsTask_7.o
 .debug_str     0x005567a9       0x42 OsTask_8.o
 .debug_str     0x005567eb      0x122 Rte.o
 .debug_str     0x0055690d       0x42 Rte_AccelControlAPP.o
 .debug_str     0x0055694f       0x42 Rte_AccelPedalSen.o
 .debug_str     0x00556991       0x42 Rte_ACT_HYDRAULIC_MODULATOR_FRONTL_COMP.o
 .debug_str     0x005569d3       0x42 Rte_ACT_HYDRAULIC_MODULATOR_FRONTR_COMP.o
 .debug_str     0x00556a15       0x42 Rte_ACT_HYDRAULIC_MODULATOR_REARL_COMP.o
 .debug_str     0x00556a57       0x42 Rte_ACT_HYDRAULIC_MODULATOR_REARR_COMP.o
 .debug_str     0x00556a99       0x42 Rte_ACT_MOTOR_COMP.o
 .debug_str     0x00556adb       0x48 Rte_APP_BRAKE_CONTROLL_COMP.o
 .debug_str     0x00556b23       0x42 Rte_APP_MOTOR_COMP.o
 .debug_str     0x00556b65       0x42 Rte_AvgSpeed.o
 .debug_str     0x00556ba7       0x42 Rte_BrakePedalSen.o
 .debug_str     0x00556be9       0x42 Rte_Cylinder_Sen.o
 .debug_str     0x00556c2b       0x4e Rte_ECU_ABS.o
 .debug_str     0x00556c79       0x42 Rte_Engine_Cycle_ACT.o
 .debug_str     0x00556cbb       0x42 Rte_Engine_Gear_ACT.o
 .debug_str     0x00556cfd       0x42 Rte_EngineApp.o
 .debug_str     0x00556d3f       0x42 Rte_GearModeSen.o
 .debug_str     0x00556d81       0x8f Rte_Lib.o
 .debug_str     0x00556e10       0x42 Rte_SEN_BATT_COMP.o
 .debug_str     0x00556e52       0x42 Rte_SpeedSen.o
 .debug_str     0x00556e94        0x0 startVecu.o
 .debug_str     0x00556e94        0x0 target.o
 .debug_str     0x00556e94       0x42 VECU_SystemClock_ISR.o
 .debug_str     0x00556ed6       0x31 virtualdevices.o
 .debug_str     0x00556f07        0x0 Vrta_Cfg.o
 .debug_str     0x00556f07       0x61 RTAOS.lib(ActivateTask.o)
 .debug_str     0x00556f68       0x55 RTAOS.lib(CancelAlarm.o)
 .debug_str     0x00556fbd       0x55 RTAOS.lib(ClearEvent.o)
 .debug_str     0x00557012       0x5f RTAOS.lib(DispatchTask.o)
 .debug_str     0x00557071       0x55 RTAOS.lib(GetEvent.o)
 .debug_str     0x005570c6       0x48 RTAOS.lib(GetISRID.o)
 .debug_str     0x0055710e       0x55 RTAOS.lib(GetResource.o)
 .debug_str     0x00557163       0x48 RTAOS.lib(GetTaskID.o)
 .debug_str     0x005571ab       0x74 RTAOS.lib(Os_Cfg.o)
 .debug_str     0x0055721f       0xb2 RTAOS.lib(Os_Cfg_Counters.o)
 .debug_str     0x005572d1       0x48 RTAOS.lib(Os_Cfg_KL.o)
 .debug_str     0x00557319       0x48 RTAOS.lib(Os_fsb.o)
 .debug_str     0x00557361       0x48 RTAOS.lib(Os_SetJmp.o)
 .debug_str     0x005573a9       0x48 RTAOS.lib(Os_Stack.o)
 .debug_str     0x005573f1       0x61 RTAOS.lib(ReleaseResource.o)
 .debug_str     0x00557452       0x55 RTAOS.lib(ResumeOSInterrupts.o)
 .debug_str     0x005574a7       0x61 RTAOS.lib(SetEvent.o)
 .debug_str     0x00557508       0x6d RTAOS.lib(SetRelAlarm.o)
 .debug_str     0x00557575       0x96 RTAOS.lib(StartOS.o)
 .debug_str     0x0055760b       0x6d RTAOS.lib(StartScheduleTableRel.o)
 .debug_str     0x00557678       0x55 RTAOS.lib(StopScheduleTable.o)
 .debug_str     0x005576cd       0x62 RTAOS.lib(SuspendOSInterrupts.o)
 .debug_str     0x0055772f       0x53 RTAOS.lib(TerminateTask.o)
 .debug_str     0x00557782       0xb9 RTAOS.lib(vrtaAppMain.o)
 .debug_str     0x0055783b      0x10e RTAOS.lib(vrtaCore.o)
 .debug_str     0x00557949       0x77 RTAOS.lib(vrtaIdleHandling.o)
 .debug_str     0x005579c0       0xd6 RTAOS.lib(vrtaLoggerDevice.o)
 .debug_str     0x00557a96      0x17e RTAOS.lib(vrtaOSMonitorDevice.o)
 .debug_str     0x00557c14      0x321 RTAOS.lib(vrtaSampleDevices.o)
 .debug_str     0x00557f35      0x23b RTAOS.lib(vrtaSystemClock.o)
 .debug_str     0x00558170      0x1a6 RTAOS.lib(vrtaSystemClockDevice.o)
 .debug_str     0x00558316       0x8b RTAOS.lib(WaitEvent.o)
 .debug_str     0x005583a1       0x9a RTAOS.lib(DispatchECC.o)
 .debug_str     0x0055843b       0x51 RTAOS.lib(GetStackValue.o)
 .debug_str     0x0055848c       0x48 RTAOS.lib(Os_vectors.o)
 .debug_str     0x005584d4       0x61 RTAOS.lib(Os_wrapper.o)
 .debug_str     0x00558535       0x56 RTAOS.lib(StackOverrunHook.o)
 .debug_str     0x0055858b      0x2b7 RTAOS.lib(virtualDevice.o)
 .debug_str     0x00558842       0x74 RTAOS.lib(ShutdownOS.o)
 .debug_str     0x005588b6       0x48 RTAOS.lib(InShutdown.o)
 .debug_str     0x005588fe       0x99 C:/Program Files/ETAS/ISOLAR-EVE3.5.0/plugins/com.etas.evetools.toolsfolder_3.5.5/Tools/MinGW/bin/../lib/gcc/i686-w64-mingw32/8.1.0/libgcc.a(_chkstk_ms.o)
 .debug_str     0x00558997        0x0 C:/Program Files/ETAS/ISOLAR-EVE3.5.0/plugins/com.etas.evetools.toolsfolder_3.5.5/Tools/MinGW/bin/../lib/gcc/i686-w64-mingw32/8.1.0/libgcc.a(_ctors.o)
 .debug_str     0x00558997        0x0 C:/Program Files/ETAS/ISOLAR-EVE3.5.0/plugins/com.etas.evetools.toolsfolder_3.5.5/Tools/MinGW/bin/../lib/gcc/i686-w64-mingw32/8.1.0/libgcc.a(_divdi3.o)
 .debug_str     0x00558997       0x23 C:/Program Files/ETAS/ISOLAR-EVE3.5.0/plugins/com.etas.evetools.toolsfolder_3.5.5/Tools/MinGW/bin/../lib/gcc/i686-w64-mingw32/8.1.0/libgcc.a(gthr-win32.o)
 .debug_str     0x005589ba       0xd6 C:/Program Files/ETAS/ISOLAR-EVE3.5.0/plugins/com.etas.evetools.toolsfolder_3.5.5/Tools/MinGW/bin/../lib/gcc/i686-w64-mingw32/8.1.0/libgcc_eh.a(unwind-dw2.o)
 .debug_str     0x00558a90       0x7f C:/Program Files/ETAS/ISOLAR-EVE3.5.0/plugins/com.etas.evetools.toolsfolder_3.5.5/Tools/MinGW/bin/../lib/gcc/i686-w64-mingw32/8.1.0/libgcc_eh.a(unwind-dw2-fde.o)
 .debug_str     0x00558b0f       0x33 C:/Program Files/ETAS/ISOLAR-EVE3.5.0/plugins/com.etas.evetools.toolsfolder_3.5.5/Tools/MinGW/bin/../lib/gcc/i686-w64-mingw32/8.1.0/libgcc_eh.a(emutls.o)

.zdebug_str
 *(.zdebug_str)

.debug_loc      0x00559000    0x19e00
 *(.debug_loc)
 .debug_loc     0x00559000       0xb6 RTAOS.lib(ActivateTask.o)
 .debug_loc     0x005590b6       0x45 RTAOS.lib(CancelAlarm.o)
 .debug_loc     0x005590fb       0x15 RTAOS.lib(ClearEvent.o)
 .debug_loc     0x00559110       0x99 RTAOS.lib(DispatchTask.o)
 .debug_loc     0x005591a9       0x15 RTAOS.lib(GetEvent.o)
 .debug_loc     0x005591be       0x15 RTAOS.lib(GetISRID.o)
 .debug_loc     0x005591d3       0x22 RTAOS.lib(GetResource.o)
 .debug_loc     0x005591f5       0x37 RTAOS.lib(Os_Cfg.o)
 .debug_loc     0x0055922c      0x3d8 RTAOS.lib(Os_Cfg_Counters.o)
 .debug_loc     0x00559604       0x23 RTAOS.lib(Os_Cfg_KL.o)
 .debug_loc     0x00559627       0x15 RTAOS.lib(Os_fsb.o)
 .debug_loc     0x0055963c       0x64 RTAOS.lib(Os_Stack.o)
 .debug_loc     0x005596a0       0x7a RTAOS.lib(ReleaseResource.o)
 .debug_loc     0x0055971a       0x52 RTAOS.lib(SetEvent.o)
 .debug_loc     0x0055976c       0x52 RTAOS.lib(SetRelAlarm.o)
 .debug_loc     0x005597be       0x3c RTAOS.lib(StartOS.o)
 .debug_loc     0x005597fa       0x52 RTAOS.lib(StartScheduleTableRel.o)
 .debug_loc     0x0055984c       0x45 RTAOS.lib(StopScheduleTable.o)
 .debug_loc     0x00559891       0x22 RTAOS.lib(SuspendOSInterrupts.o)
 .debug_loc     0x005598b3      0x746 RTAOS.lib(vrtaCore.o)
 .debug_loc     0x00559ff9       0x60 RTAOS.lib(vrtaIdleHandling.o)
 .debug_loc     0x0055a059      0x928 RTAOS.lib(vrtaLoggerDevice.o)
 .debug_loc     0x0055a981     0x59bc RTAOS.lib(vrtaOSMonitorDevice.o)
 .debug_loc     0x0056033d     0x3976 RTAOS.lib(vrtaSampleDevices.o)
 .debug_loc     0x00563cb3      0xbf4 RTAOS.lib(vrtaSystemClock.o)
 .debug_loc     0x005648a7      0xfa7 RTAOS.lib(vrtaSystemClockDevice.o)
 .debug_loc     0x0056584e       0xd7 RTAOS.lib(WaitEvent.o)
 .debug_loc     0x00565925      0x114 RTAOS.lib(DispatchECC.o)
 .debug_loc     0x00565a39       0x15 RTAOS.lib(GetStackValue.o)
 .debug_loc     0x00565a4e       0x5e RTAOS.lib(Os_wrapper.o)
 .debug_loc     0x00565aac       0x16 RTAOS.lib(StackOverrunHook.o)
 .debug_loc     0x00565ac2     0x2a31 RTAOS.lib(virtualDevice.o)
 .debug_loc     0x005684f3      0x328 C:/Program Files/ETAS/ISOLAR-EVE3.5.0/plugins/com.etas.evetools.toolsfolder_3.5.5/Tools/MinGW/bin/../lib/gcc/i686-w64-mingw32/8.1.0/libgcc.a(_divdi3.o)
 .debug_loc     0x0056881b      0x345 C:/Program Files/ETAS/ISOLAR-EVE3.5.0/plugins/com.etas.evetools.toolsfolder_3.5.5/Tools/MinGW/bin/../lib/gcc/i686-w64-mingw32/8.1.0/libgcc.a(gthr-win32.o)
 .debug_loc     0x00568b60     0x6c14 C:/Program Files/ETAS/ISOLAR-EVE3.5.0/plugins/com.etas.evetools.toolsfolder_3.5.5/Tools/MinGW/bin/../lib/gcc/i686-w64-mingw32/8.1.0/libgcc_eh.a(unwind-dw2.o)
 .debug_loc     0x0056f774     0x2f52 C:/Program Files/ETAS/ISOLAR-EVE3.5.0/plugins/com.etas.evetools.toolsfolder_3.5.5/Tools/MinGW/bin/../lib/gcc/i686-w64-mingw32/8.1.0/libgcc_eh.a(unwind-dw2-fde.o)
 .debug_loc     0x005726c6      0x708 C:/Program Files/ETAS/ISOLAR-EVE3.5.0/plugins/com.etas.evetools.toolsfolder_3.5.5/Tools/MinGW/bin/../lib/gcc/i686-w64-mingw32/8.1.0/libgcc_eh.a(emutls.o)

.zdebug_loc
 *(.zdebug_loc)

.debug_macinfo
 *(.debug_macinfo)

.zdebug_macinfo
 *(.zdebug_macinfo)

.debug_weaknames
 *(.debug_weaknames)

.zdebug_weaknames
 *(.zdebug_weaknames)

.debug_funcnames
 *(.debug_funcnames)

.zdebug_funcnames
 *(.zdebug_funcnames)

.debug_typenames
 *(.debug_typenames)

.zdebug_typenames
 *(.zdebug_typenames)

.debug_varnames
 *(.debug_varnames)

.zdebug_varnames
 *(.zdebug_varnames)

.debug_macro
 *(.debug_macro)

.zdebug_macro
 *(.zdebug_macro)

.debug_ranges   0x00573000     0x3e00
 *(.debug_ranges)
 .debug_ranges  0x00573000       0x30 EVE_SystemClock.o
 .debug_ranges  0x00573030       0x30 Rte_APP_BRAKE_CONTROLL_COMP.o
 .debug_ranges  0x00573060       0x18 Rte_Lib.o
 .debug_ranges  0x00573078       0x20 virtualdevices.o
 .debug_ranges  0x00573098       0x18 RTAOS.lib(ActivateTask.o)
 .debug_ranges  0x005730b0       0x20 RTAOS.lib(Os_Cfg.o)
 .debug_ranges  0x005730d0       0x80 RTAOS.lib(Os_Cfg_Counters.o)
 .debug_ranges  0x00573150       0x18 RTAOS.lib(Os_Stack.o)
 .debug_ranges  0x00573168       0x20 RTAOS.lib(SetRelAlarm.o)
 .debug_ranges  0x00573188       0x18 RTAOS.lib(vrtaAppMain.o)
 .debug_ranges  0x005731a0      0x258 RTAOS.lib(vrtaCore.o)
 .debug_ranges  0x005733f8       0x30 RTAOS.lib(vrtaIdleHandling.o)
 .debug_ranges  0x00573428       0xd8 RTAOS.lib(vrtaLoggerDevice.o)
 .debug_ranges  0x00573500      0xda0 RTAOS.lib(vrtaOSMonitorDevice.o)
 .debug_ranges  0x005742a0      0x848 RTAOS.lib(vrtaSampleDevices.o)
 .debug_ranges  0x00574ae8      0x4e0 RTAOS.lib(vrtaSystemClock.o)
 .debug_ranges  0x00574fc8      0x378 RTAOS.lib(vrtaSystemClockDevice.o)
 .debug_ranges  0x00575340       0x20 RTAOS.lib(DispatchECC.o)
 .debug_ranges  0x00575360       0x20 RTAOS.lib(Os_wrapper.o)
 .debug_ranges  0x00575380      0x7c0 RTAOS.lib(virtualDevice.o)
 .debug_ranges  0x00575b40       0x20 C:/Program Files/ETAS/ISOLAR-EVE3.5.0/plugins/com.etas.evetools.toolsfolder_3.5.5/Tools/MinGW/bin/../lib/gcc/i686-w64-mingw32/8.1.0/libgcc.a(_divdi3.o)
 .debug_ranges  0x00575b60       0x50 C:/Program Files/ETAS/ISOLAR-EVE3.5.0/plugins/com.etas.evetools.toolsfolder_3.5.5/Tools/MinGW/bin/../lib/gcc/i686-w64-mingw32/8.1.0/libgcc.a(gthr-win32.o)
 .debug_ranges  0x00575bb0      0xa80 C:/Program Files/ETAS/ISOLAR-EVE3.5.0/plugins/com.etas.evetools.toolsfolder_3.5.5/Tools/MinGW/bin/../lib/gcc/i686-w64-mingw32/8.1.0/libgcc_eh.a(unwind-dw2.o)
 .debug_ranges  0x00576630      0x640 C:/Program Files/ETAS/ISOLAR-EVE3.5.0/plugins/com.etas.evetools.toolsfolder_3.5.5/Tools/MinGW/bin/../lib/gcc/i686-w64-mingw32/8.1.0/libgcc_eh.a(unwind-dw2-fde.o)
 .debug_ranges  0x00576c70      0x148 C:/Program Files/ETAS/ISOLAR-EVE3.5.0/plugins/com.etas.evetools.toolsfolder_3.5.5/Tools/MinGW/bin/../lib/gcc/i686-w64-mingw32/8.1.0/libgcc_eh.a(emutls.o)

.zdebug_ranges
 *(.zdebug_ranges)

.debug_types
 *(.debug_types .gnu.linkonce.wt.*)

.zdebug_types
 *(.zdebug_types .gnu.linkonce.wt.*)

.debug_gdb_scripts
 *(.debug_gdb_scripts)

.zdebug_gdb_scripts
 *(.zdebug_gdb_scripts)
OUTPUT(Fproject2_5.exe pei-i386)
